 extractfuncs

 Timestamp is 5aa4dca4 (Sun Mar 11 01:37:08 2018)

 Preferred load address is 00400000

 Start         Length     Name                   Class
 0001:00000000 000af320H .text$mn                CODE
 0001:000af320 000010e8H .text$x                 CODE
 0002:00000000 00000104H .CRT$XCA                DATA
 0002:00000104 00000104H .CRT$XCAA               DATA
 0002:00000208 00000104H .CRT$XCZ                DATA
 0002:0000030c 00000104H .CRT$XIA                DATA
 0002:00000410 00000104H .CRT$XIAA               DATA
 0002:00000514 00000104H .CRT$XIAC               DATA
 0002:00000618 00000114H .CRT$XIC                DATA
 0002:0000072c 00000104H .CRT$XIZ                DATA
 0002:00000830 00000104H .CRT$XPA                DATA
 0002:00000934 0000010cH .CRT$XPX                DATA
 0002:00000a40 00000104H .CRT$XPXA               DATA
 0002:00000b44 00000104H .CRT$XPZ                DATA
 0002:00000c48 00000104H .CRT$XTA                DATA
 0002:00000d4c 00000104H .CRT$XTZ                DATA
 0002:00000e50 00023428H .rdata                  DATA
 0002:00024278 00000448H .rdata$r                DATA
 0002:000246c0 0000012cH .rdata$sxdata           DATA
 0002:000247ec 0000019cH .rdata$zzzdbg           DATA
 0002:00024988 00000104H .rtc$IAA                DATA
 0002:00024a8c 00000104H .rtc$IZZ                DATA
 0002:00024b90 00000104H .rtc$TAA                DATA
 0002:00024c94 00000104H .rtc$TZZ                DATA
 0002:00024d98 000010b8H .xdata$x                DATA
 0002:00025e50 00000000H .edata                  DATA
 0003:00000000 00001128H .data                   DATA
 0003:00001128 00000258H .data$r                 DATA
 0003:00001380 00016164H .bss                    DATA
 0004:00000000 000001ecH .idata$5                DATA
 0004:000001ec 00000014H .idata$2                DATA
 0004:00000200 00000014H .idata$3                DATA
 0004:00000214 000001ecH .idata$4                DATA
 0004:00000400 000008aaH .idata$6                DATA
 0005:00000000 00000104H .00cfg                  DATA
 0006:00000000 00000170H .rsrc$01                DATA
 0006:00000170 000002ccH .rsrc$02                DATA

  Address         Publics by Value              Rva+Base       Lib:Object

 0000:00000000       ___enclave_config          00000000     <absolute>
 0000:00000000       ___guard_longjmp_table     00000000     <absolute>
 0000:00000000       ___guard_fids_count        00000000     <absolute>
 0000:00000000       ___hybrid_code_map         00000000     <absolute>
 0000:00000000       ___guard_iat_table         00000000     <absolute>
 0000:00000000       ___hybrid_code_map_count   00000000     <absolute>
 0000:00000000       ___guard_iat_count         00000000     <absolute>
 0000:00000000       ___guard_fids_table        00000000     <absolute>
 0000:00000000       ___hybrid_auxiliary_iat    00000000     <absolute>
 0000:00000000       ___guard_longjmp_count     00000000     <absolute>
 0000:00000000       __except_list              00000000     <absolute>
 0000:00000000       ___dynamic_value_reloc_table 00000000     <absolute>
 0000:00000009       ___safe_se_handler_count   00000009     <absolute>
 0000:00000100       ___guard_flags             00000100     <absolute>
 0000:00000000       ___ImageBase               00400000     <linker-defined>
 0001:00006b00       _AddFunctionName           00407b00 f   extractfuncs.obj
 0001:00006ce0       _AddTokenToList            00407ce0 f   extractfuncs.obj
 0001:00006d60       _ConcatDec                 00407d60 f   extractfuncs.obj
 0001:00006dd0       _DumpReplaceFunctions      00407dd0 f   extractfuncs.obj
 0001:000075e0       _Error                     004085e0 f   extractfuncs.obj
 0001:00007630       _FindFunctionName          00408630 f   extractfuncs.obj
 0001:00007690       _GetFunctionNamesFromFile  00408690 f   extractfuncs.obj
 0001:00007ae0       _MayScrewUp                00408ae0 f   extractfuncs.obj
 0001:00007b60       _ScrewUpFile               00408b60 f   extractfuncs.obj
 0001:00007d30       _StripTokenList            00408d30 f   extractfuncs.obj
 0001:00007dc0       _WriteString               00408dc0 f   extractfuncs.obj
 0001:00007e20       _WriteWhiteSpace           00408e20 f   extractfuncs.obj
 0001:00007e90       ___local_stdio_printf_options 00408e90 f i extractfuncs.obj
 0001:00007eb0       __vfprintf_l               00408eb0 f i extractfuncs.obj
 0001:00007f00       __vsnprintf_l              00408f00 f i extractfuncs.obj
 0001:00007f70       __vsprintf_l               00408f70 f i extractfuncs.obj
 0001:00007fb0       _main                      00408fb0 f   extractfuncs.obj
 0001:000080e0       _printf                    004090e0 f i extractfuncs.obj
 0001:00008130       _sprintf                   00409130 f i extractfuncs.obj
 0001:00008180       _vprintf                   00409180 f i extractfuncs.obj
 0001:000081c0       _Log_Close                 004091c0 f   l_log.obj
 0001:00008230       _Log_FileStruct            00409230 f   l_log.obj
 0001:00008250       _Log_Flush                 00409250 f   l_log.obj
 0001:00008280       _Log_Open                  00409280 f   l_log.obj
 0001:00008340       _Log_Print                 00409340 f   l_log.obj
 0001:000083d0       _Log_Shutdown              004093d0 f   l_log.obj
 0001:00008400       _Log_Write                 00409400 f   l_log.obj
 0001:00008460       _Log_WriteTimeStamped      00409460 f   l_log.obj
 0001:000084d0       _vfprintf                  004094d0 f i l_log.obj
 0001:00008500       _FreeMemory                00409500 f   l_memory.obj
 0001:00008540       _GetClearedHunkMemory      00409540 f   l_memory.obj
 0001:00008590       _GetClearedMemory          00409590 f   l_memory.obj
 0001:000085e0       _GetHunkMemory             004095e0 f   l_memory.obj
 0001:00008640       _GetMemory                 00409640 f   l_memory.obj
 0001:000086a0       _PrintMemoryLabels         004096a0 f   l_memory.obj
 0001:000086c0       _PrintUsedMemorySize       004096c0 f   l_memory.obj
 0001:000086e0       _PC_Directive_define       004096e0 f   l_precomp.obj
 0001:00008d50       _PC_Directive_ifdef        00409d50 f   l_precomp.obj
 0001:00008d80       _PC_Directive_ifndef       00409d80 f   l_precomp.obj
 0001:00008db0       _PC_Directive_else         00409db0 f   l_precomp.obj
 0001:00008e60       _PC_Directive_endif        00409e60 f   l_precomp.obj
 0001:00008ec0       _PC_Directive_elif         00409ec0 f   l_precomp.obj
 0001:00008f80       _PC_Directive_if           00409f80 f   l_precomp.obj
 0001:00009000       _PC_Directive_line         0040a000 f   l_precomp.obj
 0001:00009030       _PC_Directive_error        0040a030 f   l_precomp.obj
 0001:000090c0       _PC_Directive_pragma       0040a0c0 f   l_precomp.obj
 0001:00009130       _PC_Directive_eval         0040a130 f   l_precomp.obj
 0001:00009250       _PC_Directive_evalfloat    0040a250 f   l_precomp.obj
 0001:00009380       _PC_DollarDirective_evalint 0040a380 f   l_precomp.obj
 0001:000094b0       _PC_DollarDirective_evalfloat 0040a4b0 f   l_precomp.obj
 0001:000095f0       _PC_Directive_include      0040a5f0 f   l_precomp.obj
 0001:00009900       _PC_Directive_undef        0040a900 f   l_precomp.obj
 0001:00009b10       _FreeSource                0040ab10 f   l_precomp.obj
 0001:00009cd0       _LoadSourceFile            0040acd0 f   l_precomp.obj
 0001:00009df0       _LoadSourceMemory          0040adf0 f   l_precomp.obj
 0001:00009f10       _PC_AddBuiltinDefines      0040af10 f   l_precomp.obj
 0001:0000a070       _PC_AddDefine              0040b070 f   l_precomp.obj
 0001:0000a0d0       _PC_AddDefineToHash        0040b0d0 f   l_precomp.obj
 0001:0000a120       _PC_AddGlobalDefine        0040b120 f   l_precomp.obj
 0001:0000a180       _PC_AddGlobalDefinesToSource 0040b180 f   l_precomp.obj
 0001:0000a1f0       _PC_CheckTokenString       0040b1f0 f   l_precomp.obj
 0001:0000a290       _PC_CheckTokenType         0040b290 f   l_precomp.obj
 0001:0000a340       _PC_ClearTokenWhiteSpace   0040b340 f   l_precomp.obj
 0001:0000a390       _PC_ConvertPath            0040b390 f   l_precomp.obj
 0001:0000a460       _PC_CopyDefine             0040b460 f   l_precomp.obj
 0001:0000a620       _PC_CopyToken              0040b620 f   l_precomp.obj
 0001:0000a6b0       _PC_DefineFromString       0040b6b0 f   l_precomp.obj
 0001:0000a8b0       _PC_Directive_if_def       0040b8b0 f   l_precomp.obj
 0001:0000aa40       _PC_DollarEvaluate         0040ba40 f   l_precomp.obj
 0001:0000aeb0       _PC_Evaluate               0040beb0 f   l_precomp.obj
 0001:0000b280       _PC_EvaluateTokens         0040c280 f   l_precomp.obj
 0001:0000c660       _PC_ExpandBuiltinDefine    0040d660 f   l_precomp.obj
 0001:0000c9d0       _PC_ExpandDefine           0040d9d0 f   l_precomp.obj
 0001:0000cfd0       _PC_ExpandDefineIntoSource 0040dfd0 f   l_precomp.obj
 0001:0000d050       _PC_ExpectAnyToken         0040e050 f   l_precomp.obj
 0001:0000d0a0       _PC_ExpectTokenString      0040e0a0 f   l_precomp.obj
 0001:0000d160       _PC_ExpectTokenType        0040e160 f   l_precomp.obj
 0001:0000d490       _PC_FindDefine             0040e490 f   l_precomp.obj
 0001:0000d4f0       _PC_FindDefineParm         0040e4f0 f   l_precomp.obj
 0001:0000d570       _PC_FindHashedDefine       0040e570 f   l_precomp.obj
 0001:0000d5f0       _PC_FreeDefine             0040e5f0 f   l_precomp.obj
 0001:0000d690       _PC_FreeToken              0040e690 f   l_precomp.obj
 0001:0000d6d0       _PC_InitTokenHeap          0040e6d0 f   l_precomp.obj
 0001:0000d6f0       _PC_MergeTokens            0040e6f0 f   l_precomp.obj
 0001:0000d7b0       _PC_NameHash               0040e7b0 f   l_precomp.obj
 0001:0000d840       _PC_OperatorPriority       0040e840 f   l_precomp.obj
 0001:0000da00       _PC_PopIndent              0040ea00 f   l_precomp.obj
 0001:0000dad0       _PC_PrintDefineHashTable   0040ead0 f   l_precomp.obj
 0001:0000db70       _PC_PushIndent             0040eb70 f   l_precomp.obj
 0001:0000dc20       _PC_PushScript             0040ec20 f   l_precomp.obj
 0001:0000dcc0       _PC_ReadDefineParms        0040ecc0 f   l_precomp.obj
 0001:0000e0f0       _PC_ReadDirective          0040f0f0 f   l_precomp.obj
 0001:0000e240       _PC_ReadDollarDirective    0040f240 f   l_precomp.obj
 0001:0000e3b0       _PC_ReadLine               0040f3b0 f   l_precomp.obj
 0001:0000e440       _PC_ReadSourceToken        0040f440 f   l_precomp.obj
 0001:0000e5e0       _PC_ReadToken              0040f5e0 f   l_precomp.obj
 0001:0000e780       _PC_RemoveAllGlobalDefines 0040f780 f   l_precomp.obj
 0001:0000e7e0       _PC_RemoveGlobalDefine     0040f7e0 f   l_precomp.obj
 0001:0000e840       _PC_SetIncludePath         0040f840 f   l_precomp.obj
 0001:0000e8f0       _PC_SetPunctuations        0040f8f0 f   l_precomp.obj
 0001:0000e920       _PC_SkipUntilString        0040f920 f   l_precomp.obj
 0001:0000e9a0       _PC_StringizeTokens        0040f9a0 f   l_precomp.obj
 0001:0000eaa0       _PC_UnreadLastToken        0040faa0 f   l_precomp.obj
 0001:0000ead0       _PC_UnreadSourceToken      0040fad0 f   l_precomp.obj
 0001:0000eb30       _PC_UnreadToken            0040fb30 f   l_precomp.obj
 0001:0000eb60       _PC_WhiteSpaceBeforeToken  0040fb60 f   l_precomp.obj
 0001:0000ebb0       _Q_stricmp                 0040fbb0 f   l_precomp.obj
 0001:0000ebe0       _Q_stricmpn                0040fbe0 f   l_precomp.obj
 0001:0000ecc0       _Q_strlwr                  0040fcc0 f   l_precomp.obj
 0001:0000ed20       _Q_strncmp                 0040fd20 f   l_precomp.obj
 0001:0000edc0       _Q_strncpyz                0040fdc0 f   l_precomp.obj
 0001:0000ee30       _Q_strupr                  0040fe30 f   l_precomp.obj
 0001:0000ee90       _SourceError               0040fe90 f   l_precomp.obj
 0001:0000ef00       _SourceWarning             0040ff00 f   l_precomp.obj
 0001:0000ef70       _UnreadSignToken           0040ff70 f   l_precomp.obj
 0001:0000f090       _vsprintf                  00410090 f i l_precomp.obj
 0001:0000f0d0       _EndOfScript               004100d0 f   l_script.obj
 0001:0000f120       _FileLength                00410120 f   l_script.obj
 0001:0000f190       _FreeScript                00410190 f   l_script.obj
 0001:0000f1e0       _GetScriptFlags            004101e0 f   l_script.obj
 0001:0000f200       _LoadScriptFile            00410200 f   l_script.obj
 0001:0000f3c0       _LoadScriptMemory          004103c0 f   l_script.obj
 0001:0000f510       _NumLinesCrossed           00410510 f   l_script.obj
 0001:0000f540       _NumberValue               00410540 f   l_script.obj
 0001:0000f8f0       _PS_CheckTokenString       004108f0 f   l_script.obj
 0001:0000f990       _PS_CheckTokenType         00410990 f   l_script.obj
 0001:0000fa40       _PS_CreatePunctuationTable 00410a40 f   l_script.obj
 0001:0000fc00       _PS_ExpectAnyToken         00410c00 f   l_script.obj
 0001:0000fc50       _PS_ExpectTokenString      00410c50 f   l_script.obj
 0001:0000fd10       _PS_ExpectTokenType        00410d10 f   l_script.obj
 0001:00010080       _PS_NextWhiteSpaceChar     00411080 f   l_script.obj
 0001:000100f0       _PS_ReadEscapeCharacter    004110f0 f   l_script.obj
 0001:00010510       _PS_ReadLiteral            00411510 f   l_script.obj
 0001:00010750       _PS_ReadName               00411750 f   l_script.obj
 0001:00010880       _PS_ReadNumber             00411880 f   l_script.obj
 0001:00010f00       _PS_ReadPrimitive          00411f00 f   l_script.obj
 0001:00010ff0       _PS_ReadPunctuation        00411ff0 f   l_script.obj
 0001:00011110       _PS_ReadString             00412110 f   l_script.obj
 0001:00011440       _PS_ReadToken              00412440 f   l_script.obj
 0001:000117c0       _PS_ReadWhiteSpace         004127c0 f   l_script.obj
 0001:00011aa0       _PS_SkipUntilString        00412aa0 f   l_script.obj
 0001:00011b20       _PS_UnreadLastToken        00412b20 f   l_script.obj
 0001:00011b50       _PS_UnreadToken            00412b50 f   l_script.obj
 0001:00011ba0       _PunctuationFromNum        00412ba0 f   l_script.obj
 0001:00011c20       _ReadSignedFloat           00412c20 f   l_script.obj
 0001:00011d20       _ReadSignedInt             00412d20 f   l_script.obj
 0001:00011e00       _ResetScript               00412e00 f   l_script.obj
 0001:00011eb0       _ScriptError               00412eb0 f   l_script.obj
 0001:00011f30       _ScriptSkipTo              00412f30 f   l_script.obj
 0001:00011ff0       _ScriptWarning             00412ff0 f   l_script.obj
 0001:00012070       _SetScriptFlags            00413070 f   l_script.obj
 0001:000120a0       _SetScriptPunctuations     004130a0 f   l_script.obj
 0001:00012110       _StripDoubleQuotes         00413110 f   l_script.obj
 0001:00012190       _StripSingleQuotes         00413190 f   l_script.obj
 0001:00012201       _FindFirstFileA@8          00413201 f   kernel32:KERNEL32.dll
 0001:00012207       _FindNextFileA@8           00413207 f   kernel32:KERNEL32.dll
 0001:00012210       @__security_check_cookie@4 00413210 f   LIBCMTD:_secchk_.obj
 0001:00012230       __ftoui3                   00413230 f   LIBCMTD:_ftol3_.obj
 0001:0001223f       __ftoul3                   0041323f f   LIBCMTD:_ftol3_.obj
 0001:0001224e       __ftol3                    0041324e f   LIBCMTD:_ftol3_.obj
 0001:0001225b       __ftol3_NaN                0041325b f   LIBCMTD:_ftol3_.obj
 0001:00012273       __ftol3_work               00413273 f   LIBCMTD:_ftol3_.obj
 0001:000122f9       __ftol3_common             004132f9 f   LIBCMTD:_ftol3_.obj
 0001:000123bb       __ftol3_arg_error          004133bb f   LIBCMTD:_ftol3_.obj
 0001:000123cd       __ftol3_except             004133cd f   LIBCMTD:_ftol3_.obj
 0001:00012411       __dtoui3                   00413411 f   LIBCMTD:_ftol3_.obj
 0001:00012420       __dtoul3                   00413420 f   LIBCMTD:_ftol3_.obj
 0001:0001242f       __dtol3                    0041342f f   LIBCMTD:_ftol3_.obj
 0001:0001243c       __dtol3_NaN                0041343c f   LIBCMTD:_ftol3_.obj
 0001:00012459       __dtol3_work               00413459 f   LIBCMTD:_ftol3_.obj
 0001:00012540       __ultod3                   00413540 f   LIBCMTD:_ftol3_.obj
 0001:00012580       __ltod3                    00413580 f   LIBCMTD:_ftol3_.obj
 0001:00012a40       ?configure_argv@__scrt_narrow_argv_policy@@SAHXZ 00413a40 f i LIBCMTD:exe_main.obj
 0001:00012a60       ?initialize_environment@__scrt_narrow_environment_policy@@SAHXZ 00413a60 f i LIBCMTD:exe_main.obj
 0001:00012aa0       ?set_app_type@__scrt_main_policy@@SAXXZ 00413aa0 f i LIBCMTD:exe_main.obj
 0001:00012ac0       ?set_commode@__scrt_file_policy@@SAXXZ 00413ac0 f i LIBCMTD:exe_main.obj
 0001:00012ae0       ?set_fmode@__scrt_file_policy@@SAXXZ 00413ae0 f i LIBCMTD:exe_main.obj
 0001:00012b00       _mainCRTStartup            00413b00 f   LIBCMTD:exe_main.obj
 0001:00012b10       ___raise_securityfailure   00413b10 f   LIBCMTD:gs_report.obj
 0001:00012b50       ___report_gsfailure        00413b50 f   LIBCMTD:gs_report.obj
 0001:00012ca0       ___report_rangecheckfailure 00413ca0 f   LIBCMTD:gs_report.obj
 0001:00012cb0       ___report_securityfailure  00413cb0 f   LIBCMTD:gs_report.obj
 0001:00012dc0       ___report_securityfailureEx 00413dc0 f   LIBCMTD:gs_report.obj
 0001:00012f30       ??$__crt_fast_decode_pointer@PAP6AXXZ@@YAPAP6AXXZQAP6AXXZ@Z 00413f30 f i LIBCMTD:utility.obj
 0001:00012f60       ??$__crt_fast_encode_pointer@PAP6AXXZ@@YAPAP6AXXZQAP6AXXZ@Z 00413f60 f i LIBCMTD:utility.obj
 0001:00012fa0       ?__crt_rotate_pointer_value@@YAIIH@Z 00413fa0 f i LIBCMTD:utility.obj
 0001:000130f0       _NtCurrentTeb              004140f0 f i LIBCMTD:utility.obj
 0001:00013100       ___scrt_acquire_startup_lock 00414100 f   LIBCMTD:utility.obj
 0001:00013160       ___scrt_dllmain_after_initialize_c 00414160 f   LIBCMTD:utility.obj
 0001:000131a0       ___scrt_dllmain_before_initialize_c 004141a0 f   LIBCMTD:utility.obj
 0001:000131d0       ___scrt_dllmain_crt_thread_attach 004141d0 f   LIBCMTD:utility.obj
 0001:00013210       ___scrt_dllmain_crt_thread_detach 00414210 f   LIBCMTD:utility.obj
 0001:00013230       ___scrt_dllmain_exception_filter 00414230 f   LIBCMTD:utility.obj
 0001:00013290       ___scrt_dllmain_uninitialize_c 00414290 f   LIBCMTD:utility.obj
 0001:000132d0       ___scrt_dllmain_uninitialize_critical 004142d0 f   LIBCMTD:utility.obj
 0001:000132f0       ___scrt_initialize_crt     004142f0 f   LIBCMTD:utility.obj
 0001:00013350       ___scrt_initialize_onexit_tables 00414350 f   LIBCMTD:utility.obj
 0001:00013470       ___scrt_is_nonwritable_in_current_image 00414470 f   LIBCMTD:utility.obj
 0001:000135f0       ___scrt_release_startup_lock 004145f0 f   LIBCMTD:utility.obj
 0001:00013620       ___scrt_uninitialize_crt   00414620 f   LIBCMTD:utility.obj
 0001:00013670       __onexit                   00414670 f   LIBCMTD:utility.obj
 0001:00013700       _at_quick_exit             00414700 f   LIBCMTD:utility.obj
 0001:00013760       _atexit                    00414760 f   LIBCMTD:utility.obj
 0001:00013830       ___security_init_cookie    00414830 f   LIBCMTD:gs_support.obj
 0001:000138d0       __matherr                  004148d0 f   LIBCMTD:matherr.obj
 0001:000138e0       __get_startup_argv_mode    004148e0 f   LIBCMTD:argv_mode.obj
 0001:000138f0       __get_startup_commit_mode  004148f0 f   LIBCMTD:commit_mode.obj
 0001:00013900       __get_startup_file_mode    00414900 f   LIBCMTD:file_mode.obj
 0001:00013910       __get_startup_new_mode     00414910 f   LIBCMTD:new_mode.obj
 0001:00013920       __get_startup_thread_locale_mode 00414920 f   LIBCMTD:thread_locale.obj
 0001:00013930       ?__scrt_initialize_type_info@@YAXXZ 00414930 f   LIBCMTD:tncleanup.obj
 0001:00013950       ?__scrt_uninitialize_type_info@@YAXXZ 00414950 f   LIBCMTD:tncleanup.obj
 0001:00013970       __should_initialize_environment 00414970 f   LIBCMTD:env_mode.obj
 0001:00013980       __initialize_default_precision 00414980 f   LIBCMTD:default_precision.obj
 0001:000139b0       __initialize_invalid_parameter_handler 004149b0 f   LIBCMTD:invalid_parameter_handler.obj
 0001:000139c0       __initialize_denormal_control 004149c0 f   LIBCMTD:denormal_control.obj
 0001:000139d0       ___local_stdio_scanf_options 004149d0 f i LIBCMTD:default_local_stdio_options.obj
 0001:000139e0       ___scrt_initialize_default_local_stdio_options 004149e0 f   LIBCMTD:default_local_stdio_options.obj
 0001:00013a30       ___scrt_is_user_matherr_present 00414a30 f   LIBCMTD:matherr_detection.obj
 0001:00013a60       ___scrt_get_dyn_tls_init_callback 00414a60 f   LIBCMTD:dyn_tls_init.obj
 0001:00013a70       ___scrt_get_dyn_tls_dtor_callback 00414a70 f   LIBCMTD:dyn_tls_dtor.obj
 0001:00013a80       ___scrt_fastfail           00414a80 f   LIBCMTD:utility_desktop.obj
 0001:00013c10       ___scrt_get_show_window_mode 00414c10 f   LIBCMTD:utility_desktop.obj
 0001:00013c60       ___scrt_initialize_winrt   00414c60 f   LIBCMTD:utility_desktop.obj
 0001:00013c70       ___scrt_is_managed_app     00414c70 f   LIBCMTD:utility_desktop.obj
 0001:00013d20       ___scrt_set_unhandled_exception_filter 00414d20 f   LIBCMTD:utility_desktop.obj
 0001:00013d40       ___scrt_unhandled_exception_filter@4 00414d40 f   LIBCMTD:utility_desktop.obj
 0001:00013dc0       __crt_debugger_hook        00414dc0 f   LIBCMTD:utility_desktop.obj
 0001:00013de0       __RTC_Initialize           00414de0 f   LIBCMTD:_initsect_.obj
 0001:00013e20       __RTC_Terminate            00414e20 f   LIBCMTD:_initsect_.obj
 0001:00013e60       @_guard_check_icall@4      00414e60 f i LIBCMTD:checkcfg.obj
 0001:00013e80       ___isa_available_init      00414e80 f   LIBCMTD:_cpu_disp_.obj
 0001:00014210       ___scrt_is_ucrt_dll_in_use 00415210 f   LIBCMTD:ucrt_detection.obj
 0001:00014240       @_guard_check_icall_nop@4  00415240 f i LIBCMTD:guard_support.obj
 0001:00014250       _ReadNoFence               00415250 f i LIBCMTD:guard_support.obj
 0001:00014270       _ReadPointerNoFence        00415270 f i LIBCMTD:guard_support.obj
 0001:00014290       __guard_icall_checks_enforced 00415290 f i LIBCMTD:guard_support.obj
 0001:000142d0       _memcpy                    004152d0 f   libvcruntimed:memcpy.obj
 0001:000149b0       _memset                    004159b0 f   libvcruntimed:memset.obj
 0001:00014be0       __except_handler4          00415be0 f   libvcruntimed:_chandler4_.obj
 0001:00014e30       ___vcrt_initialize         00415e30 f   libvcruntimed:initialization.obj
 0001:00014e80       ___vcrt_thread_attach      00415e80 f   libvcruntimed:initialization.obj
 0001:00014ea0       ___vcrt_thread_detach      00415ea0 f   libvcruntimed:initialization.obj
 0001:00014ec0       ___vcrt_uninitialize       00415ec0 f   libvcruntimed:initialization.obj
 0001:00014ef0       ___vcrt_uninitialize_critical 00415ef0 f   libvcruntimed:initialization.obj
 0001:00014f50       ??$?RD@__crt_internal_free_policy@@QBEXQBD@Z 00415f50 f i libvcruntimed:std_type_info.obj
 0001:00014f80       ??$?RX@__crt_internal_free_policy@@QBEXQBX@Z 00415f80 f i libvcruntimed:std_type_info.obj
 0001:00014fb0       ??$__crt_interlocked_compare_exchange_pointer@$$CBDPAD$$T@@YAPBDPDSBDQAD$$T@Z 00415fb0 f i libvcruntimed:std_type_info.obj
 0001:00014fd0       ??$__crt_interlocked_read_pointer@$$CBD@@YAPBDPDSBD@Z 00415fd0 f i libvcruntimed:std_type_info.obj
 0001:00014ff0       ??0?$__crt_unique_heap_ptr@DU__crt_internal_free_policy@@@@QAE@QAD@Z 00415ff0 f i libvcruntimed:std_type_info.obj
 0001:00015010       ??0?$__crt_unique_heap_ptr@XU__crt_internal_free_policy@@@@QAE@QAX@Z 00416010 f i libvcruntimed:std_type_info.obj
 0001:00015030       ??1?$__crt_unique_heap_ptr@DU__crt_internal_free_policy@@@@QAE@XZ 00416030 f i libvcruntimed:std_type_info.obj
 0001:00015050       ??1?$__crt_unique_heap_ptr@XU__crt_internal_free_policy@@@@QAE@XZ 00416050 f i libvcruntimed:std_type_info.obj
 0001:000150b0       ??B?$__crt_unique_heap_ptr@DU__crt_internal_free_policy@@@@QBE_NXZ 004160b0 f i libvcruntimed:std_type_info.obj
 0001:000150d0       ??B?$__crt_unique_heap_ptr@XU__crt_internal_free_policy@@@@QBE_NXZ 004160d0 f i libvcruntimed:std_type_info.obj
 0001:00015150       ?__crt_interlocked_read_32@@YAHPDH@Z 00416150 f i libvcruntimed:std_type_info.obj
 0001:00015170       ?detach@?$__crt_unique_heap_ptr@XU__crt_internal_free_policy@@@@QAEPAXXZ 00416170 f i libvcruntimed:std_type_info.obj
 0001:000151a0       ?get@?$__crt_unique_heap_ptr@DU__crt_internal_free_policy@@@@QBEPADXZ 004161a0 f i libvcruntimed:std_type_info.obj
 0001:000151c0       ?get@?$__crt_unique_heap_ptr@XU__crt_internal_free_policy@@@@QBEPAXXZ 004161c0 f i libvcruntimed:std_type_info.obj
 0001:000151e0       ?is_valid@?$__crt_unique_heap_ptr@DU__crt_internal_free_policy@@@@QBE_NXZ 004161e0 f i libvcruntimed:std_type_info.obj
 0001:00015220       ?is_valid@?$__crt_unique_heap_ptr@XU__crt_internal_free_policy@@@@QBE_NXZ 00416220 f i libvcruntimed:std_type_info.obj
 0001:00015260       ?release@?$__crt_unique_heap_ptr@DU__crt_internal_free_policy@@@@QAEXXZ 00416260 f i libvcruntimed:std_type_info.obj
 0001:00015290       ?release@?$__crt_unique_heap_ptr@XU__crt_internal_free_policy@@@@QAEXXZ 00416290 f i libvcruntimed:std_type_info.obj
 0001:000152c0       ___std_type_info_compare   004162c0 f   libvcruntimed:std_type_info.obj
 0001:000152f0       ___std_type_info_destroy_list 004162f0 f   libvcruntimed:std_type_info.obj
 0001:00015340       ___std_type_info_hash      00416340 f   libvcruntimed:std_type_info.obj
 0001:000153b0       ___std_type_info_name      004163b0 f   libvcruntimed:std_type_info.obj
 0001:00015600       __local_unwind4            00416600 f   libvcruntimed:_exsup4_.obj
 0001:000156d8       __seh_longjmp_unwind4@4    004166d8 f   libvcruntimed:_exsup4_.obj
 0001:00015700       @_EH4_CallFilterFunc@8     00416700 f   libvcruntimed:_exsup4_.obj
 0001:00015718       @_EH4_TransferToHandler@8  00416718 f   libvcruntimed:_exsup4_.obj
 0001:00015734       @_EH4_GlobalUnwind2@8      00416734 f   libvcruntimed:_exsup4_.obj
 0001:00015750       @_EH4_LocalUnwind@16       00416750 f   libvcruntimed:_exsup4_.obj
 0001:000157d0       ___except_validate_context_record 004167d0 f   libvcruntimed:jbcxrval.obj
 0001:00015830       ___except_validate_jump_buffer 00416830 f   libvcruntimed:jbcxrval.obj
 0001:00015850       ___except_validate_jump_buffer_common 00416850 f i libvcruntimed:jbcxrval.obj
 0001:000158c0       ??$?RU__vcrt_ptd@@@__crt_internal_free_policy@@QBEXQBU__vcrt_ptd@@@Z 004168c0 f i libvcruntimed:per_thread_data.obj
 0001:000158f0       ??0?$__crt_unique_heap_ptr@U__vcrt_ptd@@U__crt_internal_free_policy@@@@QAE@QAU__vcrt_ptd@@@Z 004168f0 f i libvcruntimed:per_thread_data.obj
 0001:00015930       ??1?$__crt_unique_heap_ptr@U__vcrt_ptd@@U__crt_internal_free_policy@@@@QAE@XZ 00416930 f i libvcruntimed:per_thread_data.obj
 0001:00015970       ??B?$__crt_unique_heap_ptr@U__vcrt_ptd@@U__crt_internal_free_policy@@@@QBE_NXZ 00416970 f i libvcruntimed:per_thread_data.obj
 0001:00015990       ?detach@?$__crt_unique_heap_ptr@U__vcrt_ptd@@U__crt_internal_free_policy@@@@QAEPAU__vcrt_ptd@@XZ 00416990 f i libvcruntimed:per_thread_data.obj
 0001:000159c0       ?get@?$__crt_unique_heap_ptr@U__vcrt_ptd@@U__crt_internal_free_policy@@@@QBEPAU__vcrt_ptd@@XZ 004169c0 f i libvcruntimed:per_thread_data.obj
 0001:000159e0       ?is_valid@?$__crt_unique_heap_ptr@U__vcrt_ptd@@U__crt_internal_free_policy@@@@QBE_NXZ 004169e0 f i libvcruntimed:per_thread_data.obj
 0001:00015a20       ?release@?$__crt_unique_heap_ptr@U__vcrt_ptd@@U__crt_internal_free_policy@@@@QAEXXZ 00416a20 f i libvcruntimed:per_thread_data.obj
 0001:00015a80       ___vcrt_freefls@4          00416a80 f   libvcruntimed:per_thread_data.obj
 0001:00015ab0       ___vcrt_freeptd            00416ab0 f   libvcruntimed:per_thread_data.obj
 0001:00015b20       ___vcrt_getptd             00416b20 f   libvcruntimed:per_thread_data.obj
 0001:00015b50       ___vcrt_getptd_noexit      00416b50 f   libvcruntimed:per_thread_data.obj
 0001:00015d00       ___vcrt_getptd_noinit      00416d00 f   libvcruntimed:per_thread_data.obj
 0001:00015d70       ___vcrt_initialize_ptd     00416d70 f   libvcruntimed:per_thread_data.obj
 0001:00015dd0       ___vcrt_uninitialize_ptd   00416dd0 f   libvcruntimed:per_thread_data.obj
 0001:00015e10       ___vcrt_initialize_locks   00416e10 f   libvcruntimed:locks.obj
 0001:00015e80       ___vcrt_lock               00416e80 f   libvcruntimed:locks.obj
 0001:00015ea0       ___vcrt_uninitialize_locks 00416ea0 f   libvcruntimed:locks.obj
 0001:00015f00       ___vcrt_unlock             00416f00 f   libvcruntimed:locks.obj
 0001:00015f20       ??$?BX@__crt_fast_encoded_nullptr_t@@QBEPAXXZ 00416f20 f i libvcruntimed:winapi_downlevel.obj
 0001:00015f40       ??$__crt_fast_decode_pointer@PAX@@YAPAXQAX@Z 00416f40 f i libvcruntimed:winapi_downlevel.obj
 0001:00015f70       ??$__crt_fast_encode_pointer@PAX@@YAPAXQAX@Z 00416f70 f i libvcruntimed:winapi_downlevel.obj
 0001:00015fb0       ??$__crt_interlocked_exchange_pointer@UHINSTANCE__@@PAU1@@@YAPAUHINSTANCE__@@PDSAU0@QAU0@@Z 00416fb0 f i libvcruntimed:winapi_downlevel.obj
 0001:00015fc0       ??$__crt_interlocked_exchange_pointer@UHINSTANCE__@@PAX@@YAPAUHINSTANCE__@@PDSAU0@QAX@Z 00416fc0 f i libvcruntimed:winapi_downlevel.obj
 0001:00015fd0       ??$__crt_interlocked_exchange_pointer@XPAX@@YAPAXPDSAXQAX@Z 00416fd0 f i libvcruntimed:winapi_downlevel.obj
 0001:00015fe0       ??$__crt_interlocked_read_pointer@UHINSTANCE__@@@@YAPAUHINSTANCE__@@PDSAU0@@Z 00416fe0 f i libvcruntimed:winapi_downlevel.obj
 0001:00016000       ??$__crt_interlocked_read_pointer@X@@YAPAXPDSAX@Z 00417000 f i libvcruntimed:winapi_downlevel.obj
 0001:00016020       ?__crt_fast_encode_pointer@@YA?AU__crt_fast_encoded_nullptr_t@@$$T@Z 00417020 f i libvcruntimed:winapi_downlevel.obj
 0001:00016520       ___vcrt_FlsAlloc           00417520 f   libvcruntimed:winapi_downlevel.obj
 0001:00016570       ___vcrt_FlsFree            00417570 f   libvcruntimed:winapi_downlevel.obj
 0001:000165c0       ___vcrt_FlsGetValue        004175c0 f   libvcruntimed:winapi_downlevel.obj
 0001:00016610       ___vcrt_FlsSetValue        00417610 f   libvcruntimed:winapi_downlevel.obj
 0001:00016670       ___vcrt_InitializeCriticalSectionEx 00417670 f   libvcruntimed:winapi_downlevel.obj
 0001:000166d0       ___vcrt_initialize_winapi_thunks 004176d0 f   libvcruntimed:winapi_downlevel.obj
 0001:00016750       ___vcrt_uninitialize_winapi_thunks 00417750 f   libvcruntimed:winapi_downlevel.obj
 0001:000167e0       ??$?B$$A6AXXZ@__crt_fast_encoded_nullptr_t@@QBEP6AXXZXZ 004177e0 f i libvcruntimed:purevirt_data.obj
 0001:00016800       ??$__crt_fast_encode_pointer@P6AXXZ@@YAP6AXXZQ6AXXZ@Z 00417800 f i libvcruntimed:purevirt_data.obj
 0001:00016840       ___vcrt_initialize_pure_virtual_call_handler 00417840 f   libvcruntimed:purevirt_data.obj
 0001:00016870       ??$__vcrt_va_start_verify_argument_type@QBD@@YAXXZ 00417870 f i libvcruntimed:undname.obj
 0001:00016880       ??0Block@_HeapManager@@QAE@XZ 00417880 f i libvcruntimed:undname.obj
 0001:000168a0       ??0DName@@QAE@AAPBDD@Z     004178a0 f   libvcruntimed:undname.obj
 0001:00016b50       ??0DName@@QAE@ABV0@@Z      00417b50 f i libvcruntimed:undname.obj
 0001:00016b80       ??0DName@@QAE@D@Z          00417b80 f   libvcruntimed:undname.obj
 0001:00016bd0       ??0DName@@QAE@PAV0@@Z      00417bd0 f   libvcruntimed:undname.obj
 0001:00016cb0       ??0DName@@QAE@PBD@Z        00417cb0 f   libvcruntimed:undname.obj
 0001:00016d20       ??0DName@@QAE@W4DNameStatus@@@Z 00417d20 f   libvcruntimed:undname.obj
 0001:00016de0       ??0DName@@QAE@XZ           00417de0 f i libvcruntimed:undname.obj
 0001:00016e10       ??0DName@@QAE@_J@Z         00417e10 f   libvcruntimed:undname.obj
 0001:00016f30       ??0DName@@QAE@_K@Z         00417f30 f   libvcruntimed:undname.obj
 0001:00017000       ??0DNameNode@@IAE@XZ       00418000 f i libvcruntimed:undname.obj
 0001:00017020       ??0Replicator@@QAE@XZ      00418020 f i libvcruntimed:undname.obj
 0001:00017040       ??0UnDecorator@@QAE@PADPBDHP6APADJ@ZK@Z 00418040 f i libvcruntimed:undname.obj
 0001:00017100       ??0charNode@@QAE@D@Z       00418100 f i libvcruntimed:undname.obj
 0001:00017140       ??0pDNameNode@@QAE@PAVDName@@@Z 00418140 f   libvcruntimed:undname.obj
 0001:000171c0       ??0pairNode@@QAE@PBVDNameNode@@0@Z 004181c0 f i libvcruntimed:undname.obj
 0001:00017210       ??0pcharNode@@QAE@PBDH@Z   00418210 f   libvcruntimed:undname.obj
 0001:000172d0       ??2@YAPAXIAAV_HeapManager@@H@Z 004182d0 f i libvcruntimed:undname.obj
 0001:000172f0       ??4DName@@QAEAAV0@ABV0@@Z  004182f0 f   libvcruntimed:undname.obj
 0001:00017320       ??4DName@@QAEAAV0@D@Z      00418320 f i libvcruntimed:undname.obj
 0001:00017370       ??4DName@@QAEAAV0@PAV0@@Z  00418370 f   libvcruntimed:undname.obj
 0001:00017430       ??4DName@@QAEAAV0@PBD@Z    00418430 f   libvcruntimed:undname.obj
 0001:00017480       ??4DName@@QAEAAV0@W4DNameStatus@@@Z 00418480 f   libvcruntimed:undname.obj
 0001:00017520       ??AReplicator@@QBE?AVDName@@H@Z 00418520 f   libvcruntimed:undname.obj
 0001:000175a0       ??BUnDecorator@@QAEPADXZ   004185a0 f i libvcruntimed:undname.obj
 0001:000178f0       ??H@YA?AVDName@@DABV0@@Z   004188f0 f i libvcruntimed:undname.obj
 0001:00017930       ??H@YA?AVDName@@PBDABV0@@Z 00418930 f i libvcruntimed:undname.obj
 0001:00017970       ??H@YA?AVDName@@W4DNameStatus@@ABV0@@Z 00418970 f i libvcruntimed:undname.obj
 0001:000179b0       ??HDName@@QBE?AV0@ABV0@@Z  004189b0 f   libvcruntimed:undname.obj
 0001:00017a00       ??HDName@@QBE?AV0@D@Z      00418a00 f   libvcruntimed:undname.obj
 0001:00017a50       ??HDName@@QBE?AV0@PAV0@@Z  00418a50 f   libvcruntimed:undname.obj
 0001:00017aa0       ??HDName@@QBE?AV0@PBD@Z    00418aa0 f   libvcruntimed:undname.obj
 0001:00017af0       ??HDName@@QBE?AV0@W4DNameStatus@@@Z 00418af0 f   libvcruntimed:undname.obj
 0001:00017b40       ??YDName@@QAEAAV0@ABV0@@Z  00418b40 f   libvcruntimed:undname.obj
 0001:00017bc0       ??YDName@@QAEAAV0@D@Z      00418bc0 f   libvcruntimed:undname.obj
 0001:00017c60       ??YDName@@QAEAAV0@PAV0@@Z  00418c60 f   libvcruntimed:undname.obj
 0001:00017d40       ??YDName@@QAEAAV0@PBD@Z    00418d40 f   libvcruntimed:undname.obj
 0001:00017e00       ??YDName@@QAEAAV0@W4DNameStatus@@@Z 00418e00 f   libvcruntimed:undname.obj
 0001:00017e80       ??YReplicator@@QAEAAV0@ABVDName@@@Z 00418e80 f   libvcruntimed:undname.obj
 0001:00017f30       ??_5DName@@QAEAAV0@ABV0@@Z 00418f30 f   libvcruntimed:undname.obj
 0001:00017fa0       ?Constructor@_HeapManager@@QAEXP6APAXI@ZP6AXPAX@Z@Z 00418fa0 f i libvcruntimed:undname.obj
 0001:00017ff0       ?Destructor@_HeapManager@@QAEXXZ 00418ff0 f i libvcruntimed:undname.obj
 0001:00018060       ?UScore@UnDecorator@@SAPBDW4Tokens@@@Z 00419060 f   libvcruntimed:undname.obj
 0001:000180a0       ?append@DName@@AAEXPBVDNameNode@@@Z 004190a0 f   libvcruntimed:undname.obj
 0001:00018150       ?composeDeclaration@UnDecorator@@CA?AVDName@@ABV2@@Z 00419150 f i libvcruntimed:undname.obj
 0001:0001a520       ?dbGetString@DName@@QBEPADXZ 0041b520 f   libvcruntimed:undname.obj
 0001:0001a550       ?doAccessSpecifiers@UnDecorator@@SAHXZ 0041b550 f i libvcruntimed:undname.obj
 0001:0001a580       ?doAllocationLanguage@UnDecorator@@SAHXZ 0041b580 f i libvcruntimed:undname.obj
 0001:0001a5b0       ?doAllocationModel@UnDecorator@@SAHXZ 0041b5b0 f i libvcruntimed:undname.obj
 0001:0001a5e0       ?doEcsu@UnDecorator@@SAHXZ 0041b5e0 f i libvcruntimed:undname.obj
 0001:0001a610       ?doEllipsis@UnDecorator@@SAHXZ 0041b610 f i libvcruntimed:undname.obj
 0001:0001a640       ?doFunctionReturns@UnDecorator@@SAHXZ 0041b640 f i libvcruntimed:undname.obj
 0001:0001a670       ?doMSKeywords@UnDecorator@@SAHXZ 0041b670 f i libvcruntimed:undname.obj
 0001:0001a6a0       ?doMemberTypes@UnDecorator@@SAHXZ 0041b6a0 f i libvcruntimed:undname.obj
 0001:0001a6d0       ?doNameOnly@UnDecorator@@SAHXZ 0041b6d0 f i libvcruntimed:undname.obj
 0001:0001a6f0       ?doNoIdentCharCheck@UnDecorator@@SAHXZ 0041b6f0 f i libvcruntimed:undname.obj
 0001:0001a710       ?doPchar@DName@@AAEXPBDH@Z 0041b710 f   libvcruntimed:undname.obj
 0001:0001a8a0       ?doPtr64@UnDecorator@@SAHXZ 0041b8a0 f i libvcruntimed:undname.obj
 0001:0001a8d0       ?doRestrictionSpec@UnDecorator@@SAHXZ 0041b8d0 f i libvcruntimed:undname.obj
 0001:0001a900       ?doThisTypes@UnDecorator@@SAHXZ 0041b900 f i libvcruntimed:undname.obj
 0001:0001a940       ?doThrowTypes@UnDecorator@@SAHXZ 0041b940 f i libvcruntimed:undname.obj
 0001:0001a970       ?doTypeOnly@UnDecorator@@SAHXZ 0041b970 f i libvcruntimed:undname.obj
 0001:0001a990       ?doUnderScore@UnDecorator@@SAHXZ 0041b990 f i libvcruntimed:undname.obj
 0001:0001a9c0       ?getArgumentList@UnDecorator@@CA?AVDName@@XZ 0041b9c0 f   libvcruntimed:undname.obj
 0001:0001ab60       ?getArgumentTypes@UnDecorator@@CA?AVDName@@XZ 0041bb60 f   libvcruntimed:undname.obj
 0001:0001ad10       ?getArrayType@UnDecorator@@CA?AVDName@@ABV2@@Z 0041bd10 f i libvcruntimed:undname.obj
 0001:0001afd0       ?getBasedType@UnDecorator@@CA?AVDName@@XZ 0041bfd0 f   libvcruntimed:undname.obj
 0001:0001b0c0       ?getBasicDataType@UnDecorator@@CA?AVDName@@ABV2@@Z 0041c0c0 f   libvcruntimed:undname.obj
 0001:0001b820       ?getCallIndex@UnDecorator@@CA?AVDName@@XZ 0041c820 f i libvcruntimed:undname.obj
 0001:0001b840       ?getCallingConvention@UnDecorator@@CA?AVDName@@XZ 0041c840 f   libvcruntimed:undname.obj
 0001:0001ba30       ?getDataIndirectType@UnDecorator@@CA?AVDName@@ABV2@PBD0H@Z 0041ca30 f   libvcruntimed:undname.obj
 0001:0001c3e0       ?getDataIndirectType@UnDecorator@@CA?AVDName@@XZ 0041d3e0 f i libvcruntimed:undname.obj
 0001:0001c430       ?getDataType@UnDecorator@@CA?AVDName@@PAV2@@Z 0041d430 f   libvcruntimed:undname.obj
 0001:0001c590       ?getDecoratedName@UnDecorator@@CA?AVDName@@XZ 0041d590 f   libvcruntimed:undname.obj
 0001:0001c980       ?getDimension@UnDecorator@@CA?AVDName@@_N@Z 0041d980 f   libvcruntimed:undname.obj
 0001:0001cce0       ?getDispatchTarget@UnDecorator@@CA?AVDName@@XZ 0041dce0 f   libvcruntimed:undname.obj
 0001:0001cda0       ?getDisplacement@UnDecorator@@CA?AVDName@@XZ 0041dda0 f i libvcruntimed:undname.obj
 0001:0001cdc0       ?getECSUDataType@UnDecorator@@CA?AVDName@@XZ 0041ddc0 f   libvcruntimed:undname.obj
 0001:0001d000       ?getECSUName@UnDecorator@@CA?AVDName@@XZ 0041e000 f i libvcruntimed:undname.obj
 0001:0001d020       ?getEnumType@UnDecorator@@CA?AVDName@@XZ 0041e020 f i libvcruntimed:undname.obj
 0001:0001d1c0       ?getExtendedDataIndirectType@UnDecorator@@CA?AVDName@@AAPBDAA_NH@Z 0041e1c0 f   libvcruntimed:undname.obj
 0001:0001d4a0       ?getExternalDataType@UnDecorator@@CA?AVDName@@ABV2@@Z 0041e4a0 f i libvcruntimed:undname.obj
 0001:0001d560       ?getFunctionIndirectType@UnDecorator@@CA?AVDName@@ABV2@@Z 0041e560 f   libvcruntimed:undname.obj
 0001:0001db20       ?getGuardNumber@UnDecorator@@CA?AVDName@@XZ 0041eb20 f i libvcruntimed:undname.obj
 0001:0001db40       ?getLastChar@DName@@QBEDXZ 0041eb40 f i libvcruntimed:undname.obj
 0001:0001db90       ?getLastChar@DNameStatusNode@@UBEDXZ 0041eb90 f i libvcruntimed:undname.obj
 0001:0001dbd0       ?getLastChar@charNode@@UBEDXZ 0041ebd0 f i libvcruntimed:undname.obj
 0001:0001dbf0       ?getLastChar@pDNameNode@@UBEDXZ 0041ebf0 f i libvcruntimed:undname.obj
 0001:0001dc30       ?getLastChar@pairNode@@UBEDXZ 0041ec30 f i libvcruntimed:undname.obj
 0001:0001dcb0       ?getLastChar@pcharNode@@UBEDXZ 0041ecb0 f i libvcruntimed:undname.obj
 0001:0001dcf0       ?getLexicalFrame@UnDecorator@@CA?AVDName@@XZ 0041ecf0 f i libvcruntimed:undname.obj
 0001:0001dd40       ?getMemory@_HeapManager@@QAEPAXIH@Z 0041ed40 f   libvcruntimed:undname.obj
 0001:0001dea0       ?getNoexcept@UnDecorator@@CA?AVDName@@XZ 0041eea0 f   libvcruntimed:undname.obj
 0001:0001df20       ?getNumberOfDimensions@UnDecorator@@CAHXZ 0041ef20 f   libvcruntimed:undname.obj
 0001:0001e060       ?getOperatorName@UnDecorator@@CA?AVDName@@_NPA_N@Z 0041f060 f i libvcruntimed:undname.obj
 0001:0001ed20       ?getPointerType@UnDecorator@@CA?AVDName@@ABV2@0@Z 0041fd20 f i libvcruntimed:undname.obj
 0001:0001ed60       ?getPointerTypeArray@UnDecorator@@CA?AVDName@@ABV2@0@Z 0041fd60 f i libvcruntimed:undname.obj
 0001:0001eda0       ?getPrimaryDataType@UnDecorator@@CA?AVDName@@ABV2@@Z 0041fda0 f   libvcruntimed:undname.obj
 0001:0001f290       ?getPtrRefDataType@UnDecorator@@CA?AVDName@@ABV2@H@Z 00420290 f   libvcruntimed:undname.obj
 0001:0001f540       ?getPtrRefType@UnDecorator@@CA?AVDName@@ABV2@0PBD@Z 00420540 f   libvcruntimed:undname.obj
 0001:0001f710       ?getReferenceType@UnDecorator@@CA?AVDName@@ABV2@0PBD@Z 00420710 f i libvcruntimed:undname.obj
 0001:0001f740       ?getRestrictionSpec@UnDecorator@@CA?AVDName@@XZ 00420740 f   libvcruntimed:undname.obj
 0001:0001f900       ?getReturnType@UnDecorator@@CA?AVDName@@PAV2@@Z 00420900 f   libvcruntimed:undname.obj
 0001:0001f960       ?getScope@UnDecorator@@CA?AVDName@@XZ 00420960 f   libvcruntimed:undname.obj
 0001:0001ff90       ?getScopedName@UnDecorator@@CA?AVDName@@XZ 00420f90 f   libvcruntimed:undname.obj
 0001:000200f0       ?getSignedDimension@UnDecorator@@CA?AVDName@@XZ 004210f0 f   libvcruntimed:undname.obj
 0001:00020190       ?getStorageConvention@UnDecorator@@CA?AVDName@@XZ 00421190 f i libvcruntimed:undname.obj
 0001:000201b0       ?getString@DName@@QBEPADPAD0@Z 004211b0 f i libvcruntimed:undname.obj
 0001:00020210       ?getString@DName@@QBEPADPADH@Z 00421210 f i libvcruntimed:undname.obj
 0001:000202c0       ?getString@DNameStatusNode@@UBEPADPAD0@Z 004212c0 f i libvcruntimed:undname.obj
 0001:00020300       ?getString@charNode@@UBEPADPAD0@Z 00421300 f i libvcruntimed:undname.obj
 0001:00020340       ?getString@pDNameNode@@UBEPADPAD0@Z 00421340 f i libvcruntimed:undname.obj
 0001:00020390       ?getString@pairNode@@UBEPADPAD0@Z 00421390 f i libvcruntimed:undname.obj
 0001:00020430       ?getString@pcharNode@@UBEPADPAD0@Z 00421430 f i libvcruntimed:undname.obj
 0001:00020470       ?getStringEncoding@UnDecorator@@CA?AVDName@@PBDH@Z 00421470 f   libvcruntimed:undname.obj
 0001:000205c0       ?getStringHelper@@YAPADPADPBD1H@Z 004215c0 f i libvcruntimed:undname.obj
 0001:00020610       ?getSymbolName@UnDecorator@@CA?AVDName@@XZ 00421610 f i libvcruntimed:undname.obj
 0001:000206c0       ?getTemplateArgumentList@UnDecorator@@CA?AVDName@@XZ 004216c0 f   libvcruntimed:undname.obj
 0001:00020ba0       ?getTemplateConstant@UnDecorator@@CA?AVDName@@XZ 00421ba0 f   libvcruntimed:undname.obj
 0001:000212b0       ?getTemplateName@UnDecorator@@CA?AVDName@@_N@Z 004222b0 f   libvcruntimed:undname.obj
 0001:000214f0       ?getThisType@UnDecorator@@CA?AVDName@@XZ 004224f0 f i libvcruntimed:undname.obj
 0001:00021540       ?getThrowTypes@UnDecorator@@CA?AVDName@@XZ 00422540 f   libvcruntimed:undname.obj
 0001:000215a0       ?getTypeEncoding@UnDecorator@@CAHXZ 004225a0 f i libvcruntimed:undname.obj
 0001:000222b0       ?getVCallThunkType@UnDecorator@@CA?AVDName@@XZ 004232b0 f i libvcruntimed:undname.obj
 0001:00022330       ?getVbTableType@UnDecorator@@CA?AVDName@@ABV2@@Z 00423330 f i libvcruntimed:undname.obj
 0001:00022350       ?getVdispMapType@UnDecorator@@CA?AVDName@@ABV2@@Z 00423350 f i libvcruntimed:undname.obj
 0001:000223e0       ?getVfTableType@UnDecorator@@CA?AVDName@@ABV2@@Z 004233e0 f i libvcruntimed:undname.obj
 0001:00022610       ?getZName@UnDecorator@@CA?AVDName@@_N0@Z 00423610 f   libvcruntimed:undname.obj
 0001:00022990       ?haveTemplateParameters@UnDecorator@@SAHXZ 00423990 f i libvcruntimed:undname.obj
 0001:000229b0       ?isArray@DName@@QBEHXZ     004239b0 f i libvcruntimed:undname.obj
 0001:000229d0       ?isComArray@DName@@QBEHXZ  004239d0 f i libvcruntimed:undname.obj
 0001:000229f0       ?isEmpty@DName@@QBEHXZ     004239f0 f i libvcruntimed:undname.obj
 0001:00022a30       ?isFull@Replicator@@QBEHXZ 00423a30 f i libvcruntimed:undname.obj
 0001:00022a70       ?isNoTE@DName@@QBEHXZ      00423a70 f i libvcruntimed:undname.obj
 0001:00022a90       ?isPinPtr@DName@@QBEHXZ    00423a90 f i libvcruntimed:undname.obj
 0001:00022ab0       ?isPtrRef@DName@@QBEHXZ    00423ab0 f i libvcruntimed:undname.obj
 0001:00022ad0       ?isUDC@DName@@QBEHXZ       00423ad0 f i libvcruntimed:undname.obj
 0001:00022b20       ?isUDTThunk@DName@@QBEHXZ  00423b20 f i libvcruntimed:undname.obj
 0001:00022b70       ?isVCallThunk@DName@@QBEHXZ 00423b70 f i libvcruntimed:undname.obj
 0001:00022b90       ?isValid@DName@@QBEHXZ     00423b90 f i libvcruntimed:undname.obj
 0001:00022bd0       ?length@DName@@QBEHXZ      00423bd0 f i libvcruntimed:undname.obj
 0001:00022c20       ?length@DNameStatusNode@@UBEHXZ 00423c20 f i libvcruntimed:undname.obj
 0001:00022c40       ?length@charNode@@UBEHXZ   00423c40 f i libvcruntimed:undname.obj
 0001:00022c60       ?length@pDNameNode@@UBEHXZ 00423c60 f i libvcruntimed:undname.obj
 0001:00022ca0       ?length@pairNode@@UBEHXZ   00423ca0 f i libvcruntimed:undname.obj
 0001:00022d30       ?length@pcharNode@@UBEHXZ  00423d30 f i libvcruntimed:undname.obj
 0001:00022d50       ?make@DNameStatusNode@@SAPBV1@W4DNameStatus@@@Z 00423d50 f i libvcruntimed:undname.obj
 0001:00022d90       ?setIsArray@DName@@QAEXXZ  00423d90 f i libvcruntimed:undname.obj
 0001:00022dc0       ?setIsComArray@DName@@QAEXXZ 00423dc0 f i libvcruntimed:undname.obj
 0001:00022df0       ?setIsNoTE@DName@@QAEXXZ   00423df0 f i libvcruntimed:undname.obj
 0001:00022e20       ?setIsPinPtr@DName@@QAEXXZ 00423e20 f i libvcruntimed:undname.obj
 0001:00022e50       ?setIsUDC@DName@@QAEXXZ    00423e50 f i libvcruntimed:undname.obj
 0001:00022e90       ?setIsVCallThunk@DName@@QAEXXZ 00423e90 f i libvcruntimed:undname.obj
 0001:00022ec0       ?setPtrRef@DName@@QAEAAV1@XZ 00423ec0 f i libvcruntimed:undname.obj
 0001:00022ef0       ?status@DName@@QBE?AW4DNameStatus@@XZ 00423ef0 f i libvcruntimed:undname.obj
 0001:00023010       ___unDName                 00424010 f   libvcruntimed:undname.obj
 0001:00023110       ___unDNameEx               00424110 f   libvcruntimed:undname.obj
 0001:00023210       __vsprintf_s_l             00424210 f i libvcruntimed:undname.obj
 0001:00023270       _sprintf_s                 00424270 f i libvcruntimed:undname.obj
 0001:000232c0       __global_unwind2           004242c0 f   libvcruntimed:_exsup_.obj
 0001:00023326       __local_unwind2            00424326 f   libvcruntimed:_exsup_.obj
 0001:000233aa       __abnormal_termination     004243aa f   libvcruntimed:_exsup_.obj
 0001:000233d0       __NLG_Notify1              004243d0 f   libvcruntimed:_exsup_.obj
 0001:000233dc       __NLG_Notify               004243dc f   libvcruntimed:_exsup_.obj
 0001:000233f3       __NLG_Dispatch             004243f3     libvcruntimed:_exsup_.obj
 0001:000233f3       __NLG_Dispatch2            004243f3     libvcruntimed:_exsup_.obj
 0001:000233fb       __NLG_Call                 004243fb f   libvcruntimed:_exsup_.obj
 0001:000233fd       __NLG_Return2              004243fd     libvcruntimed:_exsup_.obj
 0001:00023450       ??$__crt_fast_decode_pointer@P6AXXZ@@YAP6AXXZQ6AXXZ@Z 00424450 f i libvcruntimed:purevirt.obj
 0001:00023480       ??$__crt_interlocked_exchange_pointer@$$A6AXXZP6AXXZ@@YAP6AXXZPDS6AXXZQ6AXXZ@Z 00424480 f i libvcruntimed:purevirt.obj
 0001:00023490       ??$__crt_interlocked_read_pointer@$$A6AXXZ@@YAP6AXXZPDS6AXXZ@Z 00424490 f i libvcruntimed:purevirt.obj
 0001:000234b0       __get_purecall_handler     004244b0 f   libvcruntimed:purevirt.obj
 0001:000234e0       __purecall                 004244e0 f   libvcruntimed:purevirt.obj
 0001:00023520       __set_purecall_handler     00424520 f   libvcruntimed:purevirt.obj
 0001:00023560       ??$?RPAU__crt_stdio_stream_data@@@__crt_internal_free_policy@@QBEXQBQAU__crt_stdio_stream_data@@@Z 00424560 f i libucrtd:_file.obj
 0001:00023590       ??0?$__crt_unique_heap_ptr@PAU__crt_stdio_stream_data@@U__crt_internal_free_policy@@@@QAE@QAPAU__crt_stdio_stream_data@@@Z 00424590 f i libucrtd:_file.obj
 0001:000235b0       ??0__crt_stdio_stream@@QAE@QAU_iobuf@@@Z 004245b0 f i libucrtd:_file.obj
 0001:000235d0       ??1?$__crt_unique_heap_ptr@PAU__crt_stdio_stream_data@@U__crt_internal_free_policy@@@@QAE@XZ 004245d0 f i libucrtd:_file.obj
 0001:000235f0       ??C__crt_stdio_stream@@QBEPAU__crt_stdio_stream_data@@XZ 004245f0 f i libucrtd:_file.obj
 0001:00023610       ?detach@?$__crt_unique_heap_ptr@PAU__crt_stdio_stream_data@@U__crt_internal_free_policy@@@@QAEPAPAU__crt_stdio_stream_data@@XZ 00424610 f i libucrtd:_file.obj
 0001:00023640       ?release@?$__crt_unique_heap_ptr@PAU__crt_stdio_stream_data@@U__crt_internal_free_policy@@@@QAEXXZ 00424640 f i libucrtd:_file.obj
 0001:00023680       ___acrt_initialize_stdio   00424680 f   libucrtd:_file.obj
 0001:00023850       ___acrt_iob_func           00424850 f   libucrtd:_file.obj
 0001:00023870       ___acrt_uninitialize_stdio 00424870 f   libucrtd:_file.obj
 0001:00023910       __get_stream_buffer_pointers 00424910 f   libucrtd:_file.obj
 0001:00023a20       __lock_file                00424a20 f   libucrtd:_file.obj
 0001:00023a50       __unlock_file              00424a50 f   libucrtd:_file.obj
 0001:00023a80       ??$__crt_interlocked_read@J@@YAJPDJ@Z 00424a80 f i libucrtd:fclose.obj
 0001:00023aa0       ?get_flags@__crt_stdio_stream@@QBEJXZ 00424aa0 f i libucrtd:fclose.obj
 0001:00023ad0       ?is_in_use@__crt_stdio_stream@@QBE_NXZ 00424ad0 f i libucrtd:fclose.obj
 0001:00023b10       ?is_string_backed@__crt_stdio_stream@@QBE_NXZ 00424b10 f i libucrtd:fclose.obj
 0001:00023b50       ?public_stream@__crt_stdio_stream@@QBEPAU_iobuf@@XZ 00424b50 f i libucrtd:fclose.obj
 0001:00023b70       ?valid@__crt_stdio_stream@@QBE_NXZ 00424b70 f i libucrtd:fclose.obj
 0001:00023bb0       __fclose_nolock            00424bb0 f   libucrtd:fclose.obj
 0001:00023d40       _fclose                    00424d40 f   libucrtd:fclose.obj
 0001:00024680       ??$open_file@ABQBDABQBDABHPAU_iobuf@@@?$__crt_char_traits@D@@SAPAU_iobuf@@ABQBD0ABH$$QAPAU1@@Z 00425680 f i libucrtd:fopen.obj
 0001:000246b0       ??$open_file@ABQB_WABQB_WABHPAU_iobuf@@@?$__crt_char_traits@_W@@SAPAU_iobuf@@ABQB_W0ABH$$QAPAU1@@Z 004256b0 f i libucrtd:fopen.obj
 0001:000246e0       ?unlock@__crt_stdio_stream@@QBEXXZ 004256e0 f i libucrtd:fopen.obj
 0001:00024710       __fsopen                   00425710 f   libucrtd:fopen.obj
 0001:00024740       __wfopen                   00425740 f   libucrtd:fopen.obj
 0001:00024760       __wfopen_s                 00425760 f   libucrtd:fopen.obj
 0001:00024790       __wfsopen                  00425790 f   libucrtd:fopen.obj
 0001:000247c0       _fopen                     004257c0 f   libucrtd:fopen.obj
 0001:000247e0       _fopen_s                   004257e0 f   libucrtd:fopen.obj
 0001:00024810       __fputc_nolock             00425810 f   libucrtd:fputc.obj
 0001:000248c0       __fputchar                 004258c0 f   libucrtd:fputc.obj
 0001:000248f0       __putc_nolock              004258f0 f   libucrtd:fputc.obj
 0001:00024910       _fputc                     00425910 f   libucrtd:fputc.obj
 0001:00024be0       _putc                      00425be0 f   libucrtd:fputc.obj
 0001:00024c00       _putchar                   00425c00 f   libucrtd:fputc.obj
 0001:00024c20       ?has_any_buffer@__crt_stdio_stream@@QBE_NXZ 00425c20 f i libucrtd:fread.obj
 0001:00024c40       ?has_any_of@__crt_stdio_stream@@QBE_NJ@Z 00425c40 f i libucrtd:fread.obj
 0001:00024c80       ?set_flags@__crt_stdio_stream@@QBE_NJ@Z 00425c80 f i libucrtd:fread.obj
 0001:00024ce0       __fread_nolock             00425ce0 f   libucrtd:fread.obj
 0001:00024d10       __fread_nolock_s           00425d10 f   libucrtd:fread.obj
 0001:00025520       _fread                     00426520 f   libucrtd:fread.obj
 0001:00025550       _fread_s                   00426550 f   libucrtd:fread.obj
 0001:00025840       ?LongLongSub@@YAJ_J0PA_J@Z 00426840 f i libucrtd:fseek.obj
 0001:00025950       ?__acrt_stdio_reset_buffer@@YAXV__crt_stdio_stream@@@Z 00426950 f i libucrtd:fseek.obj
 0001:00025f80       ?has_all_of@__crt_stdio_stream@@QBE_NJ@Z 00426f80 f i libucrtd:fseek.obj
 0001:00025fd0       ?lowio_handle@__crt_stdio_stream@@QBEHXZ 00426fd0 f i libucrtd:fseek.obj
 0001:00026000       ?unset_flags@__crt_stdio_stream@@QBE_NJ@Z 00427000 f i libucrtd:fseek.obj
 0001:00026060       __fseek_nolock             00427060 f   libucrtd:fseek.obj
 0001:000260a0       __fseeki64                 004270a0 f   libucrtd:fseek.obj
 0001:000260e0       __fseeki64_nolock          004270e0 f   libucrtd:fseek.obj
 0001:00026120       _fseek                     00427120 f   libucrtd:fseek.obj
 0001:00026f40       ?ctrl_z@__crt_stdio_stream@@QBE_NXZ 00427f40 f i libucrtd:ftell.obj
 0001:00026f60       ?has_big_buffer@__crt_stdio_stream@@QBE_NXZ 00427f60 f i libucrtd:ftell.obj
 0001:00026f80       ?has_crt_buffer@__crt_stdio_stream@@QBE_NXZ 00427f80 f i libucrtd:ftell.obj
 0001:00026fa0       ?has_setvbuf_buffer@__crt_stdio_stream@@QBE_NXZ 00427fa0 f i libucrtd:ftell.obj
 0001:00026fc0       __ftell_nolock             00427fc0 f   libucrtd:ftell.obj
 0001:00026ff0       __ftelli64                 00427ff0 f   libucrtd:ftell.obj
 0001:00027020       __ftelli64_nolock          00428020 f   libucrtd:ftell.obj
 0001:00027050       _ftell                     00428050 f   libucrtd:ftell.obj
 0001:00027080       ??$?R_W@__crt_internal_free_policy@@QBEXQB_W@Z 00428080 f i libucrtd:unlink.obj
 0001:000270b0       ??0?$__crt_unique_heap_ptr@_WU__crt_internal_free_policy@@@@QAE@QA_W@Z 004280b0 f i libucrtd:unlink.obj
 0001:000270d0       ??1?$__crt_unique_heap_ptr@_WU__crt_internal_free_policy@@@@QAE@XZ 004280d0 f i libucrtd:unlink.obj
 0001:000270f0       ?get@?$__crt_unique_heap_ptr@_WU__crt_internal_free_policy@@@@QBEPA_WXZ 004280f0 f i libucrtd:unlink.obj
 0001:00027110       ?get_address_of@?$__crt_unique_heap_ptr@_WU__crt_internal_free_policy@@@@QAEPAPA_WXZ 00428110 f i libucrtd:unlink.obj
 0001:00027130       ?release@?$__crt_unique_heap_ptr@_WU__crt_internal_free_policy@@@@QAEXXZ 00428130 f i libucrtd:unlink.obj
 0001:00027170       __unlink                   00428170 f   libucrtd:unlink.obj
 0001:00027190       _remove                    00428190 f   libucrtd:unlink.obj
 0001:00027230       _rename                    00428230 f   libucrtd:rename.obj
 0001:00027430       ??$?0ABV?$stream_output_adapter@D@__crt_stdio_output@@AB_KABQBDABQAU__crt_locale_pointers@@ABQAD@?$format_validation_base@DV?$stream_output_adapter@D@__crt_stdio_output@@@__crt_stdio_output@@IAE@ABV?$stream_output_adapter@D@1@AB_KABQBDABQAU__crt_locale_pointers@@ABQAD@Z 00428430 f i libucrtd:output.obj
 0001:00027470       ??$?0ABV?$stream_output_adapter@D@__crt_stdio_output@@AB_KABQBDABQAU__crt_locale_pointers@@ABQAD@?$positional_parameter_base@DV?$stream_output_adapter@D@__crt_stdio_output@@@__crt_stdio_output@@IAE@ABV?$stream_output_adapter@D@1@AB_KABQBDABQAU__crt_locale_pointers@@ABQAD@Z 00428470 f i libucrtd:output.obj
 0001:00027500       ??$?0ABV?$stream_output_adapter@D@__crt_stdio_output@@AB_KABQBDABQAU__crt_locale_pointers@@ABQAD@?$standard_base@DV?$stream_output_adapter@D@__crt_stdio_output@@@__crt_stdio_output@@IAE@ABV?$stream_output_adapter@D@1@AB_KABQBDABQAU__crt_locale_pointers@@ABQAD@Z 00428500 f i libucrtd:output.obj
 0001:00027560       ??$?0ABV?$stream_output_adapter@_W@__crt_stdio_output@@AB_KABQB_WABQAU__crt_locale_pointers@@ABQAD@?$format_validation_base@_WV?$stream_output_adapter@_W@__crt_stdio_output@@@__crt_stdio_output@@IAE@ABV?$stream_output_adapter@_W@1@AB_KABQB_WABQAU__crt_locale_pointers@@ABQAD@Z 00428560 f i libucrtd:output.obj
 0001:000275a0       ??$?0ABV?$stream_output_adapter@_W@__crt_stdio_output@@AB_KABQB_WABQAU__crt_locale_pointers@@ABQAD@?$positional_parameter_base@_WV?$stream_output_adapter@_W@__crt_stdio_output@@@__crt_stdio_output@@IAE@ABV?$stream_output_adapter@_W@1@AB_KABQB_WABQAU__crt_locale_pointers@@ABQAD@Z 004285a0 f i libucrtd:output.obj
 0001:00027630       ??$?0ABV?$stream_output_adapter@_W@__crt_stdio_output@@AB_KABQB_WABQAU__crt_locale_pointers@@ABQAD@?$standard_base@_WV?$stream_output_adapter@_W@__crt_stdio_output@@@__crt_stdio_output@@IAE@ABV?$stream_output_adapter@_W@1@AB_KABQB_WABQAU__crt_locale_pointers@@ABQAD@Z 00428630 f i libucrtd:output.obj
 0001:00027690       ??$?0ABV?$string_output_adapter@D@__crt_stdio_output@@AB_KABQBDABQAU__crt_locale_pointers@@ABQAD@?$format_validation_base@DV?$string_output_adapter@D@__crt_stdio_output@@@__crt_stdio_output@@IAE@ABV?$string_output_adapter@D@1@AB_KABQBDABQAU__crt_locale_pointers@@ABQAD@Z 00428690 f i libucrtd:output.obj
 0001:000276d0       ??$?0ABV?$string_output_adapter@D@__crt_stdio_output@@AB_KABQBDABQAU__crt_locale_pointers@@ABQAD@?$positional_parameter_base@DV?$string_output_adapter@D@__crt_stdio_output@@@__crt_stdio_output@@IAE@ABV?$string_output_adapter@D@1@AB_KABQBDABQAU__crt_locale_pointers@@ABQAD@Z 004286d0 f i libucrtd:output.obj
 0001:00027760       ??$?0ABV?$string_output_adapter@D@__crt_stdio_output@@AB_KABQBDABQAU__crt_locale_pointers@@ABQAD@?$standard_base@DV?$string_output_adapter@D@__crt_stdio_output@@@__crt_stdio_output@@IAE@ABV?$string_output_adapter@D@1@AB_KABQBDABQAU__crt_locale_pointers@@ABQAD@Z 00428760 f i libucrtd:output.obj
 0001:000277c0       ??$?0ABV?$string_output_adapter@_W@__crt_stdio_output@@AB_KABQB_WABQAU__crt_locale_pointers@@ABQAD@?$format_validation_base@_WV?$string_output_adapter@_W@__crt_stdio_output@@@__crt_stdio_output@@IAE@ABV?$string_output_adapter@_W@1@AB_KABQB_WABQAU__crt_locale_pointers@@ABQAD@Z 004287c0 f i libucrtd:output.obj
 0001:00027800       ??$?0ABV?$string_output_adapter@_W@__crt_stdio_output@@AB_KABQB_WABQAU__crt_locale_pointers@@ABQAD@?$positional_parameter_base@_WV?$string_output_adapter@_W@__crt_stdio_output@@@__crt_stdio_output@@IAE@ABV?$string_output_adapter@_W@1@AB_KABQB_WABQAU__crt_locale_pointers@@ABQAD@Z 00428800 f i libucrtd:output.obj
 0001:00027890       ??$?0ABV?$string_output_adapter@_W@__crt_stdio_output@@AB_KABQB_WABQAU__crt_locale_pointers@@ABQAD@?$standard_base@_WV?$string_output_adapter@_W@__crt_stdio_output@@@__crt_stdio_output@@IAE@ABV?$string_output_adapter@_W@1@AB_KABQB_WABQAU__crt_locale_pointers@@ABQAD@Z 00428890 f i libucrtd:output.obj
 0001:000278f0       ??$?RV<lambda_2293f24e3ce1ad6fe22ccfb9dec07671>@@AAV<lambda_2565fc715a641e539f44ad02d6823606>@@V<lambda_d3217f279b832965d9ca670dc2993570>@@@?$__crt_seh_guarded_call@H@@QAEH$$QAV<lambda_2293f24e3ce1ad6fe22ccfb9dec07671>@@AAV<lambda_2565fc715a641e539f44ad02d6823606>@@$$QAV<lambda_d3217f279b832965d9ca670dc2993570>@@@Z 004288f0 f i libucrtd:output.obj
 0001:000279a0       ??$?RV<lambda_4d4ac866be0fa3c441830420fabdd2cb>@@AAV<lambda_63a10c2dc8dbb9e4dd1890be52af7c93>@@V<lambda_002af9fa0f8fe472b648c51882d4fc32>@@@?$__crt_seh_guarded_call@H@@QAEH$$QAV<lambda_4d4ac866be0fa3c441830420fabdd2cb>@@AAV<lambda_63a10c2dc8dbb9e4dd1890be52af7c93>@@$$QAV<lambda_002af9fa0f8fe472b648c51882d4fc32>@@@Z 004289a0 f i libucrtd:output.obj
 0001:00027a50       ??$?RV<lambda_5be909dfbae0a631386585770cd7b676>@@AAV<lambda_e516058a9c289d98c8ca9fea99247804>@@V<lambda_afe2e0cdc5e0ecf6f0d6f5e2f8985e38>@@@?$__crt_seh_guarded_call@H@@QAEH$$QAV<lambda_5be909dfbae0a631386585770cd7b676>@@AAV<lambda_e516058a9c289d98c8ca9fea99247804>@@$$QAV<lambda_afe2e0cdc5e0ecf6f0d6f5e2f8985e38>@@@Z 00428a50 f i libucrtd:output.obj
 0001:00027b00       ??$?RV<lambda_823d65812123d985753d53e2a8c25d20>@@AAV<lambda_0a97c9e57da7be065955385c79108ff2>@@V<lambda_4d2973f3ad2d226f00468307185dca1b>@@@?$__crt_seh_guarded_call@H@@QAEH$$QAV<lambda_823d65812123d985753d53e2a8c25d20>@@AAV<lambda_0a97c9e57da7be065955385c79108ff2>@@$$QAV<lambda_4d2973f3ad2d226f00468307185dca1b>@@@Z 00428b00 f i libucrtd:output.obj
 0001:00027bb0       ??$?RV<lambda_ab9923ffb5d694ec0d78876dd103e44f>@@AAV<lambda_481dd5778c961fbcd3b60b650e9b9dc4>@@V<lambda_7923d86c9e3f319b415918ec4b39749c>@@@?$__crt_seh_guarded_call@H@@QAEH$$QAV<lambda_ab9923ffb5d694ec0d78876dd103e44f>@@AAV<lambda_481dd5778c961fbcd3b60b650e9b9dc4>@@$$QAV<lambda_7923d86c9e3f319b415918ec4b39749c>@@@Z 00428bb0 f i libucrtd:output.obj
 0001:00027c60       ??$?RV<lambda_db08b09ef7aa9d4f8620ce68402612bc>@@AAV<lambda_4f2c1eaeead2a5fc776db5b62ea0fb9b>@@V<lambda_3ae262bc35d4ba6a3825c4f6bcaaf95c>@@@?$__crt_seh_guarded_call@H@@QAEH$$QAV<lambda_db08b09ef7aa9d4f8620ce68402612bc>@@AAV<lambda_4f2c1eaeead2a5fc776db5b62ea0fb9b>@@$$QAV<lambda_3ae262bc35d4ba6a3825c4f6bcaaf95c>@@@Z 00428c60 f i libucrtd:output.obj
 0001:00027d10       ??$__acrt_lock_stream_and_call@V<lambda_0a97c9e57da7be065955385c79108ff2>@@@@YAHQAU_iobuf@@$$QAV<lambda_0a97c9e57da7be065955385c79108ff2>@@@Z 00428d10 f i libucrtd:output.obj
 0001:00027d60       ??$__acrt_lock_stream_and_call@V<lambda_2565fc715a641e539f44ad02d6823606>@@@@YAHQAU_iobuf@@$$QAV<lambda_2565fc715a641e539f44ad02d6823606>@@@Z 00428d60 f i libucrtd:output.obj
 0001:00027db0       ??$__acrt_lock_stream_and_call@V<lambda_481dd5778c961fbcd3b60b650e9b9dc4>@@@@YAHQAU_iobuf@@$$QAV<lambda_481dd5778c961fbcd3b60b650e9b9dc4>@@@Z 00428db0 f i libucrtd:output.obj
 0001:00027e00       ??$__acrt_lock_stream_and_call@V<lambda_4f2c1eaeead2a5fc776db5b62ea0fb9b>@@@@YAHQAU_iobuf@@$$QAV<lambda_4f2c1eaeead2a5fc776db5b62ea0fb9b>@@@Z 00428e00 f i libucrtd:output.obj
 0001:00027e50       ??$__acrt_lock_stream_and_call@V<lambda_63a10c2dc8dbb9e4dd1890be52af7c93>@@@@YAHQAU_iobuf@@$$QAV<lambda_63a10c2dc8dbb9e4dd1890be52af7c93>@@@Z 00428e50 f i libucrtd:output.obj
 0001:00027ea0       ??$__acrt_lock_stream_and_call@V<lambda_e516058a9c289d98c8ca9fea99247804>@@@@YAHQAU_iobuf@@$$QAV<lambda_e516058a9c289d98c8ca9fea99247804>@@@Z 00428ea0 f i libucrtd:output.obj
 0001:0002b770       ??$count@D@formatting_buffer@__crt_stdio_output@@QBEIXZ 0042c770 f i libucrtd:output.obj
 0001:0002b7c0       ??$data@D@formatting_buffer@__crt_stdio_output@@QAEPADXZ 0042c7c0 f i libucrtd:output.obj
 0001:0002b810       ??$data@_W@formatting_buffer@__crt_stdio_output@@QAEPA_WXZ 0042c810 f i libucrtd:output.obj
 0001:0002b860       ??$ensure_buffer_is_big_enough@D@formatting_buffer@__crt_stdio_output@@QAE_NI@Z 0042c860 f i libucrtd:output.obj
 0001:0002b980       ??$extract_argument_from_va_list@C_J@?$positional_parameter_base@DV?$stream_output_adapter@D@__crt_stdio_output@@@__crt_stdio_output@@IAE_NAA_J@Z 0042c980 f i libucrtd:output.obj
 0001:0002bb00       ??$extract_argument_from_va_list@C_J@?$positional_parameter_base@DV?$string_output_adapter@D@__crt_stdio_output@@@__crt_stdio_output@@IAE_NAA_J@Z 0042cb00 f i libucrtd:output.obj
 0001:0002bc80       ??$extract_argument_from_va_list@C_J@?$positional_parameter_base@_WV?$stream_output_adapter@_W@__crt_stdio_output@@@__crt_stdio_output@@IAE_NAA_J@Z 0042cc80 f i libucrtd:output.obj
 0001:0002be00       ??$extract_argument_from_va_list@C_J@?$positional_parameter_base@_WV?$string_output_adapter@_W@__crt_stdio_output@@@__crt_stdio_output@@IAE_NAA_J@Z 0042ce00 f i libucrtd:output.obj
 0001:0002bf80       ??$extract_argument_from_va_list@C_J@?$standard_base@DV?$stream_output_adapter@D@__crt_stdio_output@@@__crt_stdio_output@@IAE_NAA_J@Z 0042cf80 f i libucrtd:output.obj
 0001:0002bfc0       ??$extract_argument_from_va_list@C_J@?$standard_base@DV?$string_output_adapter@D@__crt_stdio_output@@@__crt_stdio_output@@IAE_NAA_J@Z 0042cfc0 f i libucrtd:output.obj
 0001:0002c000       ??$extract_argument_from_va_list@C_J@?$standard_base@_WV?$stream_output_adapter@_W@__crt_stdio_output@@@__crt_stdio_output@@IAE_NAA_J@Z 0042d000 f i libucrtd:output.obj
 0001:0002c040       ??$extract_argument_from_va_list@C_J@?$standard_base@_WV?$string_output_adapter@_W@__crt_stdio_output@@@__crt_stdio_output@@IAE_NAA_J@Z 0042d040 f i libucrtd:output.obj
 0001:0002c080       ??$extract_argument_from_va_list@E_J@?$positional_parameter_base@DV?$stream_output_adapter@D@__crt_stdio_output@@@__crt_stdio_output@@IAE_NAA_J@Z 0042d080 f i libucrtd:output.obj
 0001:0002c200       ??$extract_argument_from_va_list@E_J@?$positional_parameter_base@DV?$string_output_adapter@D@__crt_stdio_output@@@__crt_stdio_output@@IAE_NAA_J@Z 0042d200 f i libucrtd:output.obj
 0001:0002c380       ??$extract_argument_from_va_list@E_J@?$positional_parameter_base@_WV?$stream_output_adapter@_W@__crt_stdio_output@@@__crt_stdio_output@@IAE_NAA_J@Z 0042d380 f i libucrtd:output.obj
 0001:0002c500       ??$extract_argument_from_va_list@E_J@?$positional_parameter_base@_WV?$string_output_adapter@_W@__crt_stdio_output@@@__crt_stdio_output@@IAE_NAA_J@Z 0042d500 f i libucrtd:output.obj
 0001:0002c680       ??$extract_argument_from_va_list@E_J@?$standard_base@DV?$stream_output_adapter@D@__crt_stdio_output@@@__crt_stdio_output@@IAE_NAA_J@Z 0042d680 f i libucrtd:output.obj
 0001:0002c6c0       ??$extract_argument_from_va_list@E_J@?$standard_base@DV?$string_output_adapter@D@__crt_stdio_output@@@__crt_stdio_output@@IAE_NAA_J@Z 0042d6c0 f i libucrtd:output.obj
 0001:0002c700       ??$extract_argument_from_va_list@E_J@?$standard_base@_WV?$stream_output_adapter@_W@__crt_stdio_output@@@__crt_stdio_output@@IAE_NAA_J@Z 0042d700 f i libucrtd:output.obj
 0001:0002c740       ??$extract_argument_from_va_list@E_J@?$standard_base@_WV?$string_output_adapter@_W@__crt_stdio_output@@@__crt_stdio_output@@IAE_NAA_J@Z 0042d740 f i libucrtd:output.obj
 0001:0002c780       ??$extract_argument_from_va_list@F_J@?$positional_parameter_base@DV?$stream_output_adapter@D@__crt_stdio_output@@@__crt_stdio_output@@IAE_NAA_J@Z 0042d780 f i libucrtd:output.obj
 0001:0002c900       ??$extract_argument_from_va_list@F_J@?$positional_parameter_base@DV?$string_output_adapter@D@__crt_stdio_output@@@__crt_stdio_output@@IAE_NAA_J@Z 0042d900 f i libucrtd:output.obj
 0001:0002ca80       ??$extract_argument_from_va_list@F_J@?$positional_parameter_base@_WV?$stream_output_adapter@_W@__crt_stdio_output@@@__crt_stdio_output@@IAE_NAA_J@Z 0042da80 f i libucrtd:output.obj
 0001:0002cc00       ??$extract_argument_from_va_list@F_J@?$positional_parameter_base@_WV?$string_output_adapter@_W@__crt_stdio_output@@@__crt_stdio_output@@IAE_NAA_J@Z 0042dc00 f i libucrtd:output.obj
 0001:0002cd80       ??$extract_argument_from_va_list@F_J@?$standard_base@DV?$stream_output_adapter@D@__crt_stdio_output@@@__crt_stdio_output@@IAE_NAA_J@Z 0042dd80 f i libucrtd:output.obj
 0001:0002cdc0       ??$extract_argument_from_va_list@F_J@?$standard_base@DV?$string_output_adapter@D@__crt_stdio_output@@@__crt_stdio_output@@IAE_NAA_J@Z 0042ddc0 f i libucrtd:output.obj
 0001:0002ce00       ??$extract_argument_from_va_list@F_J@?$standard_base@_WV?$stream_output_adapter@_W@__crt_stdio_output@@@__crt_stdio_output@@IAE_NAA_J@Z 0042de00 f i libucrtd:output.obj
 0001:0002ce40       ??$extract_argument_from_va_list@F_J@?$standard_base@_WV?$string_output_adapter@_W@__crt_stdio_output@@@__crt_stdio_output@@IAE_NAA_J@Z 0042de40 f i libucrtd:output.obj
 0001:0002ce80       ??$extract_argument_from_va_list@GD@?$positional_parameter_base@DV?$stream_output_adapter@D@__crt_stdio_output@@@__crt_stdio_output@@IAE_NAAD@Z 0042de80 f i libucrtd:output.obj
 0001:0002d000       ??$extract_argument_from_va_list@GD@?$positional_parameter_base@DV?$string_output_adapter@D@__crt_stdio_output@@@__crt_stdio_output@@IAE_NAAD@Z 0042e000 f i libucrtd:output.obj
 0001:0002d180       ??$extract_argument_from_va_list@GD@?$standard_base@DV?$stream_output_adapter@D@__crt_stdio_output@@@__crt_stdio_output@@IAE_NAAD@Z 0042e180 f i libucrtd:output.obj
 0001:0002d1b0       ??$extract_argument_from_va_list@GD@?$standard_base@DV?$string_output_adapter@D@__crt_stdio_output@@@__crt_stdio_output@@IAE_NAAD@Z 0042e1b0 f i libucrtd:output.obj
 0001:0002d1e0       ??$extract_argument_from_va_list@G_J@?$positional_parameter_base@DV?$stream_output_adapter@D@__crt_stdio_output@@@__crt_stdio_output@@IAE_NAA_J@Z 0042e1e0 f i libucrtd:output.obj
 0001:0002d360       ??$extract_argument_from_va_list@G_J@?$positional_parameter_base@DV?$string_output_adapter@D@__crt_stdio_output@@@__crt_stdio_output@@IAE_NAA_J@Z 0042e360 f i libucrtd:output.obj
 0001:0002d4e0       ??$extract_argument_from_va_list@G_J@?$positional_parameter_base@_WV?$stream_output_adapter@_W@__crt_stdio_output@@@__crt_stdio_output@@IAE_NAA_J@Z 0042e4e0 f i libucrtd:output.obj
 0001:0002d660       ??$extract_argument_from_va_list@G_J@?$positional_parameter_base@_WV?$string_output_adapter@_W@__crt_stdio_output@@@__crt_stdio_output@@IAE_NAA_J@Z 0042e660 f i libucrtd:output.obj
 0001:0002d7e0       ??$extract_argument_from_va_list@G_J@?$standard_base@DV?$stream_output_adapter@D@__crt_stdio_output@@@__crt_stdio_output@@IAE_NAA_J@Z 0042e7e0 f i libucrtd:output.obj
 0001:0002d820       ??$extract_argument_from_va_list@G_J@?$standard_base@DV?$string_output_adapter@D@__crt_stdio_output@@@__crt_stdio_output@@IAE_NAA_J@Z 0042e820 f i libucrtd:output.obj
 0001:0002d860       ??$extract_argument_from_va_list@G_J@?$standard_base@_WV?$stream_output_adapter@_W@__crt_stdio_output@@@__crt_stdio_output@@IAE_NAA_J@Z 0042e860 f i libucrtd:output.obj
 0001:0002d8a0       ??$extract_argument_from_va_list@G_J@?$standard_base@_WV?$string_output_adapter@_W@__crt_stdio_output@@@__crt_stdio_output@@IAE_NAA_J@Z 0042e8a0 f i libucrtd:output.obj
 0001:0002d8e0       ??$extract_argument_from_va_list@H_J@?$positional_parameter_base@DV?$stream_output_adapter@D@__crt_stdio_output@@@__crt_stdio_output@@IAE_NAA_J@Z 0042e8e0 f i libucrtd:output.obj
 0001:0002da60       ??$extract_argument_from_va_list@H_J@?$positional_parameter_base@DV?$string_output_adapter@D@__crt_stdio_output@@@__crt_stdio_output@@IAE_NAA_J@Z 0042ea60 f i libucrtd:output.obj
 0001:0002dbe0       ??$extract_argument_from_va_list@H_J@?$positional_parameter_base@_WV?$stream_output_adapter@_W@__crt_stdio_output@@@__crt_stdio_output@@IAE_NAA_J@Z 0042ebe0 f i libucrtd:output.obj
 0001:0002dd60       ??$extract_argument_from_va_list@H_J@?$positional_parameter_base@_WV?$string_output_adapter@_W@__crt_stdio_output@@@__crt_stdio_output@@IAE_NAA_J@Z 0042ed60 f i libucrtd:output.obj
 0001:0002dee0       ??$extract_argument_from_va_list@H_J@?$standard_base@DV?$stream_output_adapter@D@__crt_stdio_output@@@__crt_stdio_output@@IAE_NAA_J@Z 0042eee0 f i libucrtd:output.obj
 0001:0002df20       ??$extract_argument_from_va_list@H_J@?$standard_base@DV?$string_output_adapter@D@__crt_stdio_output@@@__crt_stdio_output@@IAE_NAA_J@Z 0042ef20 f i libucrtd:output.obj
 0001:0002df60       ??$extract_argument_from_va_list@H_J@?$standard_base@_WV?$stream_output_adapter@_W@__crt_stdio_output@@@__crt_stdio_output@@IAE_NAA_J@Z 0042ef60 f i libucrtd:output.obj
 0001:0002dfa0       ??$extract_argument_from_va_list@H_J@?$standard_base@_WV?$string_output_adapter@_W@__crt_stdio_output@@@__crt_stdio_output@@IAE_NAA_J@Z 0042efa0 f i libucrtd:output.obj
 0001:0002dfe0       ??$extract_argument_from_va_list@I_J@?$positional_parameter_base@DV?$stream_output_adapter@D@__crt_stdio_output@@@__crt_stdio_output@@IAE_NAA_J@Z 0042efe0 f i libucrtd:output.obj
 0001:0002e160       ??$extract_argument_from_va_list@I_J@?$positional_parameter_base@DV?$string_output_adapter@D@__crt_stdio_output@@@__crt_stdio_output@@IAE_NAA_J@Z 0042f160 f i libucrtd:output.obj
 0001:0002e2e0       ??$extract_argument_from_va_list@I_J@?$positional_parameter_base@_WV?$stream_output_adapter@_W@__crt_stdio_output@@@__crt_stdio_output@@IAE_NAA_J@Z 0042f2e0 f i libucrtd:output.obj
 0001:0002e460       ??$extract_argument_from_va_list@I_J@?$positional_parameter_base@_WV?$string_output_adapter@_W@__crt_stdio_output@@@__crt_stdio_output@@IAE_NAA_J@Z 0042f460 f i libucrtd:output.obj
 0001:0002e5e0       ??$extract_argument_from_va_list@I_J@?$standard_base@DV?$stream_output_adapter@D@__crt_stdio_output@@@__crt_stdio_output@@IAE_NAA_J@Z 0042f5e0 f i libucrtd:output.obj
 0001:0002e620       ??$extract_argument_from_va_list@I_J@?$standard_base@DV?$string_output_adapter@D@__crt_stdio_output@@@__crt_stdio_output@@IAE_NAA_J@Z 0042f620 f i libucrtd:output.obj
 0001:0002e660       ??$extract_argument_from_va_list@I_J@?$standard_base@_WV?$stream_output_adapter@_W@__crt_stdio_output@@@__crt_stdio_output@@IAE_NAA_J@Z 0042f660 f i libucrtd:output.obj
 0001:0002e6a0       ??$extract_argument_from_va_list@I_J@?$standard_base@_WV?$string_output_adapter@_W@__crt_stdio_output@@@__crt_stdio_output@@IAE_NAA_J@Z 0042f6a0 f i libucrtd:output.obj
 0001:0002e6e0       ??$extract_argument_from_va_list@PADPAD@?$positional_parameter_base@DV?$stream_output_adapter@D@__crt_stdio_output@@@__crt_stdio_output@@IAE_NAAPAD@Z 0042f6e0 f i libucrtd:output.obj
 0001:0002e860       ??$extract_argument_from_va_list@PADPAD@?$positional_parameter_base@DV?$string_output_adapter@D@__crt_stdio_output@@@__crt_stdio_output@@IAE_NAAPAD@Z 0042f860 f i libucrtd:output.obj
 0001:0002e9e0       ??$extract_argument_from_va_list@PADPAD@?$positional_parameter_base@_WV?$stream_output_adapter@_W@__crt_stdio_output@@@__crt_stdio_output@@IAE_NAAPAD@Z 0042f9e0 f i libucrtd:output.obj
 0001:0002eb60       ??$extract_argument_from_va_list@PADPAD@?$positional_parameter_base@_WV?$string_output_adapter@_W@__crt_stdio_output@@@__crt_stdio_output@@IAE_NAAPAD@Z 0042fb60 f i libucrtd:output.obj
 0001:0002ece0       ??$extract_argument_from_va_list@PADPAD@?$standard_base@DV?$stream_output_adapter@D@__crt_stdio_output@@@__crt_stdio_output@@IAE_NAAPAD@Z 0042fce0 f i libucrtd:output.obj
 0001:0002ed10       ??$extract_argument_from_va_list@PADPAD@?$standard_base@DV?$string_output_adapter@D@__crt_stdio_output@@@__crt_stdio_output@@IAE_NAAPAD@Z 0042fd10 f i libucrtd:output.obj
 0001:0002ed40       ??$extract_argument_from_va_list@PADPAD@?$standard_base@_WV?$stream_output_adapter@_W@__crt_stdio_output@@@__crt_stdio_output@@IAE_NAAPAD@Z 0042fd40 f i libucrtd:output.obj
 0001:0002ed70       ??$extract_argument_from_va_list@PADPAD@?$standard_base@_WV?$string_output_adapter@_W@__crt_stdio_output@@@__crt_stdio_output@@IAE_NAAPAD@Z 0042fd70 f i libucrtd:output.obj
 0001:0002eda0       ??$extract_argument_from_va_list@PAUansi_string@?1??type_case_Z@?$output_processor@DV?$stream_output_adapter@D@__crt_stdio_output@@V?$format_validation_base@DV?$stream_output_adapter@D@__crt_stdio_output@@@2@@__crt_stdio_output@@AAE_NXZ@PAU1?1??234@AAE_NXZ@@?$standard_base@DV?$stream_output_adapter@D@__crt_stdio_output@@@__crt_stdio_output@@IAE_NAAPAUansi_string@?1??type_case_Z@?$output_processor@DV?$stream_output_adapter@D@__crt_stdio_output@@V?$format_validation_base@DV?$stream_output_adapter@D@__crt_stdio_output@@@2@@1@AAE_NXZ@@Z 0042fda0 f i libucrtd:output.obj
 0001:0002edd0       ??$extract_argument_from_va_list@PAUansi_string@?1??type_case_Z@?$output_processor@DV?$stream_output_adapter@D@__crt_stdio_output@@V?$positional_parameter_base@DV?$stream_output_adapter@D@__crt_stdio_output@@@2@@__crt_stdio_output@@AAE_NXZ@PAU1?1??234@AAE_NXZ@@?$positional_parameter_base@DV?$stream_output_adapter@D@__crt_stdio_output@@@__crt_stdio_output@@IAE_NAAPAUansi_string@?1??type_case_Z@?$output_processor@DV?$stream_output_adapter@D@__crt_stdio_output@@V?$positional_parameter_base@DV?$stream_output_adapter@D@__crt_stdio_output@@@2@@1@AAE_NXZ@@Z 0042fdd0 f i libucrtd:output.obj
 0001:0002ef50       ??$extract_argument_from_va_list@PAUansi_string@?1??type_case_Z@?$output_processor@DV?$stream_output_adapter@D@__crt_stdio_output@@V?$positional_parameter_base@DV?$stream_output_adapter@D@__crt_stdio_output@@@2@@__crt_stdio_output@@AAE_NXZ@PAU1?1??234@AAE_NXZ@@?$standard_base@DV?$stream_output_adapter@D@__crt_stdio_output@@@__crt_stdio_output@@IAE_NAAPAUansi_string@?1??type_case_Z@?$output_processor@DV?$stream_output_adapter@D@__crt_stdio_output@@V?$positional_parameter_base@DV?$stream_output_adapter@D@__crt_stdio_output@@@2@@1@AAE_NXZ@@Z 0042ff50 f i libucrtd:output.obj
 0001:0002ef80       ??$extract_argument_from_va_list@PAUansi_string@?1??type_case_Z@?$output_processor@DV?$stream_output_adapter@D@__crt_stdio_output@@V?$standard_base@DV?$stream_output_adapter@D@__crt_stdio_output@@@2@@__crt_stdio_output@@AAE_NXZ@PAU1?1??234@AAE_NXZ@@?$standard_base@DV?$stream_output_adapter@D@__crt_stdio_output@@@__crt_stdio_output@@IAE_NAAPAUansi_string@?1??type_case_Z@?$output_processor@DV?$stream_output_adapter@D@__crt_stdio_output@@V?$standard_base@DV?$stream_output_adapter@D@__crt_stdio_output@@@2@@1@AAE_NXZ@@Z 0042ff80 f i libucrtd:output.obj
 0001:0002efb0       ??$extract_argument_from_va_list@PAUansi_string@?1??type_case_Z@?$output_processor@DV?$string_output_adapter@D@__crt_stdio_output@@V?$format_validation_base@DV?$string_output_adapter@D@__crt_stdio_output@@@2@@__crt_stdio_output@@AAE_NXZ@PAU1?1??234@AAE_NXZ@@?$standard_base@DV?$string_output_adapter@D@__crt_stdio_output@@@__crt_stdio_output@@IAE_NAAPAUansi_string@?1??type_case_Z@?$output_processor@DV?$string_output_adapter@D@__crt_stdio_output@@V?$format_validation_base@DV?$string_output_adapter@D@__crt_stdio_output@@@2@@1@AAE_NXZ@@Z 0042ffb0 f i libucrtd:output.obj
 0001:0002efe0       ??$extract_argument_from_va_list@PAUansi_string@?1??type_case_Z@?$output_processor@DV?$string_output_adapter@D@__crt_stdio_output@@V?$positional_parameter_base@DV?$string_output_adapter@D@__crt_stdio_output@@@2@@__crt_stdio_output@@AAE_NXZ@PAU1?1??234@AAE_NXZ@@?$positional_parameter_base@DV?$string_output_adapter@D@__crt_stdio_output@@@__crt_stdio_output@@IAE_NAAPAUansi_string@?1??type_case_Z@?$output_processor@DV?$string_output_adapter@D@__crt_stdio_output@@V?$positional_parameter_base@DV?$string_output_adapter@D@__crt_stdio_output@@@2@@1@AAE_NXZ@@Z 0042ffe0 f i libucrtd:output.obj
 0001:0002f160       ??$extract_argument_from_va_list@PAUansi_string@?1??type_case_Z@?$output_processor@DV?$string_output_adapter@D@__crt_stdio_output@@V?$positional_parameter_base@DV?$string_output_adapter@D@__crt_stdio_output@@@2@@__crt_stdio_output@@AAE_NXZ@PAU1?1??234@AAE_NXZ@@?$standard_base@DV?$string_output_adapter@D@__crt_stdio_output@@@__crt_stdio_output@@IAE_NAAPAUansi_string@?1??type_case_Z@?$output_processor@DV?$string_output_adapter@D@__crt_stdio_output@@V?$positional_parameter_base@DV?$string_output_adapter@D@__crt_stdio_output@@@2@@1@AAE_NXZ@@Z 00430160 f i libucrtd:output.obj
 0001:0002f190       ??$extract_argument_from_va_list@PAUansi_string@?1??type_case_Z@?$output_processor@DV?$string_output_adapter@D@__crt_stdio_output@@V?$standard_base@DV?$string_output_adapter@D@__crt_stdio_output@@@2@@__crt_stdio_output@@AAE_NXZ@PAU1?1??234@AAE_NXZ@@?$standard_base@DV?$string_output_adapter@D@__crt_stdio_output@@@__crt_stdio_output@@IAE_NAAPAUansi_string@?1??type_case_Z@?$output_processor@DV?$string_output_adapter@D@__crt_stdio_output@@V?$standard_base@DV?$string_output_adapter@D@__crt_stdio_output@@@2@@1@AAE_NXZ@@Z 00430190 f i libucrtd:output.obj
 0001:0002f1c0       ??$extract_argument_from_va_list@PAUansi_string@?1??type_case_Z@?$output_processor@_WV?$stream_output_adapter@_W@__crt_stdio_output@@V?$format_validation_base@_WV?$stream_output_adapter@_W@__crt_stdio_output@@@2@@__crt_stdio_output@@AAE_NXZ@PAU1?1??234@AAE_NXZ@@?$standard_base@_WV?$stream_output_adapter@_W@__crt_stdio_output@@@__crt_stdio_output@@IAE_NAAPAUansi_string@?1??type_case_Z@?$output_processor@_WV?$stream_output_adapter@_W@__crt_stdio_output@@V?$format_validation_base@_WV?$stream_output_adapter@_W@__crt_stdio_output@@@2@@1@AAE_NXZ@@Z 004301c0 f i libucrtd:output.obj
 0001:0002f1f0       ??$extract_argument_from_va_list@PAUansi_string@?1??type_case_Z@?$output_processor@_WV?$stream_output_adapter@_W@__crt_stdio_output@@V?$positional_parameter_base@_WV?$stream_output_adapter@_W@__crt_stdio_output@@@2@@__crt_stdio_output@@AAE_NXZ@PAU1?1??234@AAE_NXZ@@?$positional_parameter_base@_WV?$stream_output_adapter@_W@__crt_stdio_output@@@__crt_stdio_output@@IAE_NAAPAUansi_string@?1??type_case_Z@?$output_processor@_WV?$stream_output_adapter@_W@__crt_stdio_output@@V?$positional_parameter_base@_WV?$stream_output_adapter@_W@__crt_stdio_output@@@2@@1@AAE_NXZ@@Z 004301f0 f i libucrtd:output.obj
 0001:0002f370       ??$extract_argument_from_va_list@PAUansi_string@?1??type_case_Z@?$output_processor@_WV?$stream_output_adapter@_W@__crt_stdio_output@@V?$positional_parameter_base@_WV?$stream_output_adapter@_W@__crt_stdio_output@@@2@@__crt_stdio_output@@AAE_NXZ@PAU1?1??234@AAE_NXZ@@?$standard_base@_WV?$stream_output_adapter@_W@__crt_stdio_output@@@__crt_stdio_output@@IAE_NAAPAUansi_string@?1??type_case_Z@?$output_processor@_WV?$stream_output_adapter@_W@__crt_stdio_output@@V?$positional_parameter_base@_WV?$stream_output_adapter@_W@__crt_stdio_output@@@2@@1@AAE_NXZ@@Z 00430370 f i libucrtd:output.obj
 0001:0002f3a0       ??$extract_argument_from_va_list@PAUansi_string@?1??type_case_Z@?$output_processor@_WV?$stream_output_adapter@_W@__crt_stdio_output@@V?$standard_base@_WV?$stream_output_adapter@_W@__crt_stdio_output@@@2@@__crt_stdio_output@@AAE_NXZ@PAU1?1??234@AAE_NXZ@@?$standard_base@_WV?$stream_output_adapter@_W@__crt_stdio_output@@@__crt_stdio_output@@IAE_NAAPAUansi_string@?1??type_case_Z@?$output_processor@_WV?$stream_output_adapter@_W@__crt_stdio_output@@V?$standard_base@_WV?$stream_output_adapter@_W@__crt_stdio_output@@@2@@1@AAE_NXZ@@Z 004303a0 f i libucrtd:output.obj
 0001:0002f3d0       ??$extract_argument_from_va_list@PAUansi_string@?1??type_case_Z@?$output_processor@_WV?$string_output_adapter@_W@__crt_stdio_output@@V?$format_validation_base@_WV?$string_output_adapter@_W@__crt_stdio_output@@@2@@__crt_stdio_output@@AAE_NXZ@PAU1?1??234@AAE_NXZ@@?$standard_base@_WV?$string_output_adapter@_W@__crt_stdio_output@@@__crt_stdio_output@@IAE_NAAPAUansi_string@?1??type_case_Z@?$output_processor@_WV?$string_output_adapter@_W@__crt_stdio_output@@V?$format_validation_base@_WV?$string_output_adapter@_W@__crt_stdio_output@@@2@@1@AAE_NXZ@@Z 004303d0 f i libucrtd:output.obj
 0001:0002f400       ??$extract_argument_from_va_list@PAUansi_string@?1??type_case_Z@?$output_processor@_WV?$string_output_adapter@_W@__crt_stdio_output@@V?$positional_parameter_base@_WV?$string_output_adapter@_W@__crt_stdio_output@@@2@@__crt_stdio_output@@AAE_NXZ@PAU1?1??234@AAE_NXZ@@?$positional_parameter_base@_WV?$string_output_adapter@_W@__crt_stdio_output@@@__crt_stdio_output@@IAE_NAAPAUansi_string@?1??type_case_Z@?$output_processor@_WV?$string_output_adapter@_W@__crt_stdio_output@@V?$positional_parameter_base@_WV?$string_output_adapter@_W@__crt_stdio_output@@@2@@1@AAE_NXZ@@Z 00430400 f i libucrtd:output.obj
 0001:0002f580       ??$extract_argument_from_va_list@PAUansi_string@?1??type_case_Z@?$output_processor@_WV?$string_output_adapter@_W@__crt_stdio_output@@V?$positional_parameter_base@_WV?$string_output_adapter@_W@__crt_stdio_output@@@2@@__crt_stdio_output@@AAE_NXZ@PAU1?1??234@AAE_NXZ@@?$standard_base@_WV?$string_output_adapter@_W@__crt_stdio_output@@@__crt_stdio_output@@IAE_NAAPAUansi_string@?1??type_case_Z@?$output_processor@_WV?$string_output_adapter@_W@__crt_stdio_output@@V?$positional_parameter_base@_WV?$string_output_adapter@_W@__crt_stdio_output@@@2@@1@AAE_NXZ@@Z 00430580 f i libucrtd:output.obj
 0001:0002f5b0       ??$extract_argument_from_va_list@PAUansi_string@?1??type_case_Z@?$output_processor@_WV?$string_output_adapter@_W@__crt_stdio_output@@V?$standard_base@_WV?$string_output_adapter@_W@__crt_stdio_output@@@2@@__crt_stdio_output@@AAE_NXZ@PAU1?1??234@AAE_NXZ@@?$standard_base@_WV?$string_output_adapter@_W@__crt_stdio_output@@@__crt_stdio_output@@IAE_NAAPAUansi_string@?1??type_case_Z@?$output_processor@_WV?$string_output_adapter@_W@__crt_stdio_output@@V?$standard_base@_WV?$string_output_adapter@_W@__crt_stdio_output@@@2@@1@AAE_NXZ@@Z 004305b0 f i libucrtd:output.obj
 0001:0002f5e0       ??$extract_argument_from_va_list@PAXPAX@?$positional_parameter_base@DV?$stream_output_adapter@D@__crt_stdio_output@@@__crt_stdio_output@@IAE_NAAPAX@Z 004305e0 f i libucrtd:output.obj
 0001:0002f760       ??$extract_argument_from_va_list@PAXPAX@?$positional_parameter_base@DV?$string_output_adapter@D@__crt_stdio_output@@@__crt_stdio_output@@IAE_NAAPAX@Z 00430760 f i libucrtd:output.obj
 0001:0002f8e0       ??$extract_argument_from_va_list@PAXPAX@?$positional_parameter_base@_WV?$stream_output_adapter@_W@__crt_stdio_output@@@__crt_stdio_output@@IAE_NAAPAX@Z 004308e0 f i libucrtd:output.obj
 0001:0002fa60       ??$extract_argument_from_va_list@PAXPAX@?$positional_parameter_base@_WV?$string_output_adapter@_W@__crt_stdio_output@@@__crt_stdio_output@@IAE_NAAPAX@Z 00430a60 f i libucrtd:output.obj
 0001:0002fbe0       ??$extract_argument_from_va_list@PAXPAX@?$standard_base@DV?$stream_output_adapter@D@__crt_stdio_output@@@__crt_stdio_output@@IAE_NAAPAX@Z 00430be0 f i libucrtd:output.obj
 0001:0002fc10       ??$extract_argument_from_va_list@PAXPAX@?$standard_base@DV?$string_output_adapter@D@__crt_stdio_output@@@__crt_stdio_output@@IAE_NAAPAX@Z 00430c10 f i libucrtd:output.obj
 0001:0002fc40       ??$extract_argument_from_va_list@PAXPAX@?$standard_base@_WV?$stream_output_adapter@_W@__crt_stdio_output@@@__crt_stdio_output@@IAE_NAAPAX@Z 00430c40 f i libucrtd:output.obj
 0001:0002fc70       ??$extract_argument_from_va_list@PAXPAX@?$standard_base@_WV?$string_output_adapter@_W@__crt_stdio_output@@@__crt_stdio_output@@IAE_NAAPAX@Z 00430c70 f i libucrtd:output.obj
 0001:0002fca0       ??$extract_argument_from_va_list@U_CRT_DOUBLE@@U1@@?$positional_parameter_base@DV?$stream_output_adapter@D@__crt_stdio_output@@@__crt_stdio_output@@IAE_NAAU_CRT_DOUBLE@@@Z 00430ca0 f i libucrtd:output.obj
 0001:0002fe50       ??$extract_argument_from_va_list@U_CRT_DOUBLE@@U1@@?$positional_parameter_base@DV?$string_output_adapter@D@__crt_stdio_output@@@__crt_stdio_output@@IAE_NAAU_CRT_DOUBLE@@@Z 00430e50 f i libucrtd:output.obj
 0001:00030000       ??$extract_argument_from_va_list@U_CRT_DOUBLE@@U1@@?$positional_parameter_base@_WV?$stream_output_adapter@_W@__crt_stdio_output@@@__crt_stdio_output@@IAE_NAAU_CRT_DOUBLE@@@Z 00431000 f i libucrtd:output.obj
 0001:000301b0       ??$extract_argument_from_va_list@U_CRT_DOUBLE@@U1@@?$positional_parameter_base@_WV?$string_output_adapter@_W@__crt_stdio_output@@@__crt_stdio_output@@IAE_NAAU_CRT_DOUBLE@@@Z 004311b0 f i libucrtd:output.obj
 0001:00030360       ??$extract_argument_from_va_list@U_CRT_DOUBLE@@U1@@?$standard_base@DV?$stream_output_adapter@D@__crt_stdio_output@@@__crt_stdio_output@@IAE_NAAU_CRT_DOUBLE@@@Z 00431360 f i libucrtd:output.obj
 0001:000303c0       ??$extract_argument_from_va_list@U_CRT_DOUBLE@@U1@@?$standard_base@DV?$string_output_adapter@D@__crt_stdio_output@@@__crt_stdio_output@@IAE_NAAU_CRT_DOUBLE@@@Z 004313c0 f i libucrtd:output.obj
 0001:00030420       ??$extract_argument_from_va_list@U_CRT_DOUBLE@@U1@@?$standard_base@_WV?$stream_output_adapter@_W@__crt_stdio_output@@@__crt_stdio_output@@IAE_NAAU_CRT_DOUBLE@@@Z 00431420 f i libucrtd:output.obj
 0001:00030480       ??$extract_argument_from_va_list@U_CRT_DOUBLE@@U1@@?$standard_base@_WV?$string_output_adapter@_W@__crt_stdio_output@@@__crt_stdio_output@@IAE_NAAU_CRT_DOUBLE@@@Z 00431480 f i libucrtd:output.obj
 0001:000304e0       ??$extract_argument_from_va_list@_J_J@?$positional_parameter_base@DV?$stream_output_adapter@D@__crt_stdio_output@@@__crt_stdio_output@@IAE_NAA_J@Z 004314e0 f i libucrtd:output.obj
 0001:00030660       ??$extract_argument_from_va_list@_J_J@?$positional_parameter_base@DV?$string_output_adapter@D@__crt_stdio_output@@@__crt_stdio_output@@IAE_NAA_J@Z 00431660 f i libucrtd:output.obj
 0001:000307e0       ??$extract_argument_from_va_list@_J_J@?$positional_parameter_base@_WV?$stream_output_adapter@_W@__crt_stdio_output@@@__crt_stdio_output@@IAE_NAA_J@Z 004317e0 f i libucrtd:output.obj
 0001:00030960       ??$extract_argument_from_va_list@_J_J@?$positional_parameter_base@_WV?$string_output_adapter@_W@__crt_stdio_output@@@__crt_stdio_output@@IAE_NAA_J@Z 00431960 f i libucrtd:output.obj
 0001:00030ae0       ??$extract_argument_from_va_list@_J_J@?$standard_base@DV?$stream_output_adapter@D@__crt_stdio_output@@@__crt_stdio_output@@IAE_NAA_J@Z 00431ae0 f i libucrtd:output.obj
 0001:00030b20       ??$extract_argument_from_va_list@_J_J@?$standard_base@DV?$string_output_adapter@D@__crt_stdio_output@@@__crt_stdio_output@@IAE_NAA_J@Z 00431b20 f i libucrtd:output.obj
 0001:00030b60       ??$extract_argument_from_va_list@_J_J@?$standard_base@_WV?$stream_output_adapter@_W@__crt_stdio_output@@@__crt_stdio_output@@IAE_NAA_J@Z 00431b60 f i libucrtd:output.obj
 0001:00030ba0       ??$extract_argument_from_va_list@_J_J@?$standard_base@_WV?$string_output_adapter@_W@__crt_stdio_output@@@__crt_stdio_output@@IAE_NAA_J@Z 00431ba0 f i libucrtd:output.obj
 0001:00030be0       ??$extract_argument_from_va_list@_K_J@?$positional_parameter_base@DV?$stream_output_adapter@D@__crt_stdio_output@@@__crt_stdio_output@@IAE_NAA_J@Z 00431be0 f i libucrtd:output.obj
 0001:00030d60       ??$extract_argument_from_va_list@_K_J@?$positional_parameter_base@DV?$string_output_adapter@D@__crt_stdio_output@@@__crt_stdio_output@@IAE_NAA_J@Z 00431d60 f i libucrtd:output.obj
 0001:00030ee0       ??$extract_argument_from_va_list@_K_J@?$positional_parameter_base@_WV?$stream_output_adapter@_W@__crt_stdio_output@@@__crt_stdio_output@@IAE_NAA_J@Z 00431ee0 f i libucrtd:output.obj
 0001:00031060       ??$extract_argument_from_va_list@_K_J@?$positional_parameter_base@_WV?$string_output_adapter@_W@__crt_stdio_output@@@__crt_stdio_output@@IAE_NAA_J@Z 00432060 f i libucrtd:output.obj
 0001:000311e0       ??$extract_argument_from_va_list@_K_J@?$standard_base@DV?$stream_output_adapter@D@__crt_stdio_output@@@__crt_stdio_output@@IAE_NAA_J@Z 004321e0 f i libucrtd:output.obj
 0001:00031220       ??$extract_argument_from_va_list@_K_J@?$standard_base@DV?$string_output_adapter@D@__crt_stdio_output@@@__crt_stdio_output@@IAE_NAA_J@Z 00432220 f i libucrtd:output.obj
 0001:00031260       ??$extract_argument_from_va_list@_K_J@?$standard_base@_WV?$stream_output_adapter@_W@__crt_stdio_output@@@__crt_stdio_output@@IAE_NAA_J@Z 00432260 f i libucrtd:output.obj
 0001:000312a0       ??$extract_argument_from_va_list@_K_J@?$standard_base@_WV?$string_output_adapter@_W@__crt_stdio_output@@@__crt_stdio_output@@IAE_NAA_J@Z 004322a0 f i libucrtd:output.obj
 0001:000312e0       ??$extract_argument_from_va_list@_W_W@?$positional_parameter_base@DV?$stream_output_adapter@D@__crt_stdio_output@@@__crt_stdio_output@@IAE_NAA_W@Z 004322e0 f i libucrtd:output.obj
 0001:00031460       ??$extract_argument_from_va_list@_W_W@?$positional_parameter_base@DV?$string_output_adapter@D@__crt_stdio_output@@@__crt_stdio_output@@IAE_NAA_W@Z 00432460 f i libucrtd:output.obj
 0001:000315e0       ??$extract_argument_from_va_list@_W_W@?$positional_parameter_base@_WV?$stream_output_adapter@_W@__crt_stdio_output@@@__crt_stdio_output@@IAE_NAA_W@Z 004325e0 f i libucrtd:output.obj
 0001:00031760       ??$extract_argument_from_va_list@_W_W@?$positional_parameter_base@_WV?$string_output_adapter@_W@__crt_stdio_output@@@__crt_stdio_output@@IAE_NAA_W@Z 00432760 f i libucrtd:output.obj
 0001:000318e0       ??$extract_argument_from_va_list@_W_W@?$standard_base@DV?$stream_output_adapter@D@__crt_stdio_output@@@__crt_stdio_output@@IAE_NAA_W@Z 004328e0 f i libucrtd:output.obj
 0001:00031910       ??$extract_argument_from_va_list@_W_W@?$standard_base@DV?$string_output_adapter@D@__crt_stdio_output@@@__crt_stdio_output@@IAE_NAA_W@Z 00432910 f i libucrtd:output.obj
 0001:00031940       ??$extract_argument_from_va_list@_W_W@?$standard_base@_WV?$stream_output_adapter@_W@__crt_stdio_output@@@__crt_stdio_output@@IAE_NAA_W@Z 00432940 f i libucrtd:output.obj
 0001:00031970       ??$extract_argument_from_va_list@_W_W@?$standard_base@_WV?$string_output_adapter@_W@__crt_stdio_output@@@__crt_stdio_output@@IAE_NAA_W@Z 00432970 f i libucrtd:output.obj
 0001:000319a0       ??$get_parameter_type@D@?$positional_parameter_base@DV?$stream_output_adapter@D@__crt_stdio_output@@@__crt_stdio_output@@CA?AW4parameter_type@01@PAD@Z 004329a0 f i libucrtd:output.obj
 0001:000319b0       ??$get_parameter_type@D@?$positional_parameter_base@DV?$string_output_adapter@D@__crt_stdio_output@@@__crt_stdio_output@@CA?AW4parameter_type@01@PAD@Z 004329b0 f i libucrtd:output.obj
 0001:000319c0       ??$get_parameter_type@D@?$positional_parameter_base@_WV?$stream_output_adapter@_W@__crt_stdio_output@@@__crt_stdio_output@@CA?AW4parameter_type@01@PAD@Z 004329c0 f i libucrtd:output.obj
 0001:000319d0       ??$get_parameter_type@D@?$positional_parameter_base@_WV?$string_output_adapter@_W@__crt_stdio_output@@@__crt_stdio_output@@CA?AW4parameter_type@01@PAD@Z 004329d0 f i libucrtd:output.obj
 0001:000319e0       ??$get_parameter_type@Uansi_string@?1??type_case_Z@?$output_processor@DV?$stream_output_adapter@D@__crt_stdio_output@@V?$positional_parameter_base@DV?$stream_output_adapter@D@__crt_stdio_output@@@2@@__crt_stdio_output@@AAE_NXZ@@?$positional_parameter_base@DV?$stream_output_adapter@D@__crt_stdio_output@@@__crt_stdio_output@@CA?AW4parameter_type@01@PAUansi_string@?1??type_case_Z@?$output_processor@DV?$stream_output_adapter@D@__crt_stdio_output@@V?$positional_parameter_base@DV?$stream_output_adapter@D@__crt_stdio_output@@@2@@1@AAE_NXZ@@Z 004329e0 f i libucrtd:output.obj
 0001:000319f0       ??$get_parameter_type@Uansi_string@?1??type_case_Z@?$output_processor@DV?$string_output_adapter@D@__crt_stdio_output@@V?$positional_parameter_base@DV?$string_output_adapter@D@__crt_stdio_output@@@2@@__crt_stdio_output@@AAE_NXZ@@?$positional_parameter_base@DV?$string_output_adapter@D@__crt_stdio_output@@@__crt_stdio_output@@CA?AW4parameter_type@01@PAUansi_string@?1??type_case_Z@?$output_processor@DV?$string_output_adapter@D@__crt_stdio_output@@V?$positional_parameter_base@DV?$string_output_adapter@D@__crt_stdio_output@@@2@@1@AAE_NXZ@@Z 004329f0 f i libucrtd:output.obj
 0001:00031a00       ??$get_parameter_type@Uansi_string@?1??type_case_Z@?$output_processor@_WV?$stream_output_adapter@_W@__crt_stdio_output@@V?$positional_parameter_base@_WV?$stream_output_adapter@_W@__crt_stdio_output@@@2@@__crt_stdio_output@@AAE_NXZ@@?$positional_parameter_base@_WV?$stream_output_adapter@_W@__crt_stdio_output@@@__crt_stdio_output@@CA?AW4parameter_type@01@PAUansi_string@?1??type_case_Z@?$output_processor@_WV?$stream_output_adapter@_W@__crt_stdio_output@@V?$positional_parameter_base@_WV?$stream_output_adapter@_W@__crt_stdio_output@@@2@@1@AAE_NXZ@@Z 00432a00 f i libucrtd:output.obj
 0001:00031a10       ??$get_parameter_type@Uansi_string@?1??type_case_Z@?$output_processor@_WV?$string_output_adapter@_W@__crt_stdio_output@@V?$positional_parameter_base@_WV?$string_output_adapter@_W@__crt_stdio_output@@@2@@__crt_stdio_output@@AAE_NXZ@@?$positional_parameter_base@_WV?$string_output_adapter@_W@__crt_stdio_output@@@__crt_stdio_output@@CA?AW4parameter_type@01@PAUansi_string@?1??type_case_Z@?$output_processor@_WV?$string_output_adapter@_W@__crt_stdio_output@@V?$positional_parameter_base@_WV?$string_output_adapter@_W@__crt_stdio_output@@@2@@1@AAE_NXZ@@Z 00432a10 f i libucrtd:output.obj
 0001:00031a20       ??$get_parameter_type@X@?$positional_parameter_base@DV?$stream_output_adapter@D@__crt_stdio_output@@@__crt_stdio_output@@CA?AW4parameter_type@01@PAX@Z 00432a20 f i libucrtd:output.obj
 0001:00031a30       ??$get_parameter_type@X@?$positional_parameter_base@DV?$string_output_adapter@D@__crt_stdio_output@@@__crt_stdio_output@@CA?AW4parameter_type@01@PAX@Z 00432a30 f i libucrtd:output.obj
 0001:00031a40       ??$get_parameter_type@X@?$positional_parameter_base@_WV?$stream_output_adapter@_W@__crt_stdio_output@@@__crt_stdio_output@@CA?AW4parameter_type@01@PAX@Z 00432a40 f i libucrtd:output.obj
 0001:00031a50       ??$get_parameter_type@X@?$positional_parameter_base@_WV?$string_output_adapter@_W@__crt_stdio_output@@@__crt_stdio_output@@CA?AW4parameter_type@01@PAX@Z 00432a50 f i libucrtd:output.obj
 0001:00031a60       ??$is_character_specifier@D@?$positional_parameter_base@DV?$stream_output_adapter@D@__crt_stdio_output@@@__crt_stdio_output@@CA_ND@Z 00432a60 f i libucrtd:output.obj
 0001:00031aa0       ??$is_character_specifier@D@?$positional_parameter_base@DV?$string_output_adapter@D@__crt_stdio_output@@@__crt_stdio_output@@CA_ND@Z 00432aa0 f i libucrtd:output.obj
 0001:00031ae0       ??$is_character_specifier@_W@?$positional_parameter_base@_WV?$stream_output_adapter@_W@__crt_stdio_output@@@__crt_stdio_output@@CA_N_W@Z 00432ae0 f i libucrtd:output.obj
 0001:00031b20       ??$is_character_specifier@_W@?$positional_parameter_base@_WV?$string_output_adapter@_W@__crt_stdio_output@@@__crt_stdio_output@@CA_N_W@Z 00432b20 f i libucrtd:output.obj
 0001:00031b60       ??$is_integral_specifier@D@?$positional_parameter_base@DV?$stream_output_adapter@D@__crt_stdio_output@@@__crt_stdio_output@@CA_ND@Z 00432b60 f i libucrtd:output.obj
 0001:00031be0       ??$is_integral_specifier@D@?$positional_parameter_base@DV?$string_output_adapter@D@__crt_stdio_output@@@__crt_stdio_output@@CA_ND@Z 00432be0 f i libucrtd:output.obj
 0001:00031c60       ??$is_integral_specifier@_W@?$positional_parameter_base@_WV?$stream_output_adapter@_W@__crt_stdio_output@@@__crt_stdio_output@@CA_N_W@Z 00432c60 f i libucrtd:output.obj
 0001:00031ce0       ??$is_integral_specifier@_W@?$positional_parameter_base@_WV?$string_output_adapter@_W@__crt_stdio_output@@@__crt_stdio_output@@CA_N_W@Z 00432ce0 f i libucrtd:output.obj
 0001:00031d60       ??$is_pointer_specifier@D@?$positional_parameter_base@DV?$stream_output_adapter@D@__crt_stdio_output@@@__crt_stdio_output@@CA_ND@Z 00432d60 f i libucrtd:output.obj
 0001:00031d90       ??$is_pointer_specifier@D@?$positional_parameter_base@DV?$string_output_adapter@D@__crt_stdio_output@@@__crt_stdio_output@@CA_ND@Z 00432d90 f i libucrtd:output.obj
 0001:00031dc0       ??$is_pointer_specifier@_W@?$positional_parameter_base@_WV?$stream_output_adapter@_W@__crt_stdio_output@@@__crt_stdio_output@@CA_N_W@Z 00432dc0 f i libucrtd:output.obj
 0001:00031df0       ??$is_pointer_specifier@_W@?$positional_parameter_base@_WV?$string_output_adapter@_W@__crt_stdio_output@@@__crt_stdio_output@@CA_N_W@Z 00432df0 f i libucrtd:output.obj
 0001:00031e20       ??$is_string_specifier@D@?$positional_parameter_base@DV?$stream_output_adapter@D@__crt_stdio_output@@@__crt_stdio_output@@CA_ND@Z 00432e20 f i libucrtd:output.obj
 0001:00031e60       ??$is_string_specifier@D@?$positional_parameter_base@DV?$string_output_adapter@D@__crt_stdio_output@@@__crt_stdio_output@@CA_ND@Z 00432e60 f i libucrtd:output.obj
 0001:00031ea0       ??$is_string_specifier@_W@?$positional_parameter_base@_WV?$stream_output_adapter@_W@__crt_stdio_output@@@__crt_stdio_output@@CA_N_W@Z 00432ea0 f i libucrtd:output.obj
 0001:00031ee0       ??$is_string_specifier@_W@?$positional_parameter_base@_WV?$string_output_adapter@_W@__crt_stdio_output@@@__crt_stdio_output@@CA_N_W@Z 00432ee0 f i libucrtd:output.obj
 0001:00031f20       ??$is_wide_character_specifier@D@__crt_stdio_output@@YA_N_KDW4length_modifier@0@@Z 00432f20 f i libucrtd:output.obj
 0001:00031fc0       ??$is_wide_character_specifier@_W@__crt_stdio_output@@YA_N_K_WW4length_modifier@0@@Z 00432fc0 f i libucrtd:output.obj
 0001:000320b0       ??$peek_va_arg@C@__crt_stdio_output@@YACPAD@Z 004330b0 f i libucrtd:output.obj
 0001:000320d0       ??$peek_va_arg@E@__crt_stdio_output@@YAEPAD@Z 004330d0 f i libucrtd:output.obj
 0001:000320f0       ??$peek_va_arg@F@__crt_stdio_output@@YAFPAD@Z 004330f0 f i libucrtd:output.obj
 0001:00032110       ??$peek_va_arg@G@__crt_stdio_output@@YAGPAD@Z 00433110 f i libucrtd:output.obj
 0001:00032130       ??$peek_va_arg@H@__crt_stdio_output@@YAHPAD@Z 00433130 f i libucrtd:output.obj
 0001:00032150       ??$peek_va_arg@I@__crt_stdio_output@@YAIPAD@Z 00433150 f i libucrtd:output.obj
 0001:00032170       ??$peek_va_arg@PAD@__crt_stdio_output@@YAPADPAD@Z 00433170 f i libucrtd:output.obj
 0001:00032190       ??$peek_va_arg@PAUansi_string@?1??type_case_Z@?$output_processor@DV?$stream_output_adapter@D@__crt_stdio_output@@V?$positional_parameter_base@DV?$stream_output_adapter@D@__crt_stdio_output@@@2@@__crt_stdio_output@@AAE_NXZ@@__crt_stdio_output@@YAPAUansi_string@?1??type_case_Z@?$output_processor@DV?$stream_output_adapter@D@__crt_stdio_output@@V?$positional_parameter_base@DV?$stream_output_adapter@D@__crt_stdio_output@@@2@@0@AAE_NXZ@PAD@Z 00433190 f i libucrtd:output.obj
 0001:000321b0       ??$peek_va_arg@PAUansi_string@?1??type_case_Z@?$output_processor@DV?$string_output_adapter@D@__crt_stdio_output@@V?$positional_parameter_base@DV?$string_output_adapter@D@__crt_stdio_output@@@2@@__crt_stdio_output@@AAE_NXZ@@__crt_stdio_output@@YAPAUansi_string@?1??type_case_Z@?$output_processor@DV?$string_output_adapter@D@__crt_stdio_output@@V?$positional_parameter_base@DV?$string_output_adapter@D@__crt_stdio_output@@@2@@0@AAE_NXZ@PAD@Z 004331b0 f i libucrtd:output.obj
 0001:000321d0       ??$peek_va_arg@PAUansi_string@?1??type_case_Z@?$output_processor@_WV?$stream_output_adapter@_W@__crt_stdio_output@@V?$positional_parameter_base@_WV?$stream_output_adapter@_W@__crt_stdio_output@@@2@@__crt_stdio_output@@AAE_NXZ@@__crt_stdio_output@@YAPAUansi_string@?1??type_case_Z@?$output_processor@_WV?$stream_output_adapter@_W@__crt_stdio_output@@V?$positional_parameter_base@_WV?$stream_output_adapter@_W@__crt_stdio_output@@@2@@0@AAE_NXZ@PAD@Z 004331d0 f i libucrtd:output.obj
 0001:000321f0       ??$peek_va_arg@PAUansi_string@?1??type_case_Z@?$output_processor@_WV?$string_output_adapter@_W@__crt_stdio_output@@V?$positional_parameter_base@_WV?$string_output_adapter@_W@__crt_stdio_output@@@2@@__crt_stdio_output@@AAE_NXZ@@__crt_stdio_output@@YAPAUansi_string@?1??type_case_Z@?$output_processor@_WV?$string_output_adapter@_W@__crt_stdio_output@@V?$positional_parameter_base@_WV?$string_output_adapter@_W@__crt_stdio_output@@@2@@0@AAE_NXZ@PAD@Z 004331f0 f i libucrtd:output.obj
 0001:00032210       ??$peek_va_arg@PAX@__crt_stdio_output@@YAPAXPAD@Z 00433210 f i libucrtd:output.obj
 0001:00032230       ??$peek_va_arg@U_CRT_DOUBLE@@@__crt_stdio_output@@YA?AU_CRT_DOUBLE@@PAD@Z 00433230 f i libucrtd:output.obj
 0001:00032250       ??$peek_va_arg@_J@__crt_stdio_output@@YA_JPAD@Z 00433250 f i libucrtd:output.obj
 0001:00032270       ??$peek_va_arg@_K@__crt_stdio_output@@YA_KPAD@Z 00433270 f i libucrtd:output.obj
 0001:00032290       ??$peek_va_arg@_W@__crt_stdio_output@@YA_WPAD@Z 00433290 f i libucrtd:output.obj
 0001:000322b0       ??$puttc_nolock@ABDPAU_iobuf@@@?$__crt_char_traits@D@@SAHABD$$QAPAU_iobuf@@@Z 004332b0 f i libucrtd:output.obj
 0001:000322e0       ??$puttc_nolock@AB_WPAU_iobuf@@@?$__crt_char_traits@_W@@SAGAB_W$$QAPAU_iobuf@@@Z 004332e0 f i libucrtd:output.obj
 0001:00032310       ??$read_va_arg@C@__crt_stdio_output@@YACAAPAD@Z 00433310 f i libucrtd:output.obj
 0001:00032340       ??$read_va_arg@E@__crt_stdio_output@@YAEAAPAD@Z 00433340 f i libucrtd:output.obj
 0001:00032370       ??$read_va_arg@F@__crt_stdio_output@@YAFAAPAD@Z 00433370 f i libucrtd:output.obj
 0001:000323a0       ??$read_va_arg@G@__crt_stdio_output@@YAGAAPAD@Z 004333a0 f i libucrtd:output.obj
 0001:000323d0       ??$read_va_arg@H@__crt_stdio_output@@YAHAAPAD@Z 004333d0 f i libucrtd:output.obj
 0001:00032400       ??$read_va_arg@I@__crt_stdio_output@@YAIAAPAD@Z 00433400 f i libucrtd:output.obj
 0001:00032430       ??$read_va_arg@PAD@__crt_stdio_output@@YAPADAAPAD@Z 00433430 f i libucrtd:output.obj
 0001:00032460       ??$read_va_arg@PAUansi_string@?1??type_case_Z@?$output_processor@DV?$stream_output_adapter@D@__crt_stdio_output@@V?$format_validation_base@DV?$stream_output_adapter@D@__crt_stdio_output@@@2@@__crt_stdio_output@@AAE_NXZ@@__crt_stdio_output@@YAPAUansi_string@?1??type_case_Z@?$output_processor@DV?$stream_output_adapter@D@__crt_stdio_output@@V?$format_validation_base@DV?$stream_output_adapter@D@__crt_stdio_output@@@2@@0@AAE_NXZ@AAPAD@Z 00433460 f i libucrtd:output.obj
 0001:00032490       ??$read_va_arg@PAUansi_string@?1??type_case_Z@?$output_processor@DV?$stream_output_adapter@D@__crt_stdio_output@@V?$positional_parameter_base@DV?$stream_output_adapter@D@__crt_stdio_output@@@2@@__crt_stdio_output@@AAE_NXZ@@__crt_stdio_output@@YAPAUansi_string@?1??type_case_Z@?$output_processor@DV?$stream_output_adapter@D@__crt_stdio_output@@V?$positional_parameter_base@DV?$stream_output_adapter@D@__crt_stdio_output@@@2@@0@AAE_NXZ@AAPAD@Z 00433490 f i libucrtd:output.obj
 0001:000324c0       ??$read_va_arg@PAUansi_string@?1??type_case_Z@?$output_processor@DV?$stream_output_adapter@D@__crt_stdio_output@@V?$standard_base@DV?$stream_output_adapter@D@__crt_stdio_output@@@2@@__crt_stdio_output@@AAE_NXZ@@__crt_stdio_output@@YAPAUansi_string@?1??type_case_Z@?$output_processor@DV?$stream_output_adapter@D@__crt_stdio_output@@V?$standard_base@DV?$stream_output_adapter@D@__crt_stdio_output@@@2@@0@AAE_NXZ@AAPAD@Z 004334c0 f i libucrtd:output.obj
 0001:000324f0       ??$read_va_arg@PAUansi_string@?1??type_case_Z@?$output_processor@DV?$string_output_adapter@D@__crt_stdio_output@@V?$format_validation_base@DV?$string_output_adapter@D@__crt_stdio_output@@@2@@__crt_stdio_output@@AAE_NXZ@@__crt_stdio_output@@YAPAUansi_string@?1??type_case_Z@?$output_processor@DV?$string_output_adapter@D@__crt_stdio_output@@V?$format_validation_base@DV?$string_output_adapter@D@__crt_stdio_output@@@2@@0@AAE_NXZ@AAPAD@Z 004334f0 f i libucrtd:output.obj
 0001:00032520       ??$read_va_arg@PAUansi_string@?1??type_case_Z@?$output_processor@DV?$string_output_adapter@D@__crt_stdio_output@@V?$positional_parameter_base@DV?$string_output_adapter@D@__crt_stdio_output@@@2@@__crt_stdio_output@@AAE_NXZ@@__crt_stdio_output@@YAPAUansi_string@?1??type_case_Z@?$output_processor@DV?$string_output_adapter@D@__crt_stdio_output@@V?$positional_parameter_base@DV?$string_output_adapter@D@__crt_stdio_output@@@2@@0@AAE_NXZ@AAPAD@Z 00433520 f i libucrtd:output.obj
 0001:00032550       ??$read_va_arg@PAUansi_string@?1??type_case_Z@?$output_processor@DV?$string_output_adapter@D@__crt_stdio_output@@V?$standard_base@DV?$string_output_adapter@D@__crt_stdio_output@@@2@@__crt_stdio_output@@AAE_NXZ@@__crt_stdio_output@@YAPAUansi_string@?1??type_case_Z@?$output_processor@DV?$string_output_adapter@D@__crt_stdio_output@@V?$standard_base@DV?$string_output_adapter@D@__crt_stdio_output@@@2@@0@AAE_NXZ@AAPAD@Z 00433550 f i libucrtd:output.obj
 0001:00032580       ??$read_va_arg@PAUansi_string@?1??type_case_Z@?$output_processor@_WV?$stream_output_adapter@_W@__crt_stdio_output@@V?$format_validation_base@_WV?$stream_output_adapter@_W@__crt_stdio_output@@@2@@__crt_stdio_output@@AAE_NXZ@@__crt_stdio_output@@YAPAUansi_string@?1??type_case_Z@?$output_processor@_WV?$stream_output_adapter@_W@__crt_stdio_output@@V?$format_validation_base@_WV?$stream_output_adapter@_W@__crt_stdio_output@@@2@@0@AAE_NXZ@AAPAD@Z 00433580 f i libucrtd:output.obj
 0001:000325b0       ??$read_va_arg@PAUansi_string@?1??type_case_Z@?$output_processor@_WV?$stream_output_adapter@_W@__crt_stdio_output@@V?$positional_parameter_base@_WV?$stream_output_adapter@_W@__crt_stdio_output@@@2@@__crt_stdio_output@@AAE_NXZ@@__crt_stdio_output@@YAPAUansi_string@?1??type_case_Z@?$output_processor@_WV?$stream_output_adapter@_W@__crt_stdio_output@@V?$positional_parameter_base@_WV?$stream_output_adapter@_W@__crt_stdio_output@@@2@@0@AAE_NXZ@AAPAD@Z 004335b0 f i libucrtd:output.obj
 0001:000325e0       ??$read_va_arg@PAUansi_string@?1??type_case_Z@?$output_processor@_WV?$stream_output_adapter@_W@__crt_stdio_output@@V?$standard_base@_WV?$stream_output_adapter@_W@__crt_stdio_output@@@2@@__crt_stdio_output@@AAE_NXZ@@__crt_stdio_output@@YAPAUansi_string@?1??type_case_Z@?$output_processor@_WV?$stream_output_adapter@_W@__crt_stdio_output@@V?$standard_base@_WV?$stream_output_adapter@_W@__crt_stdio_output@@@2@@0@AAE_NXZ@AAPAD@Z 004335e0 f i libucrtd:output.obj
 0001:00032610       ??$read_va_arg@PAUansi_string@?1??type_case_Z@?$output_processor@_WV?$string_output_adapter@_W@__crt_stdio_output@@V?$format_validation_base@_WV?$string_output_adapter@_W@__crt_stdio_output@@@2@@__crt_stdio_output@@AAE_NXZ@@__crt_stdio_output@@YAPAUansi_string@?1??type_case_Z@?$output_processor@_WV?$string_output_adapter@_W@__crt_stdio_output@@V?$format_validation_base@_WV?$string_output_adapter@_W@__crt_stdio_output@@@2@@0@AAE_NXZ@AAPAD@Z 00433610 f i libucrtd:output.obj
 0001:00032640       ??$read_va_arg@PAUansi_string@?1??type_case_Z@?$output_processor@_WV?$string_output_adapter@_W@__crt_stdio_output@@V?$positional_parameter_base@_WV?$string_output_adapter@_W@__crt_stdio_output@@@2@@__crt_stdio_output@@AAE_NXZ@@__crt_stdio_output@@YAPAUansi_string@?1??type_case_Z@?$output_processor@_WV?$string_output_adapter@_W@__crt_stdio_output@@V?$positional_parameter_base@_WV?$string_output_adapter@_W@__crt_stdio_output@@@2@@0@AAE_NXZ@AAPAD@Z 00433640 f i libucrtd:output.obj
 0001:00032670       ??$read_va_arg@PAUansi_string@?1??type_case_Z@?$output_processor@_WV?$string_output_adapter@_W@__crt_stdio_output@@V?$standard_base@_WV?$string_output_adapter@_W@__crt_stdio_output@@@2@@__crt_stdio_output@@AAE_NXZ@@__crt_stdio_output@@YAPAUansi_string@?1??type_case_Z@?$output_processor@_WV?$string_output_adapter@_W@__crt_stdio_output@@V?$standard_base@_WV?$string_output_adapter@_W@__crt_stdio_output@@@2@@0@AAE_NXZ@AAPAD@Z 00433670 f i libucrtd:output.obj
 0001:000326a0       ??$read_va_arg@PAX@__crt_stdio_output@@YAPAXAAPAD@Z 004336a0 f i libucrtd:output.obj
 0001:000326d0       ??$read_va_arg@U_CRT_DOUBLE@@@__crt_stdio_output@@YA?AU_CRT_DOUBLE@@AAPAD@Z 004336d0 f i libucrtd:output.obj
 0001:00032700       ??$read_va_arg@_J@__crt_stdio_output@@YA_JAAPAD@Z 00433700 f i libucrtd:output.obj
 0001:00032730       ??$read_va_arg@_K@__crt_stdio_output@@YA_KAAPAD@Z 00433730 f i libucrtd:output.obj
 0001:00032760       ??$read_va_arg@_W@__crt_stdio_output@@YA_WAAPAD@Z 00433760 f i libucrtd:output.obj
 0001:00032790       ??$scratch_count@D@formatting_buffer@__crt_stdio_output@@QBEIXZ 00433790 f i libucrtd:output.obj
 0001:000327b0       ??$scratch_data@D@formatting_buffer@__crt_stdio_output@@QAEPADXZ 004337b0 f i libucrtd:output.obj
 0001:00032810       ??$tcstol@AAPBDPAPADH@?$__crt_char_traits@D@@SAJAAPBD$$QAPAPAD$$QAH@Z 00433810 f i libucrtd:output.obj
 0001:00032840       ??$tcstol@AAPB_WPAPA_WH@?$__crt_char_traits@_W@@SAJAAPB_W$$QAPAPA_W$$QAH@Z 00433840 f i libucrtd:output.obj
 0001:00032870       ??$tcstol@PBDPAPADH@?$__crt_char_traits@D@@SAJ$$QAPBD$$QAPAPAD$$QAH@Z 00433870 f i libucrtd:output.obj
 0001:000328a0       ??$tcstol@PB_WPAPA_WH@?$__crt_char_traits@_W@@SAJ$$QAPB_W$$QAPAPA_W$$QAH@Z 004338a0 f i libucrtd:output.obj
 0001:000328d0       ??$type_case_integer_parse_into_buffer@I@?$output_processor@DV?$stream_output_adapter@D@__crt_stdio_output@@V?$format_validation_base@DV?$stream_output_adapter@D@__crt_stdio_output@@@2@@__crt_stdio_output@@AAEXII_N@Z 004338d0 f i libucrtd:output.obj
 0001:000329d0       ??$type_case_integer_parse_into_buffer@I@?$output_processor@DV?$stream_output_adapter@D@__crt_stdio_output@@V?$positional_parameter_base@DV?$stream_output_adapter@D@__crt_stdio_output@@@2@@__crt_stdio_output@@AAEXII_N@Z 004339d0 f i libucrtd:output.obj
 0001:00032ad0       ??$type_case_integer_parse_into_buffer@I@?$output_processor@DV?$stream_output_adapter@D@__crt_stdio_output@@V?$standard_base@DV?$stream_output_adapter@D@__crt_stdio_output@@@2@@__crt_stdio_output@@AAEXII_N@Z 00433ad0 f i libucrtd:output.obj
 0001:00032bd0       ??$type_case_integer_parse_into_buffer@I@?$output_processor@DV?$string_output_adapter@D@__crt_stdio_output@@V?$format_validation_base@DV?$string_output_adapter@D@__crt_stdio_output@@@2@@__crt_stdio_output@@AAEXII_N@Z 00433bd0 f i libucrtd:output.obj
 0001:00032cd0       ??$type_case_integer_parse_into_buffer@I@?$output_processor@DV?$string_output_adapter@D@__crt_stdio_output@@V?$positional_parameter_base@DV?$string_output_adapter@D@__crt_stdio_output@@@2@@__crt_stdio_output@@AAEXII_N@Z 00433cd0 f i libucrtd:output.obj
 0001:00032dd0       ??$type_case_integer_parse_into_buffer@I@?$output_processor@DV?$string_output_adapter@D@__crt_stdio_output@@V?$standard_base@DV?$string_output_adapter@D@__crt_stdio_output@@@2@@__crt_stdio_output@@AAEXII_N@Z 00433dd0 f i libucrtd:output.obj
 0001:00032ed0       ??$type_case_integer_parse_into_buffer@I@?$output_processor@_WV?$stream_output_adapter@_W@__crt_stdio_output@@V?$format_validation_base@_WV?$stream_output_adapter@_W@__crt_stdio_output@@@2@@__crt_stdio_output@@AAEXII_N@Z 00433ed0 f i libucrtd:output.obj
 0001:00032fe0       ??$type_case_integer_parse_into_buffer@I@?$output_processor@_WV?$stream_output_adapter@_W@__crt_stdio_output@@V?$positional_parameter_base@_WV?$stream_output_adapter@_W@__crt_stdio_output@@@2@@__crt_stdio_output@@AAEXII_N@Z 00433fe0 f i libucrtd:output.obj
 0001:000330f0       ??$type_case_integer_parse_into_buffer@I@?$output_processor@_WV?$stream_output_adapter@_W@__crt_stdio_output@@V?$standard_base@_WV?$stream_output_adapter@_W@__crt_stdio_output@@@2@@__crt_stdio_output@@AAEXII_N@Z 004340f0 f i libucrtd:output.obj
 0001:00033200       ??$type_case_integer_parse_into_buffer@I@?$output_processor@_WV?$string_output_adapter@_W@__crt_stdio_output@@V?$format_validation_base@_WV?$string_output_adapter@_W@__crt_stdio_output@@@2@@__crt_stdio_output@@AAEXII_N@Z 00434200 f i libucrtd:output.obj
 0001:00033310       ??$type_case_integer_parse_into_buffer@I@?$output_processor@_WV?$string_output_adapter@_W@__crt_stdio_output@@V?$positional_parameter_base@_WV?$string_output_adapter@_W@__crt_stdio_output@@@2@@__crt_stdio_output@@AAEXII_N@Z 00434310 f i libucrtd:output.obj
 0001:00033420       ??$type_case_integer_parse_into_buffer@I@?$output_processor@_WV?$string_output_adapter@_W@__crt_stdio_output@@V?$standard_base@_WV?$string_output_adapter@_W@__crt_stdio_output@@@2@@__crt_stdio_output@@AAEXII_N@Z 00434420 f i libucrtd:output.obj
 0001:00033530       ??$type_case_integer_parse_into_buffer@_K@?$output_processor@DV?$stream_output_adapter@D@__crt_stdio_output@@V?$format_validation_base@DV?$stream_output_adapter@D@__crt_stdio_output@@@2@@__crt_stdio_output@@AAEX_KI_N@Z 00434530 f i libucrtd:output.obj
 0001:00033660       ??$type_case_integer_parse_into_buffer@_K@?$output_processor@DV?$stream_output_adapter@D@__crt_stdio_output@@V?$positional_parameter_base@DV?$stream_output_adapter@D@__crt_stdio_output@@@2@@__crt_stdio_output@@AAEX_KI_N@Z 00434660 f i libucrtd:output.obj
 0001:00033790       ??$type_case_integer_parse_into_buffer@_K@?$output_processor@DV?$stream_output_adapter@D@__crt_stdio_output@@V?$standard_base@DV?$stream_output_adapter@D@__crt_stdio_output@@@2@@__crt_stdio_output@@AAEX_KI_N@Z 00434790 f i libucrtd:output.obj
 0001:000338c0       ??$type_case_integer_parse_into_buffer@_K@?$output_processor@DV?$string_output_adapter@D@__crt_stdio_output@@V?$format_validation_base@DV?$string_output_adapter@D@__crt_stdio_output@@@2@@__crt_stdio_output@@AAEX_KI_N@Z 004348c0 f i libucrtd:output.obj
 0001:000339f0       ??$type_case_integer_parse_into_buffer@_K@?$output_processor@DV?$string_output_adapter@D@__crt_stdio_output@@V?$positional_parameter_base@DV?$string_output_adapter@D@__crt_stdio_output@@@2@@__crt_stdio_output@@AAEX_KI_N@Z 004349f0 f i libucrtd:output.obj
 0001:00033b20       ??$type_case_integer_parse_into_buffer@_K@?$output_processor@DV?$string_output_adapter@D@__crt_stdio_output@@V?$standard_base@DV?$string_output_adapter@D@__crt_stdio_output@@@2@@__crt_stdio_output@@AAEX_KI_N@Z 00434b20 f i libucrtd:output.obj
 0001:00033c50       ??$type_case_integer_parse_into_buffer@_K@?$output_processor@_WV?$stream_output_adapter@_W@__crt_stdio_output@@V?$format_validation_base@_WV?$stream_output_adapter@_W@__crt_stdio_output@@@2@@__crt_stdio_output@@AAEX_KI_N@Z 00434c50 f i libucrtd:output.obj
 0001:00033d90       ??$type_case_integer_parse_into_buffer@_K@?$output_processor@_WV?$stream_output_adapter@_W@__crt_stdio_output@@V?$positional_parameter_base@_WV?$stream_output_adapter@_W@__crt_stdio_output@@@2@@__crt_stdio_output@@AAEX_KI_N@Z 00434d90 f i libucrtd:output.obj
 0001:00033ed0       ??$type_case_integer_parse_into_buffer@_K@?$output_processor@_WV?$stream_output_adapter@_W@__crt_stdio_output@@V?$standard_base@_WV?$stream_output_adapter@_W@__crt_stdio_output@@@2@@__crt_stdio_output@@AAEX_KI_N@Z 00434ed0 f i libucrtd:output.obj
 0001:00034010       ??$type_case_integer_parse_into_buffer@_K@?$output_processor@_WV?$string_output_adapter@_W@__crt_stdio_output@@V?$format_validation_base@_WV?$string_output_adapter@_W@__crt_stdio_output@@@2@@__crt_stdio_output@@AAEX_KI_N@Z 00435010 f i libucrtd:output.obj
 0001:00034150       ??$type_case_integer_parse_into_buffer@_K@?$output_processor@_WV?$string_output_adapter@_W@__crt_stdio_output@@V?$positional_parameter_base@_WV?$string_output_adapter@_W@__crt_stdio_output@@@2@@__crt_stdio_output@@AAEX_KI_N@Z 00435150 f i libucrtd:output.obj
 0001:00034290       ??$type_case_integer_parse_into_buffer@_K@?$output_processor@_WV?$string_output_adapter@_W@__crt_stdio_output@@V?$standard_base@_WV?$string_output_adapter@_W@__crt_stdio_output@@@2@@__crt_stdio_output@@AAEX_KI_N@Z 00435290 f i libucrtd:output.obj
 0001:000343d0       ??$write_multiple_characters@V?$stream_output_adapter@D@__crt_stdio_output@@D@__crt_stdio_output@@YAXABV?$stream_output_adapter@D@0@DHQAH@Z 004353d0 f i libucrtd:output.obj
 0001:00034430       ??$write_multiple_characters@V?$stream_output_adapter@_W@__crt_stdio_output@@D@__crt_stdio_output@@YAXABV?$stream_output_adapter@_W@0@DHQAH@Z 00435430 f i libucrtd:output.obj
 0001:00034490       ??$write_multiple_characters@V?$string_output_adapter@D@__crt_stdio_output@@D@__crt_stdio_output@@YAXABV?$string_output_adapter@D@0@DHQAH@Z 00435490 f i libucrtd:output.obj
 0001:000344f0       ??$write_multiple_characters@V?$string_output_adapter@_W@__crt_stdio_output@@D@__crt_stdio_output@@YAXABV?$string_output_adapter@_W@0@DHQAH@Z 004354f0 f i libucrtd:output.obj
 0001:00034970       ??0?$common_data@D@__crt_stdio_output@@IAE@XZ 00435970 f i libucrtd:output.obj
 0001:00034a40       ??0?$common_data@_W@__crt_stdio_output@@IAE@XZ 00435a40 f i libucrtd:output.obj
 0001:00034b10       ??0?$output_adapter_data@DV?$stream_output_adapter@D@__crt_stdio_output@@@__crt_stdio_output@@IAE@ABV?$stream_output_adapter@D@1@_KQBDQAU__crt_locale_pointers@@QAD@Z 00435b10 f i libucrtd:output.obj
 0001:00034b80       ??0?$output_adapter_data@DV?$string_output_adapter@D@__crt_stdio_output@@@__crt_stdio_output@@IAE@ABV?$string_output_adapter@D@1@_KQBDQAU__crt_locale_pointers@@QAD@Z 00435b80 f i libucrtd:output.obj
 0001:00034bf0       ??0?$output_adapter_data@_WV?$stream_output_adapter@_W@__crt_stdio_output@@@__crt_stdio_output@@IAE@ABV?$stream_output_adapter@_W@1@_KQB_WQAU__crt_locale_pointers@@QAD@Z 00435bf0 f i libucrtd:output.obj
 0001:00034c60       ??0?$output_adapter_data@_WV?$string_output_adapter@_W@__crt_stdio_output@@@__crt_stdio_output@@IAE@ABV?$string_output_adapter@_W@1@_KQB_WQAU__crt_locale_pointers@@QAD@Z 00435c60 f i libucrtd:output.obj
 0001:00034cd0       ??0?$output_processor@DV?$stream_output_adapter@D@__crt_stdio_output@@V?$format_validation_base@DV?$stream_output_adapter@D@__crt_stdio_output@@@2@@__crt_stdio_output@@QAE@ABV?$stream_output_adapter@D@1@_KQBDQAU__crt_locale_pointers@@QAD@Z 00435cd0 f i libucrtd:output.obj
 0001:00034d20       ??0?$output_processor@DV?$stream_output_adapter@D@__crt_stdio_output@@V?$positional_parameter_base@DV?$stream_output_adapter@D@__crt_stdio_output@@@2@@__crt_stdio_output@@QAE@ABV?$stream_output_adapter@D@1@_KQBDQAU__crt_locale_pointers@@QAD@Z 00435d20 f i libucrtd:output.obj
 0001:00034d70       ??0?$output_processor@DV?$stream_output_adapter@D@__crt_stdio_output@@V?$standard_base@DV?$stream_output_adapter@D@__crt_stdio_output@@@2@@__crt_stdio_output@@QAE@ABV?$stream_output_adapter@D@1@_KQBDQAU__crt_locale_pointers@@QAD@Z 00435d70 f i libucrtd:output.obj
 0001:00034dc0       ??0?$output_processor@DV?$string_output_adapter@D@__crt_stdio_output@@V?$format_validation_base@DV?$string_output_adapter@D@__crt_stdio_output@@@2@@__crt_stdio_output@@QAE@ABV?$string_output_adapter@D@1@_KQBDQAU__crt_locale_pointers@@QAD@Z 00435dc0 f i libucrtd:output.obj
 0001:00034e10       ??0?$output_processor@DV?$string_output_adapter@D@__crt_stdio_output@@V?$positional_parameter_base@DV?$string_output_adapter@D@__crt_stdio_output@@@2@@__crt_stdio_output@@QAE@ABV?$string_output_adapter@D@1@_KQBDQAU__crt_locale_pointers@@QAD@Z 00435e10 f i libucrtd:output.obj
 0001:00034e60       ??0?$output_processor@DV?$string_output_adapter@D@__crt_stdio_output@@V?$standard_base@DV?$string_output_adapter@D@__crt_stdio_output@@@2@@__crt_stdio_output@@QAE@ABV?$string_output_adapter@D@1@_KQBDQAU__crt_locale_pointers@@QAD@Z 00435e60 f i libucrtd:output.obj
 0001:00034eb0       ??0?$output_processor@_WV?$stream_output_adapter@_W@__crt_stdio_output@@V?$format_validation_base@_WV?$stream_output_adapter@_W@__crt_stdio_output@@@2@@__crt_stdio_output@@QAE@ABV?$stream_output_adapter@_W@1@_KQB_WQAU__crt_locale_pointers@@QAD@Z 00435eb0 f i libucrtd:output.obj
 0001:00034f00       ??0?$output_processor@_WV?$stream_output_adapter@_W@__crt_stdio_output@@V?$positional_parameter_base@_WV?$stream_output_adapter@_W@__crt_stdio_output@@@2@@__crt_stdio_output@@QAE@ABV?$stream_output_adapter@_W@1@_KQB_WQAU__crt_locale_pointers@@QAD@Z 00435f00 f i libucrtd:output.obj
 0001:00034f50       ??0?$output_processor@_WV?$stream_output_adapter@_W@__crt_stdio_output@@V?$standard_base@_WV?$stream_output_adapter@_W@__crt_stdio_output@@@2@@__crt_stdio_output@@QAE@ABV?$stream_output_adapter@_W@1@_KQB_WQAU__crt_locale_pointers@@QAD@Z 00435f50 f i libucrtd:output.obj
 0001:00034fa0       ??0?$output_processor@_WV?$string_output_adapter@_W@__crt_stdio_output@@V?$format_validation_base@_WV?$string_output_adapter@_W@__crt_stdio_output@@@2@@__crt_stdio_output@@QAE@ABV?$string_output_adapter@_W@1@_KQB_WQAU__crt_locale_pointers@@QAD@Z 00435fa0 f i libucrtd:output.obj
 0001:00034ff0       ??0?$output_processor@_WV?$string_output_adapter@_W@__crt_stdio_output@@V?$positional_parameter_base@_WV?$string_output_adapter@_W@__crt_stdio_output@@@2@@__crt_stdio_output@@QAE@ABV?$string_output_adapter@_W@1@_KQB_WQAU__crt_locale_pointers@@QAD@Z 00435ff0 f i libucrtd:output.obj
 0001:00035040       ??0?$output_processor@_WV?$string_output_adapter@_W@__crt_stdio_output@@V?$standard_base@_WV?$string_output_adapter@_W@__crt_stdio_output@@@2@@__crt_stdio_output@@QAE@ABV?$string_output_adapter@_W@1@_KQB_WQAU__crt_locale_pointers@@QAD@Z 00436040 f i libucrtd:output.obj
 0001:00035090       ??0?$stream_output_adapter@D@__crt_stdio_output@@QAE@QAU_iobuf@@@Z 00436090 f i libucrtd:output.obj
 0001:000350c0       ??0?$stream_output_adapter@_W@__crt_stdio_output@@QAE@QAU_iobuf@@@Z 004360c0 f i libucrtd:output.obj
 0001:000350f0       ??0?$string_output_adapter@D@__crt_stdio_output@@QAE@QAU?$string_output_adapter_context@D@1@@Z 004360f0 f i libucrtd:output.obj
 0001:00035110       ??0?$string_output_adapter@_W@__crt_stdio_output@@QAE@QAU?$string_output_adapter_context@_W@1@@Z 00436110 f i libucrtd:output.obj
 0001:00035130       ??0_LocaleUpdate@@QAE@QAU__crt_locale_pointers@@@Z 00436130 f i libucrtd:output.obj
 0001:00035250       ??0__acrt_stdio_temporary_buffering_guard@@QAE@QAU_iobuf@@@Z 00436250 f i libucrtd:output.obj
 0001:00035290       ??0__crt_errno_guard@@QAE@QAH@Z 00436290 f i libucrtd:output.obj
 0001:000352d0       ??0formatting_buffer@__crt_stdio_output@@QAE@XZ 004362d0 f i libucrtd:output.obj
 0001:00035310       ??1?$common_data@D@__crt_stdio_output@@QAE@XZ 00436310 f i libucrtd:output.obj
 0001:00035330       ??1?$common_data@_W@__crt_stdio_output@@QAE@XZ 00436330 f i libucrtd:output.obj
 0001:00035350       ??1?$format_validation_base@DV?$stream_output_adapter@D@__crt_stdio_output@@@__crt_stdio_output@@QAE@XZ 00436350 f i libucrtd:output.obj
 0001:00035370       ??1?$format_validation_base@DV?$string_output_adapter@D@__crt_stdio_output@@@__crt_stdio_output@@QAE@XZ 00436370 f i libucrtd:output.obj
 0001:00035390       ??1?$format_validation_base@_WV?$stream_output_adapter@_W@__crt_stdio_output@@@__crt_stdio_output@@QAE@XZ 00436390 f i libucrtd:output.obj
 0001:000353b0       ??1?$format_validation_base@_WV?$string_output_adapter@_W@__crt_stdio_output@@@__crt_stdio_output@@QAE@XZ 004363b0 f i libucrtd:output.obj
 0001:000353d0       ??1?$output_adapter_data@DV?$stream_output_adapter@D@__crt_stdio_output@@@__crt_stdio_output@@QAE@XZ 004363d0 f i libucrtd:output.obj
 0001:000353f0       ??1?$output_adapter_data@DV?$string_output_adapter@D@__crt_stdio_output@@@__crt_stdio_output@@QAE@XZ 004363f0 f i libucrtd:output.obj
 0001:00035410       ??1?$output_adapter_data@_WV?$stream_output_adapter@_W@__crt_stdio_output@@@__crt_stdio_output@@QAE@XZ 00436410 f i libucrtd:output.obj
 0001:00035430       ??1?$output_adapter_data@_WV?$string_output_adapter@_W@__crt_stdio_output@@@__crt_stdio_output@@QAE@XZ 00436430 f i libucrtd:output.obj
 0001:00035450       ??1?$output_processor@DV?$stream_output_adapter@D@__crt_stdio_output@@V?$format_validation_base@DV?$stream_output_adapter@D@__crt_stdio_output@@@2@@__crt_stdio_output@@QAE@XZ 00436450 f i libucrtd:output.obj
 0001:00035470       ??1?$output_processor@DV?$stream_output_adapter@D@__crt_stdio_output@@V?$positional_parameter_base@DV?$stream_output_adapter@D@__crt_stdio_output@@@2@@__crt_stdio_output@@QAE@XZ 00436470 f i libucrtd:output.obj
 0001:00035490       ??1?$output_processor@DV?$stream_output_adapter@D@__crt_stdio_output@@V?$standard_base@DV?$stream_output_adapter@D@__crt_stdio_output@@@2@@__crt_stdio_output@@QAE@XZ 00436490 f i libucrtd:output.obj
 0001:000354b0       ??1?$output_processor@DV?$string_output_adapter@D@__crt_stdio_output@@V?$format_validation_base@DV?$string_output_adapter@D@__crt_stdio_output@@@2@@__crt_stdio_output@@QAE@XZ 004364b0 f i libucrtd:output.obj
 0001:000354d0       ??1?$output_processor@DV?$string_output_adapter@D@__crt_stdio_output@@V?$positional_parameter_base@DV?$string_output_adapter@D@__crt_stdio_output@@@2@@__crt_stdio_output@@QAE@XZ 004364d0 f i libucrtd:output.obj
 0001:000354f0       ??1?$output_processor@DV?$string_output_adapter@D@__crt_stdio_output@@V?$standard_base@DV?$string_output_adapter@D@__crt_stdio_output@@@2@@__crt_stdio_output@@QAE@XZ 004364f0 f i libucrtd:output.obj
 0001:00035510       ??1?$output_processor@_WV?$stream_output_adapter@_W@__crt_stdio_output@@V?$format_validation_base@_WV?$stream_output_adapter@_W@__crt_stdio_output@@@2@@__crt_stdio_output@@QAE@XZ 00436510 f i libucrtd:output.obj
 0001:00035530       ??1?$output_processor@_WV?$stream_output_adapter@_W@__crt_stdio_output@@V?$positional_parameter_base@_WV?$stream_output_adapter@_W@__crt_stdio_output@@@2@@__crt_stdio_output@@QAE@XZ 00436530 f i libucrtd:output.obj
 0001:00035550       ??1?$output_processor@_WV?$stream_output_adapter@_W@__crt_stdio_output@@V?$standard_base@_WV?$stream_output_adapter@_W@__crt_stdio_output@@@2@@__crt_stdio_output@@QAE@XZ 00436550 f i libucrtd:output.obj
 0001:00035570       ??1?$output_processor@_WV?$string_output_adapter@_W@__crt_stdio_output@@V?$format_validation_base@_WV?$string_output_adapter@_W@__crt_stdio_output@@@2@@__crt_stdio_output@@QAE@XZ 00436570 f i libucrtd:output.obj
 0001:00035590       ??1?$output_processor@_WV?$string_output_adapter@_W@__crt_stdio_output@@V?$positional_parameter_base@_WV?$string_output_adapter@_W@__crt_stdio_output@@@2@@__crt_stdio_output@@QAE@XZ 00436590 f i libucrtd:output.obj
 0001:000355b0       ??1?$output_processor@_WV?$string_output_adapter@_W@__crt_stdio_output@@V?$standard_base@_WV?$string_output_adapter@_W@__crt_stdio_output@@@2@@__crt_stdio_output@@QAE@XZ 004365b0 f i libucrtd:output.obj
 0001:000355d0       ??1?$positional_parameter_base@DV?$stream_output_adapter@D@__crt_stdio_output@@@__crt_stdio_output@@QAE@XZ 004365d0 f i libucrtd:output.obj
 0001:000355f0       ??1?$positional_parameter_base@DV?$string_output_adapter@D@__crt_stdio_output@@@__crt_stdio_output@@QAE@XZ 004365f0 f i libucrtd:output.obj
 0001:00035610       ??1?$positional_parameter_base@_WV?$stream_output_adapter@_W@__crt_stdio_output@@@__crt_stdio_output@@QAE@XZ 00436610 f i libucrtd:output.obj
 0001:00035630       ??1?$positional_parameter_base@_WV?$string_output_adapter@_W@__crt_stdio_output@@@__crt_stdio_output@@QAE@XZ 00436630 f i libucrtd:output.obj
 0001:00035650       ??1?$standard_base@DV?$stream_output_adapter@D@__crt_stdio_output@@@__crt_stdio_output@@QAE@XZ 00436650 f i libucrtd:output.obj
 0001:00035670       ??1?$standard_base@DV?$string_output_adapter@D@__crt_stdio_output@@@__crt_stdio_output@@QAE@XZ 00436670 f i libucrtd:output.obj
 0001:00035690       ??1?$standard_base@_WV?$stream_output_adapter@_W@__crt_stdio_output@@@__crt_stdio_output@@QAE@XZ 00436690 f i libucrtd:output.obj
 0001:000356b0       ??1?$standard_base@_WV?$string_output_adapter@_W@__crt_stdio_output@@@__crt_stdio_output@@QAE@XZ 004366b0 f i libucrtd:output.obj
 0001:000356d0       ??1_LocaleUpdate@@QAE@XZ   004366d0 f i libucrtd:output.obj
 0001:00035710       ??1__acrt_stdio_temporary_buffering_guard@@QAE@XZ 00436710 f i libucrtd:output.obj
 0001:00035740       ??1__crt_errno_guard@@QAE@XZ 00436740 f i libucrtd:output.obj
 0001:00035780       ??1formatting_buffer@__crt_stdio_output@@QAE@XZ 00436780 f i libucrtd:output.obj
 0001:000357b0       ??4?$__crt_unique_heap_ptr@DU__crt_internal_free_policy@@@@QAEAAV0@$$QAV0@@Z 004367b0 f i libucrtd:output.obj
 0001:000360f0       ?GetLocaleT@_LocaleUpdate@@QAEPAU__crt_locale_pointers@@XZ 004370f0 f i libucrtd:output.obj
 0001:00036110       ?adjust_hexit@?$output_processor@DV?$stream_output_adapter@D@__crt_stdio_output@@V?$format_validation_base@DV?$stream_output_adapter@D@__crt_stdio_output@@@2@@__crt_stdio_output@@CADH_N@Z 00437110 f i libucrtd:output.obj
 0001:00036160       ?adjust_hexit@?$output_processor@DV?$stream_output_adapter@D@__crt_stdio_output@@V?$positional_parameter_base@DV?$stream_output_adapter@D@__crt_stdio_output@@@2@@__crt_stdio_output@@CADH_N@Z 00437160 f i libucrtd:output.obj
 0001:000361b0       ?adjust_hexit@?$output_processor@DV?$stream_output_adapter@D@__crt_stdio_output@@V?$standard_base@DV?$stream_output_adapter@D@__crt_stdio_output@@@2@@__crt_stdio_output@@CADH_N@Z 004371b0 f i libucrtd:output.obj
 0001:00036200       ?adjust_hexit@?$output_processor@DV?$string_output_adapter@D@__crt_stdio_output@@V?$format_validation_base@DV?$string_output_adapter@D@__crt_stdio_output@@@2@@__crt_stdio_output@@CADH_N@Z 00437200 f i libucrtd:output.obj
 0001:00036250       ?adjust_hexit@?$output_processor@DV?$string_output_adapter@D@__crt_stdio_output@@V?$positional_parameter_base@DV?$string_output_adapter@D@__crt_stdio_output@@@2@@__crt_stdio_output@@CADH_N@Z 00437250 f i libucrtd:output.obj
 0001:000362a0       ?adjust_hexit@?$output_processor@DV?$string_output_adapter@D@__crt_stdio_output@@V?$standard_base@DV?$string_output_adapter@D@__crt_stdio_output@@@2@@__crt_stdio_output@@CADH_N@Z 004372a0 f i libucrtd:output.obj
 0001:000362f0       ?adjust_hexit@?$output_processor@_WV?$stream_output_adapter@_W@__crt_stdio_output@@V?$format_validation_base@_WV?$stream_output_adapter@_W@__crt_stdio_output@@@2@@__crt_stdio_output@@CADH_N@Z 004372f0 f i libucrtd:output.obj
 0001:00036340       ?adjust_hexit@?$output_processor@_WV?$stream_output_adapter@_W@__crt_stdio_output@@V?$positional_parameter_base@_WV?$stream_output_adapter@_W@__crt_stdio_output@@@2@@__crt_stdio_output@@CADH_N@Z 00437340 f i libucrtd:output.obj
 0001:00036390       ?adjust_hexit@?$output_processor@_WV?$stream_output_adapter@_W@__crt_stdio_output@@V?$standard_base@_WV?$stream_output_adapter@_W@__crt_stdio_output@@@2@@__crt_stdio_output@@CADH_N@Z 00437390 f i libucrtd:output.obj
 0001:000363e0       ?adjust_hexit@?$output_processor@_WV?$string_output_adapter@_W@__crt_stdio_output@@V?$format_validation_base@_WV?$string_output_adapter@_W@__crt_stdio_output@@@2@@__crt_stdio_output@@CADH_N@Z 004373e0 f i libucrtd:output.obj
 0001:00036430       ?adjust_hexit@?$output_processor@_WV?$string_output_adapter@_W@__crt_stdio_output@@V?$positional_parameter_base@_WV?$string_output_adapter@_W@__crt_stdio_output@@@2@@__crt_stdio_output@@CADH_N@Z 00437430 f i libucrtd:output.obj
 0001:00036480       ?adjust_hexit@?$output_processor@_WV?$string_output_adapter@_W@__crt_stdio_output@@V?$standard_base@_WV?$string_output_adapter@_W@__crt_stdio_output@@@2@@__crt_stdio_output@@CADH_N@Z 00437480 f i libucrtd:output.obj
 0001:000364d0       ?advance_to_next_pass@?$positional_parameter_base@DV?$stream_output_adapter@D@__crt_stdio_output@@@__crt_stdio_output@@IAE_NXZ 004374d0 f i libucrtd:output.obj
 0001:00036590       ?advance_to_next_pass@?$positional_parameter_base@DV?$string_output_adapter@D@__crt_stdio_output@@@__crt_stdio_output@@IAE_NXZ 00437590 f i libucrtd:output.obj
 0001:00036650       ?advance_to_next_pass@?$positional_parameter_base@_WV?$stream_output_adapter@_W@__crt_stdio_output@@@__crt_stdio_output@@IAE_NXZ 00437650 f i libucrtd:output.obj
 0001:00036710       ?advance_to_next_pass@?$positional_parameter_base@_WV?$string_output_adapter@_W@__crt_stdio_output@@@__crt_stdio_output@@IAE_NXZ 00437710 f i libucrtd:output.obj
 0001:000367d0       ?advance_to_next_pass@?$standard_base@DV?$stream_output_adapter@D@__crt_stdio_output@@@__crt_stdio_output@@IAE_NXZ 004377d0 f i libucrtd:output.obj
 0001:00036830       ?advance_to_next_pass@?$standard_base@DV?$string_output_adapter@D@__crt_stdio_output@@@__crt_stdio_output@@IAE_NXZ 00437830 f i libucrtd:output.obj
 0001:00036890       ?advance_to_next_pass@?$standard_base@_WV?$stream_output_adapter@_W@__crt_stdio_output@@@__crt_stdio_output@@IAE_NXZ 00437890 f i libucrtd:output.obj
 0001:000368f0       ?advance_to_next_pass@?$standard_base@_WV?$string_output_adapter@_W@__crt_stdio_output@@@__crt_stdio_output@@IAE_NXZ 004378f0 f i libucrtd:output.obj
 0001:00036950       ?crop_zeroes@__crt_stdio_output@@YAXPADQAU__crt_locale_pointers@@@Z 00437950 f i libucrtd:output.obj
 0001:00036a80       ?find_next_state@?$output_processor@DV?$stream_output_adapter@D@__crt_stdio_output@@V?$format_validation_base@DV?$stream_output_adapter@D@__crt_stdio_output@@@2@@__crt_stdio_output@@ABE?AW4state@2@DW432@@Z 00437a80 f i libucrtd:output.obj
 0001:00036b10       ?find_next_state@?$output_processor@DV?$stream_output_adapter@D@__crt_stdio_output@@V?$positional_parameter_base@DV?$stream_output_adapter@D@__crt_stdio_output@@@2@@__crt_stdio_output@@ABE?AW4state@2@DW432@@Z 00437b10 f i libucrtd:output.obj
 0001:00036ba0       ?find_next_state@?$output_processor@DV?$stream_output_adapter@D@__crt_stdio_output@@V?$standard_base@DV?$stream_output_adapter@D@__crt_stdio_output@@@2@@__crt_stdio_output@@ABE?AW4state@2@DW432@@Z 00437ba0 f i libucrtd:output.obj
 0001:00036c30       ?find_next_state@?$output_processor@DV?$string_output_adapter@D@__crt_stdio_output@@V?$format_validation_base@DV?$string_output_adapter@D@__crt_stdio_output@@@2@@__crt_stdio_output@@ABE?AW4state@2@DW432@@Z 00437c30 f i libucrtd:output.obj
 0001:00036cc0       ?find_next_state@?$output_processor@DV?$string_output_adapter@D@__crt_stdio_output@@V?$positional_parameter_base@DV?$string_output_adapter@D@__crt_stdio_output@@@2@@__crt_stdio_output@@ABE?AW4state@2@DW432@@Z 00437cc0 f i libucrtd:output.obj
 0001:00036d50       ?find_next_state@?$output_processor@DV?$string_output_adapter@D@__crt_stdio_output@@V?$standard_base@DV?$string_output_adapter@D@__crt_stdio_output@@@2@@__crt_stdio_output@@ABE?AW4state@2@DW432@@Z 00437d50 f i libucrtd:output.obj
 0001:00036de0       ?find_next_state@?$output_processor@_WV?$stream_output_adapter@_W@__crt_stdio_output@@V?$format_validation_base@_WV?$stream_output_adapter@_W@__crt_stdio_output@@@2@@__crt_stdio_output@@ABE?AW4state@2@_WW432@@Z 00437de0 f i libucrtd:output.obj
 0001:00036e70       ?find_next_state@?$output_processor@_WV?$stream_output_adapter@_W@__crt_stdio_output@@V?$positional_parameter_base@_WV?$stream_output_adapter@_W@__crt_stdio_output@@@2@@__crt_stdio_output@@ABE?AW4state@2@_WW432@@Z 00437e70 f i libucrtd:output.obj
 0001:00036f00       ?find_next_state@?$output_processor@_WV?$stream_output_adapter@_W@__crt_stdio_output@@V?$standard_base@_WV?$stream_output_adapter@_W@__crt_stdio_output@@@2@@__crt_stdio_output@@ABE?AW4state@2@_WW432@@Z 00437f00 f i libucrtd:output.obj
 0001:00036f90       ?find_next_state@?$output_processor@_WV?$string_output_adapter@_W@__crt_stdio_output@@V?$format_validation_base@_WV?$string_output_adapter@_W@__crt_stdio_output@@@2@@__crt_stdio_output@@ABE?AW4state@2@_WW432@@Z 00437f90 f i libucrtd:output.obj
 0001:00037020       ?find_next_state@?$output_processor@_WV?$string_output_adapter@_W@__crt_stdio_output@@V?$positional_parameter_base@_WV?$string_output_adapter@_W@__crt_stdio_output@@@2@@__crt_stdio_output@@ABE?AW4state@2@_WW432@@Z 00438020 f i libucrtd:output.obj
 0001:000370b0       ?find_next_state@?$output_processor@_WV?$string_output_adapter@_W@__crt_stdio_output@@V?$standard_base@_WV?$string_output_adapter@_W@__crt_stdio_output@@@2@@__crt_stdio_output@@ABE?AW4state@2@_WW432@@Z 004380b0 f i libucrtd:output.obj
 0001:00037140       ?force_decimal_point@__crt_stdio_output@@YAXPADQAU__crt_locale_pointers@@@Z 00438140 f i libucrtd:output.obj
 0001:00037220       ?get_parameter_type@?$positional_parameter_base@DV?$stream_output_adapter@D@__crt_stdio_output@@@__crt_stdio_output@@CA?AW4parameter_type@12@F@Z 00438220 f i libucrtd:output.obj
 0001:00037230       ?get_parameter_type@?$positional_parameter_base@DV?$stream_output_adapter@D@__crt_stdio_output@@@__crt_stdio_output@@CA?AW4parameter_type@12@G@Z 00438230 f i libucrtd:output.obj
 0001:00037240       ?get_parameter_type@?$positional_parameter_base@DV?$stream_output_adapter@D@__crt_stdio_output@@@__crt_stdio_output@@CA?AW4parameter_type@12@H@Z 00438240 f i libucrtd:output.obj
 0001:00037250       ?get_parameter_type@?$positional_parameter_base@DV?$stream_output_adapter@D@__crt_stdio_output@@@__crt_stdio_output@@CA?AW4parameter_type@12@I@Z 00438250 f i libucrtd:output.obj
 0001:00037260       ?get_parameter_type@?$positional_parameter_base@DV?$stream_output_adapter@D@__crt_stdio_output@@@__crt_stdio_output@@CA?AW4parameter_type@12@U_CRT_DOUBLE@@@Z 00438260 f i libucrtd:output.obj
 0001:00037270       ?get_parameter_type@?$positional_parameter_base@DV?$stream_output_adapter@D@__crt_stdio_output@@@__crt_stdio_output@@CA?AW4parameter_type@12@_J@Z 00438270 f i libucrtd:output.obj
 0001:00037280       ?get_parameter_type@?$positional_parameter_base@DV?$stream_output_adapter@D@__crt_stdio_output@@@__crt_stdio_output@@CA?AW4parameter_type@12@_K@Z 00438280 f i libucrtd:output.obj
 0001:00037290       ?get_parameter_type@?$positional_parameter_base@DV?$stream_output_adapter@D@__crt_stdio_output@@@__crt_stdio_output@@CA?AW4parameter_type@12@_W@Z 00438290 f i libucrtd:output.obj
 0001:000372a0       ?get_parameter_type@?$positional_parameter_base@DV?$string_output_adapter@D@__crt_stdio_output@@@__crt_stdio_output@@CA?AW4parameter_type@12@F@Z 004382a0 f i libucrtd:output.obj
 0001:000372b0       ?get_parameter_type@?$positional_parameter_base@DV?$string_output_adapter@D@__crt_stdio_output@@@__crt_stdio_output@@CA?AW4parameter_type@12@G@Z 004382b0 f i libucrtd:output.obj
 0001:000372c0       ?get_parameter_type@?$positional_parameter_base@DV?$string_output_adapter@D@__crt_stdio_output@@@__crt_stdio_output@@CA?AW4parameter_type@12@H@Z 004382c0 f i libucrtd:output.obj
 0001:000372d0       ?get_parameter_type@?$positional_parameter_base@DV?$string_output_adapter@D@__crt_stdio_output@@@__crt_stdio_output@@CA?AW4parameter_type@12@I@Z 004382d0 f i libucrtd:output.obj
 0001:000372e0       ?get_parameter_type@?$positional_parameter_base@DV?$string_output_adapter@D@__crt_stdio_output@@@__crt_stdio_output@@CA?AW4parameter_type@12@U_CRT_DOUBLE@@@Z 004382e0 f i libucrtd:output.obj
 0001:000372f0       ?get_parameter_type@?$positional_parameter_base@DV?$string_output_adapter@D@__crt_stdio_output@@@__crt_stdio_output@@CA?AW4parameter_type@12@_J@Z 004382f0 f i libucrtd:output.obj
 0001:00037300       ?get_parameter_type@?$positional_parameter_base@DV?$string_output_adapter@D@__crt_stdio_output@@@__crt_stdio_output@@CA?AW4parameter_type@12@_K@Z 00438300 f i libucrtd:output.obj
 0001:00037310       ?get_parameter_type@?$positional_parameter_base@DV?$string_output_adapter@D@__crt_stdio_output@@@__crt_stdio_output@@CA?AW4parameter_type@12@_W@Z 00438310 f i libucrtd:output.obj
 0001:00037320       ?get_parameter_type@?$positional_parameter_base@_WV?$stream_output_adapter@_W@__crt_stdio_output@@@__crt_stdio_output@@CA?AW4parameter_type@12@F@Z 00438320 f i libucrtd:output.obj
 0001:00037330       ?get_parameter_type@?$positional_parameter_base@_WV?$stream_output_adapter@_W@__crt_stdio_output@@@__crt_stdio_output@@CA?AW4parameter_type@12@G@Z 00438330 f i libucrtd:output.obj
 0001:00037340       ?get_parameter_type@?$positional_parameter_base@_WV?$stream_output_adapter@_W@__crt_stdio_output@@@__crt_stdio_output@@CA?AW4parameter_type@12@H@Z 00438340 f i libucrtd:output.obj
 0001:00037350       ?get_parameter_type@?$positional_parameter_base@_WV?$stream_output_adapter@_W@__crt_stdio_output@@@__crt_stdio_output@@CA?AW4parameter_type@12@I@Z 00438350 f i libucrtd:output.obj
 0001:00037360       ?get_parameter_type@?$positional_parameter_base@_WV?$stream_output_adapter@_W@__crt_stdio_output@@@__crt_stdio_output@@CA?AW4parameter_type@12@U_CRT_DOUBLE@@@Z 00438360 f i libucrtd:output.obj
 0001:00037370       ?get_parameter_type@?$positional_parameter_base@_WV?$stream_output_adapter@_W@__crt_stdio_output@@@__crt_stdio_output@@CA?AW4parameter_type@12@_J@Z 00438370 f i libucrtd:output.obj
 0001:00037380       ?get_parameter_type@?$positional_parameter_base@_WV?$stream_output_adapter@_W@__crt_stdio_output@@@__crt_stdio_output@@CA?AW4parameter_type@12@_K@Z 00438380 f i libucrtd:output.obj
 0001:00037390       ?get_parameter_type@?$positional_parameter_base@_WV?$stream_output_adapter@_W@__crt_stdio_output@@@__crt_stdio_output@@CA?AW4parameter_type@12@_W@Z 00438390 f i libucrtd:output.obj
 0001:000373a0       ?get_parameter_type@?$positional_parameter_base@_WV?$string_output_adapter@_W@__crt_stdio_output@@@__crt_stdio_output@@CA?AW4parameter_type@12@F@Z 004383a0 f i libucrtd:output.obj
 0001:000373b0       ?get_parameter_type@?$positional_parameter_base@_WV?$string_output_adapter@_W@__crt_stdio_output@@@__crt_stdio_output@@CA?AW4parameter_type@12@G@Z 004383b0 f i libucrtd:output.obj
 0001:000373c0       ?get_parameter_type@?$positional_parameter_base@_WV?$string_output_adapter@_W@__crt_stdio_output@@@__crt_stdio_output@@CA?AW4parameter_type@12@H@Z 004383c0 f i libucrtd:output.obj
 0001:000373d0       ?get_parameter_type@?$positional_parameter_base@_WV?$string_output_adapter@_W@__crt_stdio_output@@@__crt_stdio_output@@CA?AW4parameter_type@12@I@Z 004383d0 f i libucrtd:output.obj
 0001:000373e0       ?get_parameter_type@?$positional_parameter_base@_WV?$string_output_adapter@_W@__crt_stdio_output@@@__crt_stdio_output@@CA?AW4parameter_type@12@U_CRT_DOUBLE@@@Z 004383e0 f i libucrtd:output.obj
 0001:000373f0       ?get_parameter_type@?$positional_parameter_base@_WV?$string_output_adapter@_W@__crt_stdio_output@@@__crt_stdio_output@@CA?AW4parameter_type@12@_J@Z 004383f0 f i libucrtd:output.obj
 0001:00037400       ?get_parameter_type@?$positional_parameter_base@_WV?$string_output_adapter@_W@__crt_stdio_output@@@__crt_stdio_output@@CA?AW4parameter_type@12@_K@Z 00438400 f i libucrtd:output.obj
 0001:00037410       ?get_parameter_type@?$positional_parameter_base@_WV?$string_output_adapter@_W@__crt_stdio_output@@@__crt_stdio_output@@CA?AW4parameter_type@12@_W@Z 00438410 f i libucrtd:output.obj
 0001:00037420       ?has_flag@?$output_processor@DV?$stream_output_adapter@D@__crt_stdio_output@@V?$format_validation_base@DV?$stream_output_adapter@D@__crt_stdio_output@@@2@@__crt_stdio_output@@ABE_NI@Z 00438420 f i libucrtd:output.obj
 0001:00037460       ?has_flag@?$output_processor@DV?$stream_output_adapter@D@__crt_stdio_output@@V?$positional_parameter_base@DV?$stream_output_adapter@D@__crt_stdio_output@@@2@@__crt_stdio_output@@ABE_NI@Z 00438460 f i libucrtd:output.obj
 0001:000374a0       ?has_flag@?$output_processor@DV?$stream_output_adapter@D@__crt_stdio_output@@V?$standard_base@DV?$stream_output_adapter@D@__crt_stdio_output@@@2@@__crt_stdio_output@@ABE_NI@Z 004384a0 f i libucrtd:output.obj
 0001:000374e0       ?has_flag@?$output_processor@DV?$string_output_adapter@D@__crt_stdio_output@@V?$format_validation_base@DV?$string_output_adapter@D@__crt_stdio_output@@@2@@__crt_stdio_output@@ABE_NI@Z 004384e0 f i libucrtd:output.obj
 0001:00037520       ?has_flag@?$output_processor@DV?$string_output_adapter@D@__crt_stdio_output@@V?$positional_parameter_base@DV?$string_output_adapter@D@__crt_stdio_output@@@2@@__crt_stdio_output@@ABE_NI@Z 00438520 f i libucrtd:output.obj
 0001:00037560       ?has_flag@?$output_processor@DV?$string_output_adapter@D@__crt_stdio_output@@V?$standard_base@DV?$string_output_adapter@D@__crt_stdio_output@@@2@@__crt_stdio_output@@ABE_NI@Z 00438560 f i libucrtd:output.obj
 0001:000375a0       ?has_flag@?$output_processor@_WV?$stream_output_adapter@_W@__crt_stdio_output@@V?$format_validation_base@_WV?$stream_output_adapter@_W@__crt_stdio_output@@@2@@__crt_stdio_output@@ABE_NI@Z 004385a0 f i libucrtd:output.obj
 0001:000375e0       ?has_flag@?$output_processor@_WV?$stream_output_adapter@_W@__crt_stdio_output@@V?$positional_parameter_base@_WV?$stream_output_adapter@_W@__crt_stdio_output@@@2@@__crt_stdio_output@@ABE_NI@Z 004385e0 f i libucrtd:output.obj
 0001:00037620       ?has_flag@?$output_processor@_WV?$stream_output_adapter@_W@__crt_stdio_output@@V?$standard_base@_WV?$stream_output_adapter@_W@__crt_stdio_output@@@2@@__crt_stdio_output@@ABE_NI@Z 00438620 f i libucrtd:output.obj
 0001:00037660       ?has_flag@?$output_processor@_WV?$string_output_adapter@_W@__crt_stdio_output@@V?$format_validation_base@_WV?$string_output_adapter@_W@__crt_stdio_output@@@2@@__crt_stdio_output@@ABE_NI@Z 00438660 f i libucrtd:output.obj
 0001:000376a0       ?has_flag@?$output_processor@_WV?$string_output_adapter@_W@__crt_stdio_output@@V?$positional_parameter_base@_WV?$string_output_adapter@_W@__crt_stdio_output@@@2@@__crt_stdio_output@@ABE_NI@Z 004386a0 f i libucrtd:output.obj
 0001:000376e0       ?has_flag@?$output_processor@_WV?$string_output_adapter@_W@__crt_stdio_output@@V?$standard_base@_WV?$string_output_adapter@_W@__crt_stdio_output@@@2@@__crt_stdio_output@@ABE_NI@Z 004386e0 f i libucrtd:output.obj
 0001:00037720       ?is_positional_parameter_reappearance_consistent@?$positional_parameter_base@DV?$stream_output_adapter@D@__crt_stdio_output@@@__crt_stdio_output@@AAE_NABUparameter_data@12@W4parameter_type@12@DW4length_modifier@2@@Z 00438720 f i libucrtd:output.obj
 0001:000379d0       ?is_positional_parameter_reappearance_consistent@?$positional_parameter_base@DV?$string_output_adapter@D@__crt_stdio_output@@@__crt_stdio_output@@AAE_NABUparameter_data@12@W4parameter_type@12@DW4length_modifier@2@@Z 004389d0 f i libucrtd:output.obj
 0001:00037c80       ?is_positional_parameter_reappearance_consistent@?$positional_parameter_base@_WV?$stream_output_adapter@_W@__crt_stdio_output@@@__crt_stdio_output@@AAE_NABUparameter_data@12@W4parameter_type@12@_WW4length_modifier@2@@Z 00438c80 f i libucrtd:output.obj
 0001:00037f30       ?is_positional_parameter_reappearance_consistent@?$positional_parameter_base@_WV?$string_output_adapter@_W@__crt_stdio_output@@@__crt_stdio_output@@AAE_NABUparameter_data@12@W4parameter_type@12@_WW4length_modifier@2@@Z 00438f30 f i libucrtd:output.obj
 0001:000381e0       ?narrow_null_string@?$output_processor@DV?$stream_output_adapter@D@__crt_stdio_output@@V?$format_validation_base@DV?$stream_output_adapter@D@__crt_stdio_output@@@2@@__crt_stdio_output@@CAPADXZ 004391e0 f i libucrtd:output.obj
 0001:000381f0       ?narrow_null_string@?$output_processor@DV?$stream_output_adapter@D@__crt_stdio_output@@V?$positional_parameter_base@DV?$stream_output_adapter@D@__crt_stdio_output@@@2@@__crt_stdio_output@@CAPADXZ 004391f0 f i libucrtd:output.obj
 0001:00038200       ?narrow_null_string@?$output_processor@DV?$stream_output_adapter@D@__crt_stdio_output@@V?$standard_base@DV?$stream_output_adapter@D@__crt_stdio_output@@@2@@__crt_stdio_output@@CAPADXZ 00439200 f i libucrtd:output.obj
 0001:00038210       ?narrow_null_string@?$output_processor@DV?$string_output_adapter@D@__crt_stdio_output@@V?$format_validation_base@DV?$string_output_adapter@D@__crt_stdio_output@@@2@@__crt_stdio_output@@CAPADXZ 00439210 f i libucrtd:output.obj
 0001:00038220       ?narrow_null_string@?$output_processor@DV?$string_output_adapter@D@__crt_stdio_output@@V?$positional_parameter_base@DV?$string_output_adapter@D@__crt_stdio_output@@@2@@__crt_stdio_output@@CAPADXZ 00439220 f i libucrtd:output.obj
 0001:00038230       ?narrow_null_string@?$output_processor@DV?$string_output_adapter@D@__crt_stdio_output@@V?$standard_base@DV?$string_output_adapter@D@__crt_stdio_output@@@2@@__crt_stdio_output@@CAPADXZ 00439230 f i libucrtd:output.obj
 0001:00038240       ?narrow_null_string@?$output_processor@_WV?$stream_output_adapter@_W@__crt_stdio_output@@V?$format_validation_base@_WV?$stream_output_adapter@_W@__crt_stdio_output@@@2@@__crt_stdio_output@@CAPADXZ 00439240 f i libucrtd:output.obj
 0001:00038250       ?narrow_null_string@?$output_processor@_WV?$stream_output_adapter@_W@__crt_stdio_output@@V?$positional_parameter_base@_WV?$stream_output_adapter@_W@__crt_stdio_output@@@2@@__crt_stdio_output@@CAPADXZ 00439250 f i libucrtd:output.obj
 0001:00038260       ?narrow_null_string@?$output_processor@_WV?$stream_output_adapter@_W@__crt_stdio_output@@V?$standard_base@_WV?$stream_output_adapter@_W@__crt_stdio_output@@@2@@__crt_stdio_output@@CAPADXZ 00439260 f i libucrtd:output.obj
 0001:00038270       ?narrow_null_string@?$output_processor@_WV?$string_output_adapter@_W@__crt_stdio_output@@V?$format_validation_base@_WV?$string_output_adapter@_W@__crt_stdio_output@@@2@@__crt_stdio_output@@CAPADXZ 00439270 f i libucrtd:output.obj
 0001:00038280       ?narrow_null_string@?$output_processor@_WV?$string_output_adapter@_W@__crt_stdio_output@@V?$positional_parameter_base@_WV?$string_output_adapter@_W@__crt_stdio_output@@@2@@__crt_stdio_output@@CAPADXZ 00439280 f i libucrtd:output.obj
 0001:00038290       ?narrow_null_string@?$output_processor@_WV?$string_output_adapter@_W@__crt_stdio_output@@V?$standard_base@_WV?$string_output_adapter@_W@__crt_stdio_output@@@2@@__crt_stdio_output@@CAPADXZ 00439290 f i libucrtd:output.obj
 0001:000382a0       ?parse_int_from_format_string@?$output_processor@DV?$stream_output_adapter@D@__crt_stdio_output@@V?$format_validation_base@DV?$stream_output_adapter@D@__crt_stdio_output@@@2@@__crt_stdio_output@@AAE_NQAH@Z 004392a0 f i libucrtd:output.obj
 0001:00038380       ?parse_int_from_format_string@?$output_processor@DV?$stream_output_adapter@D@__crt_stdio_output@@V?$positional_parameter_base@DV?$stream_output_adapter@D@__crt_stdio_output@@@2@@__crt_stdio_output@@AAE_NQAH@Z 00439380 f i libucrtd:output.obj
 0001:00038460       ?parse_int_from_format_string@?$output_processor@DV?$stream_output_adapter@D@__crt_stdio_output@@V?$standard_base@DV?$stream_output_adapter@D@__crt_stdio_output@@@2@@__crt_stdio_output@@AAE_NQAH@Z 00439460 f i libucrtd:output.obj
 0001:00038540       ?parse_int_from_format_string@?$output_processor@DV?$string_output_adapter@D@__crt_stdio_output@@V?$format_validation_base@DV?$string_output_adapter@D@__crt_stdio_output@@@2@@__crt_stdio_output@@AAE_NQAH@Z 00439540 f i libucrtd:output.obj
 0001:00038620       ?parse_int_from_format_string@?$output_processor@DV?$string_output_adapter@D@__crt_stdio_output@@V?$positional_parameter_base@DV?$string_output_adapter@D@__crt_stdio_output@@@2@@__crt_stdio_output@@AAE_NQAH@Z 00439620 f i libucrtd:output.obj
 0001:00038700       ?parse_int_from_format_string@?$output_processor@DV?$string_output_adapter@D@__crt_stdio_output@@V?$standard_base@DV?$string_output_adapter@D@__crt_stdio_output@@@2@@__crt_stdio_output@@AAE_NQAH@Z 00439700 f i libucrtd:output.obj
 0001:000387e0       ?parse_int_from_format_string@?$output_processor@_WV?$stream_output_adapter@_W@__crt_stdio_output@@V?$format_validation_base@_WV?$stream_output_adapter@_W@__crt_stdio_output@@@2@@__crt_stdio_output@@AAE_NQAH@Z 004397e0 f i libucrtd:output.obj
 0001:000388c0       ?parse_int_from_format_string@?$output_processor@_WV?$stream_output_adapter@_W@__crt_stdio_output@@V?$positional_parameter_base@_WV?$stream_output_adapter@_W@__crt_stdio_output@@@2@@__crt_stdio_output@@AAE_NQAH@Z 004398c0 f i libucrtd:output.obj
 0001:000389a0       ?parse_int_from_format_string@?$output_processor@_WV?$stream_output_adapter@_W@__crt_stdio_output@@V?$standard_base@_WV?$stream_output_adapter@_W@__crt_stdio_output@@@2@@__crt_stdio_output@@AAE_NQAH@Z 004399a0 f i libucrtd:output.obj
 0001:00038a80       ?parse_int_from_format_string@?$output_processor@_WV?$string_output_adapter@_W@__crt_stdio_output@@V?$format_validation_base@_WV?$string_output_adapter@_W@__crt_stdio_output@@@2@@__crt_stdio_output@@AAE_NQAH@Z 00439a80 f i libucrtd:output.obj
 0001:00038b60       ?parse_int_from_format_string@?$output_processor@_WV?$string_output_adapter@_W@__crt_stdio_output@@V?$positional_parameter_base@_WV?$string_output_adapter@_W@__crt_stdio_output@@@2@@__crt_stdio_output@@AAE_NQAH@Z 00439b60 f i libucrtd:output.obj
 0001:00038c40       ?parse_int_from_format_string@?$output_processor@_WV?$string_output_adapter@_W@__crt_stdio_output@@V?$standard_base@_WV?$string_output_adapter@_W@__crt_stdio_output@@@2@@__crt_stdio_output@@AAE_NQAH@Z 00439c40 f i libucrtd:output.obj
 0001:00038d20       ?process@?$output_processor@DV?$stream_output_adapter@D@__crt_stdio_output@@V?$format_validation_base@DV?$stream_output_adapter@D@__crt_stdio_output@@@2@@__crt_stdio_output@@QAEHXZ 00439d20 f i libucrtd:output.obj
 0001:00039070       ?process@?$output_processor@DV?$stream_output_adapter@D@__crt_stdio_output@@V?$positional_parameter_base@DV?$stream_output_adapter@D@__crt_stdio_output@@@2@@__crt_stdio_output@@QAEHXZ 0043a070 f i libucrtd:output.obj
 0001:000393c0       ?process@?$output_processor@DV?$stream_output_adapter@D@__crt_stdio_output@@V?$standard_base@DV?$stream_output_adapter@D@__crt_stdio_output@@@2@@__crt_stdio_output@@QAEHXZ 0043a3c0 f i libucrtd:output.obj
 0001:00039710       ?process@?$output_processor@DV?$string_output_adapter@D@__crt_stdio_output@@V?$format_validation_base@DV?$string_output_adapter@D@__crt_stdio_output@@@2@@__crt_stdio_output@@QAEHXZ 0043a710 f i libucrtd:output.obj
 0001:00039a60       ?process@?$output_processor@DV?$string_output_adapter@D@__crt_stdio_output@@V?$positional_parameter_base@DV?$string_output_adapter@D@__crt_stdio_output@@@2@@__crt_stdio_output@@QAEHXZ 0043aa60 f i libucrtd:output.obj
 0001:00039db0       ?process@?$output_processor@DV?$string_output_adapter@D@__crt_stdio_output@@V?$standard_base@DV?$string_output_adapter@D@__crt_stdio_output@@@2@@__crt_stdio_output@@QAEHXZ 0043adb0 f i libucrtd:output.obj
 0001:0003a100       ?process@?$output_processor@_WV?$stream_output_adapter@_W@__crt_stdio_output@@V?$format_validation_base@_WV?$stream_output_adapter@_W@__crt_stdio_output@@@2@@__crt_stdio_output@@QAEHXZ 0043b100 f i libucrtd:output.obj
 0001:0003a450       ?process@?$output_processor@_WV?$stream_output_adapter@_W@__crt_stdio_output@@V?$positional_parameter_base@_WV?$stream_output_adapter@_W@__crt_stdio_output@@@2@@__crt_stdio_output@@QAEHXZ 0043b450 f i libucrtd:output.obj
 0001:0003a7a0       ?process@?$output_processor@_WV?$stream_output_adapter@_W@__crt_stdio_output@@V?$standard_base@_WV?$stream_output_adapter@_W@__crt_stdio_output@@@2@@__crt_stdio_output@@QAEHXZ 0043b7a0 f i libucrtd:output.obj
 0001:0003aaf0       ?process@?$output_processor@_WV?$string_output_adapter@_W@__crt_stdio_output@@V?$format_validation_base@_WV?$string_output_adapter@_W@__crt_stdio_output@@@2@@__crt_stdio_output@@QAEHXZ 0043baf0 f i libucrtd:output.obj
 0001:0003ae40       ?process@?$output_processor@_WV?$string_output_adapter@_W@__crt_stdio_output@@V?$positional_parameter_base@_WV?$string_output_adapter@_W@__crt_stdio_output@@@2@@__crt_stdio_output@@QAEHXZ 0043be40 f i libucrtd:output.obj
 0001:0003b190       ?process@?$output_processor@_WV?$string_output_adapter@_W@__crt_stdio_output@@V?$standard_base@_WV?$string_output_adapter@_W@__crt_stdio_output@@@2@@__crt_stdio_output@@QAEHXZ 0043c190 f i libucrtd:output.obj
 0001:0003b4e0       ?set_flag@?$output_processor@DV?$stream_output_adapter@D@__crt_stdio_output@@V?$format_validation_base@DV?$stream_output_adapter@D@__crt_stdio_output@@@2@@__crt_stdio_output@@AAEXI@Z 0043c4e0 f i libucrtd:output.obj
 0001:0003b510       ?set_flag@?$output_processor@DV?$stream_output_adapter@D@__crt_stdio_output@@V?$positional_parameter_base@DV?$stream_output_adapter@D@__crt_stdio_output@@@2@@__crt_stdio_output@@AAEXI@Z 0043c510 f i libucrtd:output.obj
 0001:0003b540       ?set_flag@?$output_processor@DV?$stream_output_adapter@D@__crt_stdio_output@@V?$standard_base@DV?$stream_output_adapter@D@__crt_stdio_output@@@2@@__crt_stdio_output@@AAEXI@Z 0043c540 f i libucrtd:output.obj
 0001:0003b570       ?set_flag@?$output_processor@DV?$string_output_adapter@D@__crt_stdio_output@@V?$format_validation_base@DV?$string_output_adapter@D@__crt_stdio_output@@@2@@__crt_stdio_output@@AAEXI@Z 0043c570 f i libucrtd:output.obj
 0001:0003b5a0       ?set_flag@?$output_processor@DV?$string_output_adapter@D@__crt_stdio_output@@V?$positional_parameter_base@DV?$string_output_adapter@D@__crt_stdio_output@@@2@@__crt_stdio_output@@AAEXI@Z 0043c5a0 f i libucrtd:output.obj
 0001:0003b5d0       ?set_flag@?$output_processor@DV?$string_output_adapter@D@__crt_stdio_output@@V?$standard_base@DV?$string_output_adapter@D@__crt_stdio_output@@@2@@__crt_stdio_output@@AAEXI@Z 0043c5d0 f i libucrtd:output.obj
 0001:0003b600       ?set_flag@?$output_processor@_WV?$stream_output_adapter@_W@__crt_stdio_output@@V?$format_validation_base@_WV?$stream_output_adapter@_W@__crt_stdio_output@@@2@@__crt_stdio_output@@AAEXI@Z 0043c600 f i libucrtd:output.obj
 0001:0003b630       ?set_flag@?$output_processor@_WV?$stream_output_adapter@_W@__crt_stdio_output@@V?$positional_parameter_base@_WV?$stream_output_adapter@_W@__crt_stdio_output@@@2@@__crt_stdio_output@@AAEXI@Z 0043c630 f i libucrtd:output.obj
 0001:0003b660       ?set_flag@?$output_processor@_WV?$stream_output_adapter@_W@__crt_stdio_output@@V?$standard_base@_WV?$stream_output_adapter@_W@__crt_stdio_output@@@2@@__crt_stdio_output@@AAEXI@Z 0043c660 f i libucrtd:output.obj
 0001:0003b690       ?set_flag@?$output_processor@_WV?$string_output_adapter@_W@__crt_stdio_output@@V?$format_validation_base@_WV?$string_output_adapter@_W@__crt_stdio_output@@@2@@__crt_stdio_output@@AAEXI@Z 0043c690 f i libucrtd:output.obj
 0001:0003b6c0       ?set_flag@?$output_processor@_WV?$string_output_adapter@_W@__crt_stdio_output@@V?$positional_parameter_base@_WV?$string_output_adapter@_W@__crt_stdio_output@@@2@@__crt_stdio_output@@AAEXI@Z 0043c6c0 f i libucrtd:output.obj
 0001:0003b6f0       ?set_flag@?$output_processor@_WV?$string_output_adapter@_W@__crt_stdio_output@@V?$standard_base@_WV?$string_output_adapter@_W@__crt_stdio_output@@@2@@__crt_stdio_output@@AAEXI@Z 0043c6f0 f i libucrtd:output.obj
 0001:0003b720       ?should_format@?$positional_parameter_base@DV?$stream_output_adapter@D@__crt_stdio_output@@@__crt_stdio_output@@IAE_NXZ 0043c720 f i libucrtd:output.obj
 0001:0003b770       ?should_format@?$positional_parameter_base@DV?$string_output_adapter@D@__crt_stdio_output@@@__crt_stdio_output@@IAE_NXZ 0043c770 f i libucrtd:output.obj
 0001:0003b7c0       ?should_format@?$positional_parameter_base@_WV?$stream_output_adapter@_W@__crt_stdio_output@@@__crt_stdio_output@@IAE_NXZ 0043c7c0 f i libucrtd:output.obj
 0001:0003b810       ?should_format@?$positional_parameter_base@_WV?$string_output_adapter@_W@__crt_stdio_output@@@__crt_stdio_output@@IAE_NXZ 0043c810 f i libucrtd:output.obj
 0001:0003b860       ?should_format@?$standard_base@DV?$stream_output_adapter@D@__crt_stdio_output@@@__crt_stdio_output@@IAE_NXZ 0043c860 f i libucrtd:output.obj
 0001:0003b880       ?should_format@?$standard_base@DV?$string_output_adapter@D@__crt_stdio_output@@@__crt_stdio_output@@IAE_NXZ 0043c880 f i libucrtd:output.obj
 0001:0003b8a0       ?should_format@?$standard_base@_WV?$stream_output_adapter@_W@__crt_stdio_output@@@__crt_stdio_output@@IAE_NXZ 0043c8a0 f i libucrtd:output.obj
 0001:0003b8c0       ?should_format@?$standard_base@_WV?$string_output_adapter@_W@__crt_stdio_output@@@__crt_stdio_output@@IAE_NXZ 0043c8c0 f i libucrtd:output.obj
 0001:0003b8e0       ?should_skip_normal_state_processing@?$positional_parameter_base@DV?$stream_output_adapter@D@__crt_stdio_output@@@__crt_stdio_output@@IAE_NXZ 0043c8e0 f i libucrtd:output.obj
 0001:0003b940       ?should_skip_normal_state_processing@?$positional_parameter_base@DV?$string_output_adapter@D@__crt_stdio_output@@@__crt_stdio_output@@IAE_NXZ 0043c940 f i libucrtd:output.obj
 0001:0003b9a0       ?should_skip_normal_state_processing@?$positional_parameter_base@_WV?$stream_output_adapter@_W@__crt_stdio_output@@@__crt_stdio_output@@IAE_NXZ 0043c9a0 f i libucrtd:output.obj
 0001:0003ba00       ?should_skip_normal_state_processing@?$positional_parameter_base@_WV?$string_output_adapter@_W@__crt_stdio_output@@@__crt_stdio_output@@IAE_NXZ 0043ca00 f i libucrtd:output.obj
 0001:0003ba60       ?should_skip_normal_state_processing@?$standard_base@DV?$stream_output_adapter@D@__crt_stdio_output@@@__crt_stdio_output@@IAE_NXZ 0043ca60 f i libucrtd:output.obj
 0001:0003ba80       ?should_skip_normal_state_processing@?$standard_base@DV?$string_output_adapter@D@__crt_stdio_output@@@__crt_stdio_output@@IAE_NXZ 0043ca80 f i libucrtd:output.obj
 0001:0003baa0       ?should_skip_normal_state_processing@?$standard_base@_WV?$stream_output_adapter@_W@__crt_stdio_output@@@__crt_stdio_output@@IAE_NXZ 0043caa0 f i libucrtd:output.obj
 0001:0003bac0       ?should_skip_normal_state_processing@?$standard_base@_WV?$string_output_adapter@_W@__crt_stdio_output@@@__crt_stdio_output@@IAE_NXZ 0043cac0 f i libucrtd:output.obj
 0001:0003bae0       ?should_skip_type_state_output@?$positional_parameter_base@DV?$stream_output_adapter@D@__crt_stdio_output@@@__crt_stdio_output@@IBE_NXZ 0043cae0 f i libucrtd:output.obj
 0001:0003bb30       ?should_skip_type_state_output@?$positional_parameter_base@DV?$string_output_adapter@D@__crt_stdio_output@@@__crt_stdio_output@@IBE_NXZ 0043cb30 f i libucrtd:output.obj
 0001:0003bb80       ?should_skip_type_state_output@?$positional_parameter_base@_WV?$stream_output_adapter@_W@__crt_stdio_output@@@__crt_stdio_output@@IBE_NXZ 0043cb80 f i libucrtd:output.obj
 0001:0003bbd0       ?should_skip_type_state_output@?$positional_parameter_base@_WV?$string_output_adapter@_W@__crt_stdio_output@@@__crt_stdio_output@@IBE_NXZ 0043cbd0 f i libucrtd:output.obj
 0001:0003bc20       ?should_skip_type_state_output@?$standard_base@DV?$stream_output_adapter@D@__crt_stdio_output@@@__crt_stdio_output@@IBE_NXZ 0043cc20 f i libucrtd:output.obj
 0001:0003bc40       ?should_skip_type_state_output@?$standard_base@DV?$string_output_adapter@D@__crt_stdio_output@@@__crt_stdio_output@@IBE_NXZ 0043cc40 f i libucrtd:output.obj
 0001:0003bc60       ?should_skip_type_state_output@?$standard_base@_WV?$stream_output_adapter@_W@__crt_stdio_output@@@__crt_stdio_output@@IBE_NXZ 0043cc60 f i libucrtd:output.obj
 0001:0003bc80       ?should_skip_type_state_output@?$standard_base@_WV?$string_output_adapter@_W@__crt_stdio_output@@@__crt_stdio_output@@IBE_NXZ 0043cc80 f i libucrtd:output.obj
 0001:0003bca0       ?state_case_dot@?$output_processor@DV?$stream_output_adapter@D@__crt_stdio_output@@V?$format_validation_base@DV?$stream_output_adapter@D@__crt_stdio_output@@@2@@__crt_stdio_output@@AAE_NXZ 0043cca0 f i libucrtd:output.obj
 0001:0003bcc0       ?state_case_dot@?$output_processor@DV?$stream_output_adapter@D@__crt_stdio_output@@V?$positional_parameter_base@DV?$stream_output_adapter@D@__crt_stdio_output@@@2@@__crt_stdio_output@@AAE_NXZ 0043ccc0 f i libucrtd:output.obj
 0001:0003bce0       ?state_case_dot@?$output_processor@DV?$stream_output_adapter@D@__crt_stdio_output@@V?$standard_base@DV?$stream_output_adapter@D@__crt_stdio_output@@@2@@__crt_stdio_output@@AAE_NXZ 0043cce0 f i libucrtd:output.obj
 0001:0003bd00       ?state_case_dot@?$output_processor@DV?$string_output_adapter@D@__crt_stdio_output@@V?$format_validation_base@DV?$string_output_adapter@D@__crt_stdio_output@@@2@@__crt_stdio_output@@AAE_NXZ 0043cd00 f i libucrtd:output.obj
 0001:0003bd20       ?state_case_dot@?$output_processor@DV?$string_output_adapter@D@__crt_stdio_output@@V?$positional_parameter_base@DV?$string_output_adapter@D@__crt_stdio_output@@@2@@__crt_stdio_output@@AAE_NXZ 0043cd20 f i libucrtd:output.obj
 0001:0003bd40       ?state_case_dot@?$output_processor@DV?$string_output_adapter@D@__crt_stdio_output@@V?$standard_base@DV?$string_output_adapter@D@__crt_stdio_output@@@2@@__crt_stdio_output@@AAE_NXZ 0043cd40 f i libucrtd:output.obj
 0001:0003bd60       ?state_case_dot@?$output_processor@_WV?$stream_output_adapter@_W@__crt_stdio_output@@V?$format_validation_base@_WV?$stream_output_adapter@_W@__crt_stdio_output@@@2@@__crt_stdio_output@@AAE_NXZ 0043cd60 f i libucrtd:output.obj
 0001:0003bd80       ?state_case_dot@?$output_processor@_WV?$stream_output_adapter@_W@__crt_stdio_output@@V?$positional_parameter_base@_WV?$stream_output_adapter@_W@__crt_stdio_output@@@2@@__crt_stdio_output@@AAE_NXZ 0043cd80 f i libucrtd:output.obj
 0001:0003bda0       ?state_case_dot@?$output_processor@_WV?$stream_output_adapter@_W@__crt_stdio_output@@V?$standard_base@_WV?$stream_output_adapter@_W@__crt_stdio_output@@@2@@__crt_stdio_output@@AAE_NXZ 0043cda0 f i libucrtd:output.obj
 0001:0003bdc0       ?state_case_dot@?$output_processor@_WV?$string_output_adapter@_W@__crt_stdio_output@@V?$format_validation_base@_WV?$string_output_adapter@_W@__crt_stdio_output@@@2@@__crt_stdio_output@@AAE_NXZ 0043cdc0 f i libucrtd:output.obj
 0001:0003bde0       ?state_case_dot@?$output_processor@_WV?$string_output_adapter@_W@__crt_stdio_output@@V?$positional_parameter_base@_WV?$string_output_adapter@_W@__crt_stdio_output@@@2@@__crt_stdio_output@@AAE_NXZ 0043cde0 f i libucrtd:output.obj
 0001:0003be00       ?state_case_dot@?$output_processor@_WV?$string_output_adapter@_W@__crt_stdio_output@@V?$standard_base@_WV?$string_output_adapter@_W@__crt_stdio_output@@@2@@__crt_stdio_output@@AAE_NXZ 0043ce00 f i libucrtd:output.obj
 0001:0003be20       ?state_case_flag@?$output_processor@DV?$stream_output_adapter@D@__crt_stdio_output@@V?$format_validation_base@DV?$stream_output_adapter@D@__crt_stdio_output@@@2@@__crt_stdio_output@@AAE_NXZ 0043ce20 f i libucrtd:output.obj
 0001:0003bef0       ?state_case_flag@?$output_processor@DV?$stream_output_adapter@D@__crt_stdio_output@@V?$positional_parameter_base@DV?$stream_output_adapter@D@__crt_stdio_output@@@2@@__crt_stdio_output@@AAE_NXZ 0043cef0 f i libucrtd:output.obj
 0001:0003bfc0       ?state_case_flag@?$output_processor@DV?$stream_output_adapter@D@__crt_stdio_output@@V?$standard_base@DV?$stream_output_adapter@D@__crt_stdio_output@@@2@@__crt_stdio_output@@AAE_NXZ 0043cfc0 f i libucrtd:output.obj
 0001:0003c090       ?state_case_flag@?$output_processor@DV?$string_output_adapter@D@__crt_stdio_output@@V?$format_validation_base@DV?$string_output_adapter@D@__crt_stdio_output@@@2@@__crt_stdio_output@@AAE_NXZ 0043d090 f i libucrtd:output.obj
 0001:0003c160       ?state_case_flag@?$output_processor@DV?$string_output_adapter@D@__crt_stdio_output@@V?$positional_parameter_base@DV?$string_output_adapter@D@__crt_stdio_output@@@2@@__crt_stdio_output@@AAE_NXZ 0043d160 f i libucrtd:output.obj
 0001:0003c230       ?state_case_flag@?$output_processor@DV?$string_output_adapter@D@__crt_stdio_output@@V?$standard_base@DV?$string_output_adapter@D@__crt_stdio_output@@@2@@__crt_stdio_output@@AAE_NXZ 0043d230 f i libucrtd:output.obj
 0001:0003c300       ?state_case_flag@?$output_processor@_WV?$stream_output_adapter@_W@__crt_stdio_output@@V?$format_validation_base@_WV?$stream_output_adapter@_W@__crt_stdio_output@@@2@@__crt_stdio_output@@AAE_NXZ 0043d300 f i libucrtd:output.obj
 0001:0003c3d0       ?state_case_flag@?$output_processor@_WV?$stream_output_adapter@_W@__crt_stdio_output@@V?$positional_parameter_base@_WV?$stream_output_adapter@_W@__crt_stdio_output@@@2@@__crt_stdio_output@@AAE_NXZ 0043d3d0 f i libucrtd:output.obj
 0001:0003c4a0       ?state_case_flag@?$output_processor@_WV?$stream_output_adapter@_W@__crt_stdio_output@@V?$standard_base@_WV?$stream_output_adapter@_W@__crt_stdio_output@@@2@@__crt_stdio_output@@AAE_NXZ 0043d4a0 f i libucrtd:output.obj
 0001:0003c570       ?state_case_flag@?$output_processor@_WV?$string_output_adapter@_W@__crt_stdio_output@@V?$format_validation_base@_WV?$string_output_adapter@_W@__crt_stdio_output@@@2@@__crt_stdio_output@@AAE_NXZ 0043d570 f i libucrtd:output.obj
 0001:0003c640       ?state_case_flag@?$output_processor@_WV?$string_output_adapter@_W@__crt_stdio_output@@V?$positional_parameter_base@_WV?$string_output_adapter@_W@__crt_stdio_output@@@2@@__crt_stdio_output@@AAE_NXZ 0043d640 f i libucrtd:output.obj
 0001:0003c710       ?state_case_flag@?$output_processor@_WV?$string_output_adapter@_W@__crt_stdio_output@@V?$standard_base@_WV?$string_output_adapter@_W@__crt_stdio_output@@@2@@__crt_stdio_output@@AAE_NXZ 0043d710 f i libucrtd:output.obj
 0001:0003c7e0       ?state_case_normal@?$output_processor@DV?$stream_output_adapter@D@__crt_stdio_output@@V?$format_validation_base@DV?$stream_output_adapter@D@__crt_stdio_output@@@2@@__crt_stdio_output@@AAE_NXZ 0043d7e0 f i libucrtd:output.obj
 0001:0003c8c0       ?state_case_normal@?$output_processor@DV?$stream_output_adapter@D@__crt_stdio_output@@V?$positional_parameter_base@DV?$stream_output_adapter@D@__crt_stdio_output@@@2@@__crt_stdio_output@@AAE_NXZ 0043d8c0 f i libucrtd:output.obj
 0001:0003c9a0       ?state_case_normal@?$output_processor@DV?$stream_output_adapter@D@__crt_stdio_output@@V?$standard_base@DV?$stream_output_adapter@D@__crt_stdio_output@@@2@@__crt_stdio_output@@AAE_NXZ 0043d9a0 f i libucrtd:output.obj
 0001:0003ca80       ?state_case_normal@?$output_processor@DV?$string_output_adapter@D@__crt_stdio_output@@V?$format_validation_base@DV?$string_output_adapter@D@__crt_stdio_output@@@2@@__crt_stdio_output@@AAE_NXZ 0043da80 f i libucrtd:output.obj
 0001:0003cb60       ?state_case_normal@?$output_processor@DV?$string_output_adapter@D@__crt_stdio_output@@V?$positional_parameter_base@DV?$string_output_adapter@D@__crt_stdio_output@@@2@@__crt_stdio_output@@AAE_NXZ 0043db60 f i libucrtd:output.obj
 0001:0003cc40       ?state_case_normal@?$output_processor@DV?$string_output_adapter@D@__crt_stdio_output@@V?$standard_base@DV?$string_output_adapter@D@__crt_stdio_output@@@2@@__crt_stdio_output@@AAE_NXZ 0043dc40 f i libucrtd:output.obj
 0001:0003cd20       ?state_case_normal@?$output_processor@_WV?$stream_output_adapter@_W@__crt_stdio_output@@V?$format_validation_base@_WV?$stream_output_adapter@_W@__crt_stdio_output@@@2@@__crt_stdio_output@@AAE_NXZ 0043dd20 f i libucrtd:output.obj
 0001:0003ce00       ?state_case_normal@?$output_processor@_WV?$stream_output_adapter@_W@__crt_stdio_output@@V?$positional_parameter_base@_WV?$stream_output_adapter@_W@__crt_stdio_output@@@2@@__crt_stdio_output@@AAE_NXZ 0043de00 f i libucrtd:output.obj
 0001:0003cee0       ?state_case_normal@?$output_processor@_WV?$stream_output_adapter@_W@__crt_stdio_output@@V?$standard_base@_WV?$stream_output_adapter@_W@__crt_stdio_output@@@2@@__crt_stdio_output@@AAE_NXZ 0043dee0 f i libucrtd:output.obj
 0001:0003cfc0       ?state_case_normal@?$output_processor@_WV?$string_output_adapter@_W@__crt_stdio_output@@V?$format_validation_base@_WV?$string_output_adapter@_W@__crt_stdio_output@@@2@@__crt_stdio_output@@AAE_NXZ 0043dfc0 f i libucrtd:output.obj
 0001:0003d0a0       ?state_case_normal@?$output_processor@_WV?$string_output_adapter@_W@__crt_stdio_output@@V?$positional_parameter_base@_WV?$string_output_adapter@_W@__crt_stdio_output@@@2@@__crt_stdio_output@@AAE_NXZ 0043e0a0 f i libucrtd:output.obj
 0001:0003d180       ?state_case_normal@?$output_processor@_WV?$string_output_adapter@_W@__crt_stdio_output@@V?$standard_base@_WV?$string_output_adapter@_W@__crt_stdio_output@@@2@@__crt_stdio_output@@AAE_NXZ 0043e180 f i libucrtd:output.obj
 0001:0003d260       ?state_case_normal_common@?$output_processor@DV?$stream_output_adapter@D@__crt_stdio_output@@V?$format_validation_base@DV?$stream_output_adapter@D@__crt_stdio_output@@@2@@__crt_stdio_output@@AAE_NXZ 0043e260 f i libucrtd:output.obj
 0001:0003d2c0       ?state_case_normal_common@?$output_processor@DV?$stream_output_adapter@D@__crt_stdio_output@@V?$positional_parameter_base@DV?$stream_output_adapter@D@__crt_stdio_output@@@2@@__crt_stdio_output@@AAE_NXZ 0043e2c0 f i libucrtd:output.obj
 0001:0003d320       ?state_case_normal_common@?$output_processor@DV?$stream_output_adapter@D@__crt_stdio_output@@V?$standard_base@DV?$stream_output_adapter@D@__crt_stdio_output@@@2@@__crt_stdio_output@@AAE_NXZ 0043e320 f i libucrtd:output.obj
 0001:0003d380       ?state_case_normal_common@?$output_processor@DV?$string_output_adapter@D@__crt_stdio_output@@V?$format_validation_base@DV?$string_output_adapter@D@__crt_stdio_output@@@2@@__crt_stdio_output@@AAE_NXZ 0043e380 f i libucrtd:output.obj
 0001:0003d3e0       ?state_case_normal_common@?$output_processor@DV?$string_output_adapter@D@__crt_stdio_output@@V?$positional_parameter_base@DV?$string_output_adapter@D@__crt_stdio_output@@@2@@__crt_stdio_output@@AAE_NXZ 0043e3e0 f i libucrtd:output.obj
 0001:0003d440       ?state_case_normal_common@?$output_processor@DV?$string_output_adapter@D@__crt_stdio_output@@V?$standard_base@DV?$string_output_adapter@D@__crt_stdio_output@@@2@@__crt_stdio_output@@AAE_NXZ 0043e440 f i libucrtd:output.obj
 0001:0003d4a0       ?state_case_normal_common@?$output_processor@_WV?$stream_output_adapter@_W@__crt_stdio_output@@V?$format_validation_base@_WV?$stream_output_adapter@_W@__crt_stdio_output@@@2@@__crt_stdio_output@@AAE_NXZ 0043e4a0 f i libucrtd:output.obj
 0001:0003d500       ?state_case_normal_common@?$output_processor@_WV?$stream_output_adapter@_W@__crt_stdio_output@@V?$positional_parameter_base@_WV?$stream_output_adapter@_W@__crt_stdio_output@@@2@@__crt_stdio_output@@AAE_NXZ 0043e500 f i libucrtd:output.obj
 0001:0003d560       ?state_case_normal_common@?$output_processor@_WV?$stream_output_adapter@_W@__crt_stdio_output@@V?$standard_base@_WV?$stream_output_adapter@_W@__crt_stdio_output@@@2@@__crt_stdio_output@@AAE_NXZ 0043e560 f i libucrtd:output.obj
 0001:0003d5c0       ?state_case_normal_common@?$output_processor@_WV?$string_output_adapter@_W@__crt_stdio_output@@V?$format_validation_base@_WV?$string_output_adapter@_W@__crt_stdio_output@@@2@@__crt_stdio_output@@AAE_NXZ 0043e5c0 f i libucrtd:output.obj
 0001:0003d620       ?state_case_normal_common@?$output_processor@_WV?$string_output_adapter@_W@__crt_stdio_output@@V?$positional_parameter_base@_WV?$string_output_adapter@_W@__crt_stdio_output@@@2@@__crt_stdio_output@@AAE_NXZ 0043e620 f i libucrtd:output.obj
 0001:0003d680       ?state_case_normal_common@?$output_processor@_WV?$string_output_adapter@_W@__crt_stdio_output@@V?$standard_base@_WV?$string_output_adapter@_W@__crt_stdio_output@@@2@@__crt_stdio_output@@AAE_NXZ 0043e680 f i libucrtd:output.obj
 0001:0003d6e0       ?state_case_normal_tchar@?$output_processor@DV?$stream_output_adapter@D@__crt_stdio_output@@V?$format_validation_base@DV?$stream_output_adapter@D@__crt_stdio_output@@@2@@__crt_stdio_output@@AAE_ND@Z 0043e6e0 f i libucrtd:output.obj
 0001:0003d810       ?state_case_normal_tchar@?$output_processor@DV?$stream_output_adapter@D@__crt_stdio_output@@V?$positional_parameter_base@DV?$stream_output_adapter@D@__crt_stdio_output@@@2@@__crt_stdio_output@@AAE_ND@Z 0043e810 f i libucrtd:output.obj
 0001:0003d940       ?state_case_normal_tchar@?$output_processor@DV?$stream_output_adapter@D@__crt_stdio_output@@V?$standard_base@DV?$stream_output_adapter@D@__crt_stdio_output@@@2@@__crt_stdio_output@@AAE_ND@Z 0043e940 f i libucrtd:output.obj
 0001:0003da70       ?state_case_normal_tchar@?$output_processor@DV?$string_output_adapter@D@__crt_stdio_output@@V?$format_validation_base@DV?$string_output_adapter@D@__crt_stdio_output@@@2@@__crt_stdio_output@@AAE_ND@Z 0043ea70 f i libucrtd:output.obj
 0001:0003dba0       ?state_case_normal_tchar@?$output_processor@DV?$string_output_adapter@D@__crt_stdio_output@@V?$positional_parameter_base@DV?$string_output_adapter@D@__crt_stdio_output@@@2@@__crt_stdio_output@@AAE_ND@Z 0043eba0 f i libucrtd:output.obj
 0001:0003dcd0       ?state_case_normal_tchar@?$output_processor@DV?$string_output_adapter@D@__crt_stdio_output@@V?$standard_base@DV?$string_output_adapter@D@__crt_stdio_output@@@2@@__crt_stdio_output@@AAE_ND@Z 0043ecd0 f i libucrtd:output.obj
 0001:0003de00       ?state_case_normal_tchar@?$output_processor@_WV?$stream_output_adapter@_W@__crt_stdio_output@@V?$format_validation_base@_WV?$stream_output_adapter@_W@__crt_stdio_output@@@2@@__crt_stdio_output@@AAE_N_W@Z 0043ee00 f i libucrtd:output.obj
 0001:0003de20       ?state_case_normal_tchar@?$output_processor@_WV?$stream_output_adapter@_W@__crt_stdio_output@@V?$positional_parameter_base@_WV?$stream_output_adapter@_W@__crt_stdio_output@@@2@@__crt_stdio_output@@AAE_N_W@Z 0043ee20 f i libucrtd:output.obj
 0001:0003de40       ?state_case_normal_tchar@?$output_processor@_WV?$stream_output_adapter@_W@__crt_stdio_output@@V?$standard_base@_WV?$stream_output_adapter@_W@__crt_stdio_output@@@2@@__crt_stdio_output@@AAE_N_W@Z 0043ee40 f i libucrtd:output.obj
 0001:0003de60       ?state_case_normal_tchar@?$output_processor@_WV?$string_output_adapter@_W@__crt_stdio_output@@V?$format_validation_base@_WV?$string_output_adapter@_W@__crt_stdio_output@@@2@@__crt_stdio_output@@AAE_N_W@Z 0043ee60 f i libucrtd:output.obj
 0001:0003de80       ?state_case_normal_tchar@?$output_processor@_WV?$string_output_adapter@_W@__crt_stdio_output@@V?$positional_parameter_base@_WV?$string_output_adapter@_W@__crt_stdio_output@@@2@@__crt_stdio_output@@AAE_N_W@Z 0043ee80 f i libucrtd:output.obj
 0001:0003dea0       ?state_case_normal_tchar@?$output_processor@_WV?$string_output_adapter@_W@__crt_stdio_output@@V?$standard_base@_WV?$string_output_adapter@_W@__crt_stdio_output@@@2@@__crt_stdio_output@@AAE_N_W@Z 0043eea0 f i libucrtd:output.obj
 0001:0003dec0       ?state_case_percent@?$output_processor@DV?$stream_output_adapter@D@__crt_stdio_output@@V?$format_validation_base@DV?$stream_output_adapter@D@__crt_stdio_output@@@2@@__crt_stdio_output@@AAE_NXZ 0043eec0 f i libucrtd:output.obj
 0001:0003df20       ?state_case_percent@?$output_processor@DV?$stream_output_adapter@D@__crt_stdio_output@@V?$positional_parameter_base@DV?$stream_output_adapter@D@__crt_stdio_output@@@2@@__crt_stdio_output@@AAE_NXZ 0043ef20 f i libucrtd:output.obj
 0001:0003df80       ?state_case_percent@?$output_processor@DV?$stream_output_adapter@D@__crt_stdio_output@@V?$standard_base@DV?$stream_output_adapter@D@__crt_stdio_output@@@2@@__crt_stdio_output@@AAE_NXZ 0043ef80 f i libucrtd:output.obj
 0001:0003dfe0       ?state_case_percent@?$output_processor@DV?$string_output_adapter@D@__crt_stdio_output@@V?$format_validation_base@DV?$string_output_adapter@D@__crt_stdio_output@@@2@@__crt_stdio_output@@AAE_NXZ 0043efe0 f i libucrtd:output.obj
 0001:0003e040       ?state_case_percent@?$output_processor@DV?$string_output_adapter@D@__crt_stdio_output@@V?$positional_parameter_base@DV?$string_output_adapter@D@__crt_stdio_output@@@2@@__crt_stdio_output@@AAE_NXZ 0043f040 f i libucrtd:output.obj
 0001:0003e0a0       ?state_case_percent@?$output_processor@DV?$string_output_adapter@D@__crt_stdio_output@@V?$standard_base@DV?$string_output_adapter@D@__crt_stdio_output@@@2@@__crt_stdio_output@@AAE_NXZ 0043f0a0 f i libucrtd:output.obj
 0001:0003e100       ?state_case_percent@?$output_processor@_WV?$stream_output_adapter@_W@__crt_stdio_output@@V?$format_validation_base@_WV?$stream_output_adapter@_W@__crt_stdio_output@@@2@@__crt_stdio_output@@AAE_NXZ 0043f100 f i libucrtd:output.obj
 0001:0003e160       ?state_case_percent@?$output_processor@_WV?$stream_output_adapter@_W@__crt_stdio_output@@V?$positional_parameter_base@_WV?$stream_output_adapter@_W@__crt_stdio_output@@@2@@__crt_stdio_output@@AAE_NXZ 0043f160 f i libucrtd:output.obj
 0001:0003e1c0       ?state_case_percent@?$output_processor@_WV?$stream_output_adapter@_W@__crt_stdio_output@@V?$standard_base@_WV?$stream_output_adapter@_W@__crt_stdio_output@@@2@@__crt_stdio_output@@AAE_NXZ 0043f1c0 f i libucrtd:output.obj
 0001:0003e220       ?state_case_percent@?$output_processor@_WV?$string_output_adapter@_W@__crt_stdio_output@@V?$format_validation_base@_WV?$string_output_adapter@_W@__crt_stdio_output@@@2@@__crt_stdio_output@@AAE_NXZ 0043f220 f i libucrtd:output.obj
 0001:0003e280       ?state_case_percent@?$output_processor@_WV?$string_output_adapter@_W@__crt_stdio_output@@V?$positional_parameter_base@_WV?$string_output_adapter@_W@__crt_stdio_output@@@2@@__crt_stdio_output@@AAE_NXZ 0043f280 f i libucrtd:output.obj
 0001:0003e2e0       ?state_case_percent@?$output_processor@_WV?$string_output_adapter@_W@__crt_stdio_output@@V?$standard_base@_WV?$string_output_adapter@_W@__crt_stdio_output@@@2@@__crt_stdio_output@@AAE_NXZ 0043f2e0 f i libucrtd:output.obj
 0001:0003e340       ?state_case_precision@?$output_processor@DV?$stream_output_adapter@D@__crt_stdio_output@@V?$format_validation_base@DV?$stream_output_adapter@D@__crt_stdio_output@@@2@@__crt_stdio_output@@AAE_NXZ 0043f340 f i libucrtd:output.obj
 0001:0003e3c0       ?state_case_precision@?$output_processor@DV?$stream_output_adapter@D@__crt_stdio_output@@V?$positional_parameter_base@DV?$stream_output_adapter@D@__crt_stdio_output@@@2@@__crt_stdio_output@@AAE_NXZ 0043f3c0 f i libucrtd:output.obj
 0001:0003e440       ?state_case_precision@?$output_processor@DV?$stream_output_adapter@D@__crt_stdio_output@@V?$standard_base@DV?$stream_output_adapter@D@__crt_stdio_output@@@2@@__crt_stdio_output@@AAE_NXZ 0043f440 f i libucrtd:output.obj
 0001:0003e4c0       ?state_case_precision@?$output_processor@DV?$string_output_adapter@D@__crt_stdio_output@@V?$format_validation_base@DV?$string_output_adapter@D@__crt_stdio_output@@@2@@__crt_stdio_output@@AAE_NXZ 0043f4c0 f i libucrtd:output.obj
 0001:0003e540       ?state_case_precision@?$output_processor@DV?$string_output_adapter@D@__crt_stdio_output@@V?$positional_parameter_base@DV?$string_output_adapter@D@__crt_stdio_output@@@2@@__crt_stdio_output@@AAE_NXZ 0043f540 f i libucrtd:output.obj
 0001:0003e5c0       ?state_case_precision@?$output_processor@DV?$string_output_adapter@D@__crt_stdio_output@@V?$standard_base@DV?$string_output_adapter@D@__crt_stdio_output@@@2@@__crt_stdio_output@@AAE_NXZ 0043f5c0 f i libucrtd:output.obj
 0001:0003e640       ?state_case_precision@?$output_processor@_WV?$stream_output_adapter@_W@__crt_stdio_output@@V?$format_validation_base@_WV?$stream_output_adapter@_W@__crt_stdio_output@@@2@@__crt_stdio_output@@AAE_NXZ 0043f640 f i libucrtd:output.obj
 0001:0003e6c0       ?state_case_precision@?$output_processor@_WV?$stream_output_adapter@_W@__crt_stdio_output@@V?$positional_parameter_base@_WV?$stream_output_adapter@_W@__crt_stdio_output@@@2@@__crt_stdio_output@@AAE_NXZ 0043f6c0 f i libucrtd:output.obj
 0001:0003e740       ?state_case_precision@?$output_processor@_WV?$stream_output_adapter@_W@__crt_stdio_output@@V?$standard_base@_WV?$stream_output_adapter@_W@__crt_stdio_output@@@2@@__crt_stdio_output@@AAE_NXZ 0043f740 f i libucrtd:output.obj
 0001:0003e7c0       ?state_case_precision@?$output_processor@_WV?$string_output_adapter@_W@__crt_stdio_output@@V?$format_validation_base@_WV?$string_output_adapter@_W@__crt_stdio_output@@@2@@__crt_stdio_output@@AAE_NXZ 0043f7c0 f i libucrtd:output.obj
 0001:0003e840       ?state_case_precision@?$output_processor@_WV?$string_output_adapter@_W@__crt_stdio_output@@V?$positional_parameter_base@_WV?$string_output_adapter@_W@__crt_stdio_output@@@2@@__crt_stdio_output@@AAE_NXZ 0043f840 f i libucrtd:output.obj
 0001:0003e8c0       ?state_case_precision@?$output_processor@_WV?$string_output_adapter@_W@__crt_stdio_output@@V?$standard_base@_WV?$string_output_adapter@_W@__crt_stdio_output@@@2@@__crt_stdio_output@@AAE_NXZ 0043f8c0 f i libucrtd:output.obj
 0001:0003e940       ?state_case_size@?$output_processor@DV?$stream_output_adapter@D@__crt_stdio_output@@V?$format_validation_base@DV?$stream_output_adapter@D@__crt_stdio_output@@@2@@__crt_stdio_output@@AAE_NXZ 0043f940 f i libucrtd:output.obj
 0001:0003ee00       ?state_case_size@?$output_processor@DV?$stream_output_adapter@D@__crt_stdio_output@@V?$positional_parameter_base@DV?$stream_output_adapter@D@__crt_stdio_output@@@2@@__crt_stdio_output@@AAE_NXZ 0043fe00 f i libucrtd:output.obj
 0001:0003f2c0       ?state_case_size@?$output_processor@DV?$stream_output_adapter@D@__crt_stdio_output@@V?$standard_base@DV?$stream_output_adapter@D@__crt_stdio_output@@@2@@__crt_stdio_output@@AAE_NXZ 004402c0 f i libucrtd:output.obj
 0001:0003f780       ?state_case_size@?$output_processor@DV?$string_output_adapter@D@__crt_stdio_output@@V?$format_validation_base@DV?$string_output_adapter@D@__crt_stdio_output@@@2@@__crt_stdio_output@@AAE_NXZ 00440780 f i libucrtd:output.obj
 0001:0003fc40       ?state_case_size@?$output_processor@DV?$string_output_adapter@D@__crt_stdio_output@@V?$positional_parameter_base@DV?$string_output_adapter@D@__crt_stdio_output@@@2@@__crt_stdio_output@@AAE_NXZ 00440c40 f i libucrtd:output.obj
 0001:00040100       ?state_case_size@?$output_processor@DV?$string_output_adapter@D@__crt_stdio_output@@V?$standard_base@DV?$string_output_adapter@D@__crt_stdio_output@@@2@@__crt_stdio_output@@AAE_NXZ 00441100 f i libucrtd:output.obj
 0001:000405c0       ?state_case_size@?$output_processor@_WV?$stream_output_adapter@_W@__crt_stdio_output@@V?$format_validation_base@_WV?$stream_output_adapter@_W@__crt_stdio_output@@@2@@__crt_stdio_output@@AAE_NXZ 004415c0 f i libucrtd:output.obj
 0001:00040a80       ?state_case_size@?$output_processor@_WV?$stream_output_adapter@_W@__crt_stdio_output@@V?$positional_parameter_base@_WV?$stream_output_adapter@_W@__crt_stdio_output@@@2@@__crt_stdio_output@@AAE_NXZ 00441a80 f i libucrtd:output.obj
 0001:00040f40       ?state_case_size@?$output_processor@_WV?$stream_output_adapter@_W@__crt_stdio_output@@V?$standard_base@_WV?$stream_output_adapter@_W@__crt_stdio_output@@@2@@__crt_stdio_output@@AAE_NXZ 00441f40 f i libucrtd:output.obj
 0001:00041400       ?state_case_size@?$output_processor@_WV?$string_output_adapter@_W@__crt_stdio_output@@V?$format_validation_base@_WV?$string_output_adapter@_W@__crt_stdio_output@@@2@@__crt_stdio_output@@AAE_NXZ 00442400 f i libucrtd:output.obj
 0001:000418c0       ?state_case_size@?$output_processor@_WV?$string_output_adapter@_W@__crt_stdio_output@@V?$positional_parameter_base@_WV?$string_output_adapter@_W@__crt_stdio_output@@@2@@__crt_stdio_output@@AAE_NXZ 004428c0 f i libucrtd:output.obj
 0001:00041d80       ?state_case_size@?$output_processor@_WV?$string_output_adapter@_W@__crt_stdio_output@@V?$standard_base@_WV?$string_output_adapter@_W@__crt_stdio_output@@@2@@__crt_stdio_output@@AAE_NXZ 00442d80 f i libucrtd:output.obj
 0001:00042240       ?state_case_type@?$output_processor@DV?$stream_output_adapter@D@__crt_stdio_output@@V?$format_validation_base@DV?$stream_output_adapter@D@__crt_stdio_output@@@2@@__crt_stdio_output@@AAE_NXZ 00443240 f i libucrtd:output.obj
 0001:000426e0       ?state_case_type@?$output_processor@DV?$stream_output_adapter@D@__crt_stdio_output@@V?$positional_parameter_base@DV?$stream_output_adapter@D@__crt_stdio_output@@@2@@__crt_stdio_output@@AAE_NXZ 004436e0 f i libucrtd:output.obj
 0001:00042b80       ?state_case_type@?$output_processor@DV?$stream_output_adapter@D@__crt_stdio_output@@V?$standard_base@DV?$stream_output_adapter@D@__crt_stdio_output@@@2@@__crt_stdio_output@@AAE_NXZ 00443b80 f i libucrtd:output.obj
 0001:00043020       ?state_case_type@?$output_processor@DV?$string_output_adapter@D@__crt_stdio_output@@V?$format_validation_base@DV?$string_output_adapter@D@__crt_stdio_output@@@2@@__crt_stdio_output@@AAE_NXZ 00444020 f i libucrtd:output.obj
 0001:000434c0       ?state_case_type@?$output_processor@DV?$string_output_adapter@D@__crt_stdio_output@@V?$positional_parameter_base@DV?$string_output_adapter@D@__crt_stdio_output@@@2@@__crt_stdio_output@@AAE_NXZ 004444c0 f i libucrtd:output.obj
 0001:00043960       ?state_case_type@?$output_processor@DV?$string_output_adapter@D@__crt_stdio_output@@V?$standard_base@DV?$string_output_adapter@D@__crt_stdio_output@@@2@@__crt_stdio_output@@AAE_NXZ 00444960 f i libucrtd:output.obj
 0001:00043e00       ?state_case_type@?$output_processor@_WV?$stream_output_adapter@_W@__crt_stdio_output@@V?$format_validation_base@_WV?$stream_output_adapter@_W@__crt_stdio_output@@@2@@__crt_stdio_output@@AAE_NXZ 00444e00 f i libucrtd:output.obj
 0001:000442d0       ?state_case_type@?$output_processor@_WV?$stream_output_adapter@_W@__crt_stdio_output@@V?$positional_parameter_base@_WV?$stream_output_adapter@_W@__crt_stdio_output@@@2@@__crt_stdio_output@@AAE_NXZ 004452d0 f i libucrtd:output.obj
 0001:000447a0       ?state_case_type@?$output_processor@_WV?$stream_output_adapter@_W@__crt_stdio_output@@V?$standard_base@_WV?$stream_output_adapter@_W@__crt_stdio_output@@@2@@__crt_stdio_output@@AAE_NXZ 004457a0 f i libucrtd:output.obj
 0001:00044c70       ?state_case_type@?$output_processor@_WV?$string_output_adapter@_W@__crt_stdio_output@@V?$format_validation_base@_WV?$string_output_adapter@_W@__crt_stdio_output@@@2@@__crt_stdio_output@@AAE_NXZ 00445c70 f i libucrtd:output.obj
 0001:00045140       ?state_case_type@?$output_processor@_WV?$string_output_adapter@_W@__crt_stdio_output@@V?$positional_parameter_base@_WV?$string_output_adapter@_W@__crt_stdio_output@@@2@@__crt_stdio_output@@AAE_NXZ 00446140 f i libucrtd:output.obj
 0001:00045610       ?state_case_type@?$output_processor@_WV?$string_output_adapter@_W@__crt_stdio_output@@V?$standard_base@_WV?$string_output_adapter@_W@__crt_stdio_output@@@2@@__crt_stdio_output@@AAE_NXZ 00446610 f i libucrtd:output.obj
 0001:00045ae0       ?state_case_width@?$output_processor@DV?$stream_output_adapter@D@__crt_stdio_output@@V?$format_validation_base@DV?$stream_output_adapter@D@__crt_stdio_output@@@2@@__crt_stdio_output@@AAE_NXZ 00446ae0 f i libucrtd:output.obj
 0001:00045b70       ?state_case_width@?$output_processor@DV?$stream_output_adapter@D@__crt_stdio_output@@V?$positional_parameter_base@DV?$stream_output_adapter@D@__crt_stdio_output@@@2@@__crt_stdio_output@@AAE_NXZ 00446b70 f i libucrtd:output.obj
 0001:00045c00       ?state_case_width@?$output_processor@DV?$stream_output_adapter@D@__crt_stdio_output@@V?$standard_base@DV?$stream_output_adapter@D@__crt_stdio_output@@@2@@__crt_stdio_output@@AAE_NXZ 00446c00 f i libucrtd:output.obj
 0001:00045c90       ?state_case_width@?$output_processor@DV?$string_output_adapter@D@__crt_stdio_output@@V?$format_validation_base@DV?$string_output_adapter@D@__crt_stdio_output@@@2@@__crt_stdio_output@@AAE_NXZ 00446c90 f i libucrtd:output.obj
 0001:00045d20       ?state_case_width@?$output_processor@DV?$string_output_adapter@D@__crt_stdio_output@@V?$positional_parameter_base@DV?$string_output_adapter@D@__crt_stdio_output@@@2@@__crt_stdio_output@@AAE_NXZ 00446d20 f i libucrtd:output.obj
 0001:00045db0       ?state_case_width@?$output_processor@DV?$string_output_adapter@D@__crt_stdio_output@@V?$standard_base@DV?$string_output_adapter@D@__crt_stdio_output@@@2@@__crt_stdio_output@@AAE_NXZ 00446db0 f i libucrtd:output.obj
 0001:00045e40       ?state_case_width@?$output_processor@_WV?$stream_output_adapter@_W@__crt_stdio_output@@V?$format_validation_base@_WV?$stream_output_adapter@_W@__crt_stdio_output@@@2@@__crt_stdio_output@@AAE_NXZ 00446e40 f i libucrtd:output.obj
 0001:00045ed0       ?state_case_width@?$output_processor@_WV?$stream_output_adapter@_W@__crt_stdio_output@@V?$positional_parameter_base@_WV?$stream_output_adapter@_W@__crt_stdio_output@@@2@@__crt_stdio_output@@AAE_NXZ 00446ed0 f i libucrtd:output.obj
 0001:00045f60       ?state_case_width@?$output_processor@_WV?$stream_output_adapter@_W@__crt_stdio_output@@V?$standard_base@_WV?$stream_output_adapter@_W@__crt_stdio_output@@@2@@__crt_stdio_output@@AAE_NXZ 00446f60 f i libucrtd:output.obj
 0001:00045ff0       ?state_case_width@?$output_processor@_WV?$string_output_adapter@_W@__crt_stdio_output@@V?$format_validation_base@_WV?$string_output_adapter@_W@__crt_stdio_output@@@2@@__crt_stdio_output@@AAE_NXZ 00446ff0 f i libucrtd:output.obj
 0001:00046080       ?state_case_width@?$output_processor@_WV?$string_output_adapter@_W@__crt_stdio_output@@V?$positional_parameter_base@_WV?$string_output_adapter@_W@__crt_stdio_output@@@2@@__crt_stdio_output@@AAE_NXZ 00447080 f i libucrtd:output.obj
 0001:00046110       ?state_case_width@?$output_processor@_WV?$string_output_adapter@_W@__crt_stdio_output@@V?$standard_base@_WV?$string_output_adapter@_W@__crt_stdio_output@@@2@@__crt_stdio_output@@AAE_NXZ 00447110 f i libucrtd:output.obj
 0001:000461a0       ?state_count@?$format_validation_base@DV?$stream_output_adapter@D@__crt_stdio_output@@@__crt_stdio_output@@KAIXZ 004471a0 f i libucrtd:output.obj
 0001:000461b0       ?state_count@?$format_validation_base@DV?$string_output_adapter@D@__crt_stdio_output@@@__crt_stdio_output@@KAIXZ 004471b0 f i libucrtd:output.obj
 0001:000461c0       ?state_count@?$format_validation_base@_WV?$stream_output_adapter@_W@__crt_stdio_output@@@__crt_stdio_output@@KAIXZ 004471c0 f i libucrtd:output.obj
 0001:000461d0       ?state_count@?$format_validation_base@_WV?$string_output_adapter@_W@__crt_stdio_output@@@__crt_stdio_output@@KAIXZ 004471d0 f i libucrtd:output.obj
 0001:000461e0       ?state_count@?$standard_base@DV?$stream_output_adapter@D@__crt_stdio_output@@@__crt_stdio_output@@KAIXZ 004471e0 f i libucrtd:output.obj
 0001:000461f0       ?state_count@?$standard_base@DV?$string_output_adapter@D@__crt_stdio_output@@@__crt_stdio_output@@KAIXZ 004471f0 f i libucrtd:output.obj
 0001:00046200       ?state_count@?$standard_base@_WV?$stream_output_adapter@_W@__crt_stdio_output@@@__crt_stdio_output@@KAIXZ 00447200 f i libucrtd:output.obj
 0001:00046210       ?state_count@?$standard_base@_WV?$string_output_adapter@_W@__crt_stdio_output@@@__crt_stdio_output@@KAIXZ 00447210 f i libucrtd:output.obj
 0001:00046220       ?state_transition_table@?$format_validation_base@DV?$stream_output_adapter@D@__crt_stdio_output@@@__crt_stdio_output@@KAPBEXZ 00447220 f i libucrtd:output.obj
 0001:00046230       ?state_transition_table@?$format_validation_base@DV?$string_output_adapter@D@__crt_stdio_output@@@__crt_stdio_output@@KAPBEXZ 00447230 f i libucrtd:output.obj
 0001:00046240       ?state_transition_table@?$format_validation_base@_WV?$stream_output_adapter@_W@__crt_stdio_output@@@__crt_stdio_output@@KAPBEXZ 00447240 f i libucrtd:output.obj
 0001:00046250       ?state_transition_table@?$format_validation_base@_WV?$string_output_adapter@_W@__crt_stdio_output@@@__crt_stdio_output@@KAPBEXZ 00447250 f i libucrtd:output.obj
 0001:00046260       ?state_transition_table@?$standard_base@DV?$stream_output_adapter@D@__crt_stdio_output@@@__crt_stdio_output@@KAPBEXZ 00447260 f i libucrtd:output.obj
 0001:00046270       ?state_transition_table@?$standard_base@DV?$string_output_adapter@D@__crt_stdio_output@@@__crt_stdio_output@@KAPBEXZ 00447270 f i libucrtd:output.obj
 0001:00046280       ?state_transition_table@?$standard_base@_WV?$stream_output_adapter@_W@__crt_stdio_output@@@__crt_stdio_output@@KAPBEXZ 00447280 f i libucrtd:output.obj
 0001:00046290       ?state_transition_table@?$standard_base@_WV?$string_output_adapter@_W@__crt_stdio_output@@@__crt_stdio_output@@KAPBEXZ 00447290 f i libucrtd:output.obj
 0001:000462a0       ?to_integer_size@__crt_stdio_output@@YAIW4length_modifier@1@@Z 004472a0 f i libucrtd:output.obj
 0001:00046370       ?type_case_X@?$output_processor@DV?$stream_output_adapter@D@__crt_stdio_output@@V?$format_validation_base@DV?$stream_output_adapter@D@__crt_stdio_output@@@2@@__crt_stdio_output@@AAE_NXZ 00447370 f i libucrtd:output.obj
 0001:00046390       ?type_case_X@?$output_processor@DV?$stream_output_adapter@D@__crt_stdio_output@@V?$positional_parameter_base@DV?$stream_output_adapter@D@__crt_stdio_output@@@2@@__crt_stdio_output@@AAE_NXZ 00447390 f i libucrtd:output.obj
 0001:000463b0       ?type_case_X@?$output_processor@DV?$stream_output_adapter@D@__crt_stdio_output@@V?$standard_base@DV?$stream_output_adapter@D@__crt_stdio_output@@@2@@__crt_stdio_output@@AAE_NXZ 004473b0 f i libucrtd:output.obj
 0001:000463d0       ?type_case_X@?$output_processor@DV?$string_output_adapter@D@__crt_stdio_output@@V?$format_validation_base@DV?$string_output_adapter@D@__crt_stdio_output@@@2@@__crt_stdio_output@@AAE_NXZ 004473d0 f i libucrtd:output.obj
 0001:000463f0       ?type_case_X@?$output_processor@DV?$string_output_adapter@D@__crt_stdio_output@@V?$positional_parameter_base@DV?$string_output_adapter@D@__crt_stdio_output@@@2@@__crt_stdio_output@@AAE_NXZ 004473f0 f i libucrtd:output.obj
 0001:00046410       ?type_case_X@?$output_processor@DV?$string_output_adapter@D@__crt_stdio_output@@V?$standard_base@DV?$string_output_adapter@D@__crt_stdio_output@@@2@@__crt_stdio_output@@AAE_NXZ 00447410 f i libucrtd:output.obj
 0001:00046430       ?type_case_X@?$output_processor@_WV?$stream_output_adapter@_W@__crt_stdio_output@@V?$format_validation_base@_WV?$stream_output_adapter@_W@__crt_stdio_output@@@2@@__crt_stdio_output@@AAE_NXZ 00447430 f i libucrtd:output.obj
 0001:00046450       ?type_case_X@?$output_processor@_WV?$stream_output_adapter@_W@__crt_stdio_output@@V?$positional_parameter_base@_WV?$stream_output_adapter@_W@__crt_stdio_output@@@2@@__crt_stdio_output@@AAE_NXZ 00447450 f i libucrtd:output.obj
 0001:00046470       ?type_case_X@?$output_processor@_WV?$stream_output_adapter@_W@__crt_stdio_output@@V?$standard_base@_WV?$stream_output_adapter@_W@__crt_stdio_output@@@2@@__crt_stdio_output@@AAE_NXZ 00447470 f i libucrtd:output.obj
 0001:00046490       ?type_case_X@?$output_processor@_WV?$string_output_adapter@_W@__crt_stdio_output@@V?$format_validation_base@_WV?$string_output_adapter@_W@__crt_stdio_output@@@2@@__crt_stdio_output@@AAE_NXZ 00447490 f i libucrtd:output.obj
 0001:000464b0       ?type_case_X@?$output_processor@_WV?$string_output_adapter@_W@__crt_stdio_output@@V?$positional_parameter_base@_WV?$string_output_adapter@_W@__crt_stdio_output@@@2@@__crt_stdio_output@@AAE_NXZ 004474b0 f i libucrtd:output.obj
 0001:000464d0       ?type_case_X@?$output_processor@_WV?$string_output_adapter@_W@__crt_stdio_output@@V?$standard_base@_WV?$string_output_adapter@_W@__crt_stdio_output@@@2@@__crt_stdio_output@@AAE_NXZ 004474d0 f i libucrtd:output.obj
 0001:000464f0       ?type_case_Z@?$output_processor@DV?$stream_output_adapter@D@__crt_stdio_output@@V?$format_validation_base@DV?$stream_output_adapter@D@__crt_stdio_output@@@2@@__crt_stdio_output@@AAE_NXZ 004474f0 f i libucrtd:output.obj
 0001:00046620       ?type_case_Z@?$output_processor@DV?$stream_output_adapter@D@__crt_stdio_output@@V?$positional_parameter_base@DV?$stream_output_adapter@D@__crt_stdio_output@@@2@@__crt_stdio_output@@AAE_NXZ 00447620 f i libucrtd:output.obj
 0001:00046750       ?type_case_Z@?$output_processor@DV?$stream_output_adapter@D@__crt_stdio_output@@V?$standard_base@DV?$stream_output_adapter@D@__crt_stdio_output@@@2@@__crt_stdio_output@@AAE_NXZ 00447750 f i libucrtd:output.obj
 0001:00046880       ?type_case_Z@?$output_processor@DV?$string_output_adapter@D@__crt_stdio_output@@V?$format_validation_base@DV?$string_output_adapter@D@__crt_stdio_output@@@2@@__crt_stdio_output@@AAE_NXZ 00447880 f i libucrtd:output.obj
 0001:000469b0       ?type_case_Z@?$output_processor@DV?$string_output_adapter@D@__crt_stdio_output@@V?$positional_parameter_base@DV?$string_output_adapter@D@__crt_stdio_output@@@2@@__crt_stdio_output@@AAE_NXZ 004479b0 f i libucrtd:output.obj
 0001:00046ae0       ?type_case_Z@?$output_processor@DV?$string_output_adapter@D@__crt_stdio_output@@V?$standard_base@DV?$string_output_adapter@D@__crt_stdio_output@@@2@@__crt_stdio_output@@AAE_NXZ 00447ae0 f i libucrtd:output.obj
 0001:00046c10       ?type_case_Z@?$output_processor@_WV?$stream_output_adapter@_W@__crt_stdio_output@@V?$format_validation_base@_WV?$stream_output_adapter@_W@__crt_stdio_output@@@2@@__crt_stdio_output@@AAE_NXZ 00447c10 f i libucrtd:output.obj
 0001:00046d40       ?type_case_Z@?$output_processor@_WV?$stream_output_adapter@_W@__crt_stdio_output@@V?$positional_parameter_base@_WV?$stream_output_adapter@_W@__crt_stdio_output@@@2@@__crt_stdio_output@@AAE_NXZ 00447d40 f i libucrtd:output.obj
 0001:00046e70       ?type_case_Z@?$output_processor@_WV?$stream_output_adapter@_W@__crt_stdio_output@@V?$standard_base@_WV?$stream_output_adapter@_W@__crt_stdio_output@@@2@@__crt_stdio_output@@AAE_NXZ 00447e70 f i libucrtd:output.obj
 0001:00046fa0       ?type_case_Z@?$output_processor@_WV?$string_output_adapter@_W@__crt_stdio_output@@V?$format_validation_base@_WV?$string_output_adapter@_W@__crt_stdio_output@@@2@@__crt_stdio_output@@AAE_NXZ 00447fa0 f i libucrtd:output.obj
 0001:000470d0       ?type_case_Z@?$output_processor@_WV?$string_output_adapter@_W@__crt_stdio_output@@V?$positional_parameter_base@_WV?$string_output_adapter@_W@__crt_stdio_output@@@2@@__crt_stdio_output@@AAE_NXZ 004480d0 f i libucrtd:output.obj
 0001:00047200       ?type_case_Z@?$output_processor@_WV?$string_output_adapter@_W@__crt_stdio_output@@V?$standard_base@_WV?$string_output_adapter@_W@__crt_stdio_output@@@2@@__crt_stdio_output@@AAE_NXZ 00448200 f i libucrtd:output.obj
 0001:00047330       ?type_case_a@?$output_processor@DV?$stream_output_adapter@D@__crt_stdio_output@@V?$format_validation_base@DV?$stream_output_adapter@D@__crt_stdio_output@@@2@@__crt_stdio_output@@AAE_NXZ 00448330 f i libucrtd:output.obj
 0001:00047620       ?type_case_a@?$output_processor@DV?$stream_output_adapter@D@__crt_stdio_output@@V?$positional_parameter_base@DV?$stream_output_adapter@D@__crt_stdio_output@@@2@@__crt_stdio_output@@AAE_NXZ 00448620 f i libucrtd:output.obj
 0001:00047910       ?type_case_a@?$output_processor@DV?$stream_output_adapter@D@__crt_stdio_output@@V?$standard_base@DV?$stream_output_adapter@D@__crt_stdio_output@@@2@@__crt_stdio_output@@AAE_NXZ 00448910 f i libucrtd:output.obj
 0001:00047c00       ?type_case_a@?$output_processor@DV?$string_output_adapter@D@__crt_stdio_output@@V?$format_validation_base@DV?$string_output_adapter@D@__crt_stdio_output@@@2@@__crt_stdio_output@@AAE_NXZ 00448c00 f i libucrtd:output.obj
 0001:00047ef0       ?type_case_a@?$output_processor@DV?$string_output_adapter@D@__crt_stdio_output@@V?$positional_parameter_base@DV?$string_output_adapter@D@__crt_stdio_output@@@2@@__crt_stdio_output@@AAE_NXZ 00448ef0 f i libucrtd:output.obj
 0001:000481e0       ?type_case_a@?$output_processor@DV?$string_output_adapter@D@__crt_stdio_output@@V?$standard_base@DV?$string_output_adapter@D@__crt_stdio_output@@@2@@__crt_stdio_output@@AAE_NXZ 004491e0 f i libucrtd:output.obj
 0001:000484d0       ?type_case_a@?$output_processor@_WV?$stream_output_adapter@_W@__crt_stdio_output@@V?$format_validation_base@_WV?$stream_output_adapter@_W@__crt_stdio_output@@@2@@__crt_stdio_output@@AAE_NXZ 004494d0 f i libucrtd:output.obj
 0001:000487d0       ?type_case_a@?$output_processor@_WV?$stream_output_adapter@_W@__crt_stdio_output@@V?$positional_parameter_base@_WV?$stream_output_adapter@_W@__crt_stdio_output@@@2@@__crt_stdio_output@@AAE_NXZ 004497d0 f i libucrtd:output.obj
 0001:00048ad0       ?type_case_a@?$output_processor@_WV?$stream_output_adapter@_W@__crt_stdio_output@@V?$standard_base@_WV?$stream_output_adapter@_W@__crt_stdio_output@@@2@@__crt_stdio_output@@AAE_NXZ 00449ad0 f i libucrtd:output.obj
 0001:00048dd0       ?type_case_a@?$output_processor@_WV?$string_output_adapter@_W@__crt_stdio_output@@V?$format_validation_base@_WV?$string_output_adapter@_W@__crt_stdio_output@@@2@@__crt_stdio_output@@AAE_NXZ 00449dd0 f i libucrtd:output.obj
 0001:000490d0       ?type_case_a@?$output_processor@_WV?$string_output_adapter@_W@__crt_stdio_output@@V?$positional_parameter_base@_WV?$string_output_adapter@_W@__crt_stdio_output@@@2@@__crt_stdio_output@@AAE_NXZ 0044a0d0 f i libucrtd:output.obj
 0001:000493d0       ?type_case_a@?$output_processor@_WV?$string_output_adapter@_W@__crt_stdio_output@@V?$standard_base@_WV?$string_output_adapter@_W@__crt_stdio_output@@@2@@__crt_stdio_output@@AAE_NXZ 0044a3d0 f i libucrtd:output.obj
 0001:000496d0       ?type_case_c@?$output_processor@DV?$stream_output_adapter@D@__crt_stdio_output@@V?$format_validation_base@DV?$stream_output_adapter@D@__crt_stdio_output@@@2@@__crt_stdio_output@@AAE_NXZ 0044a6d0 f i libucrtd:output.obj
 0001:000496f0       ?type_case_c@?$output_processor@DV?$stream_output_adapter@D@__crt_stdio_output@@V?$positional_parameter_base@DV?$stream_output_adapter@D@__crt_stdio_output@@@2@@__crt_stdio_output@@AAE_NXZ 0044a6f0 f i libucrtd:output.obj
 0001:00049710       ?type_case_c@?$output_processor@DV?$stream_output_adapter@D@__crt_stdio_output@@V?$standard_base@DV?$stream_output_adapter@D@__crt_stdio_output@@@2@@__crt_stdio_output@@AAE_NXZ 0044a710 f i libucrtd:output.obj
 0001:00049730       ?type_case_c@?$output_processor@DV?$string_output_adapter@D@__crt_stdio_output@@V?$format_validation_base@DV?$string_output_adapter@D@__crt_stdio_output@@@2@@__crt_stdio_output@@AAE_NXZ 0044a730 f i libucrtd:output.obj
 0001:00049750       ?type_case_c@?$output_processor@DV?$string_output_adapter@D@__crt_stdio_output@@V?$positional_parameter_base@DV?$string_output_adapter@D@__crt_stdio_output@@@2@@__crt_stdio_output@@AAE_NXZ 0044a750 f i libucrtd:output.obj
 0001:00049770       ?type_case_c@?$output_processor@DV?$string_output_adapter@D@__crt_stdio_output@@V?$standard_base@DV?$string_output_adapter@D@__crt_stdio_output@@@2@@__crt_stdio_output@@AAE_NXZ 0044a770 f i libucrtd:output.obj
 0001:00049790       ?type_case_c@?$output_processor@_WV?$stream_output_adapter@_W@__crt_stdio_output@@V?$format_validation_base@_WV?$stream_output_adapter@_W@__crt_stdio_output@@@2@@__crt_stdio_output@@AAE_NXZ 0044a790 f i libucrtd:output.obj
 0001:000497b0       ?type_case_c@?$output_processor@_WV?$stream_output_adapter@_W@__crt_stdio_output@@V?$positional_parameter_base@_WV?$stream_output_adapter@_W@__crt_stdio_output@@@2@@__crt_stdio_output@@AAE_NXZ 0044a7b0 f i libucrtd:output.obj
 0001:000497d0       ?type_case_c@?$output_processor@_WV?$stream_output_adapter@_W@__crt_stdio_output@@V?$standard_base@_WV?$stream_output_adapter@_W@__crt_stdio_output@@@2@@__crt_stdio_output@@AAE_NXZ 0044a7d0 f i libucrtd:output.obj
 0001:000497f0       ?type_case_c@?$output_processor@_WV?$string_output_adapter@_W@__crt_stdio_output@@V?$format_validation_base@_WV?$string_output_adapter@_W@__crt_stdio_output@@@2@@__crt_stdio_output@@AAE_NXZ 0044a7f0 f i libucrtd:output.obj
 0001:00049810       ?type_case_c@?$output_processor@_WV?$string_output_adapter@_W@__crt_stdio_output@@V?$positional_parameter_base@_WV?$string_output_adapter@_W@__crt_stdio_output@@@2@@__crt_stdio_output@@AAE_NXZ 0044a810 f i libucrtd:output.obj
 0001:00049830       ?type_case_c@?$output_processor@_WV?$string_output_adapter@_W@__crt_stdio_output@@V?$standard_base@_WV?$string_output_adapter@_W@__crt_stdio_output@@@2@@__crt_stdio_output@@AAE_NXZ 0044a830 f i libucrtd:output.obj
 0001:00049850       ?type_case_c_tchar@?$output_processor@DV?$stream_output_adapter@D@__crt_stdio_output@@V?$format_validation_base@DV?$stream_output_adapter@D@__crt_stdio_output@@@2@@__crt_stdio_output@@AAE_ND@Z 0044a850 f i libucrtd:output.obj
 0001:000499a0       ?type_case_c_tchar@?$output_processor@DV?$stream_output_adapter@D@__crt_stdio_output@@V?$positional_parameter_base@DV?$stream_output_adapter@D@__crt_stdio_output@@@2@@__crt_stdio_output@@AAE_ND@Z 0044a9a0 f i libucrtd:output.obj
 0001:00049af0       ?type_case_c_tchar@?$output_processor@DV?$stream_output_adapter@D@__crt_stdio_output@@V?$standard_base@DV?$stream_output_adapter@D@__crt_stdio_output@@@2@@__crt_stdio_output@@AAE_ND@Z 0044aaf0 f i libucrtd:output.obj
 0001:00049c40       ?type_case_c_tchar@?$output_processor@DV?$string_output_adapter@D@__crt_stdio_output@@V?$format_validation_base@DV?$string_output_adapter@D@__crt_stdio_output@@@2@@__crt_stdio_output@@AAE_ND@Z 0044ac40 f i libucrtd:output.obj
 0001:00049d90       ?type_case_c_tchar@?$output_processor@DV?$string_output_adapter@D@__crt_stdio_output@@V?$positional_parameter_base@DV?$string_output_adapter@D@__crt_stdio_output@@@2@@__crt_stdio_output@@AAE_ND@Z 0044ad90 f i libucrtd:output.obj
 0001:00049ee0       ?type_case_c_tchar@?$output_processor@DV?$string_output_adapter@D@__crt_stdio_output@@V?$standard_base@DV?$string_output_adapter@D@__crt_stdio_output@@@2@@__crt_stdio_output@@AAE_ND@Z 0044aee0 f i libucrtd:output.obj
 0001:0004a030       ?type_case_c_tchar@?$output_processor@_WV?$stream_output_adapter@_W@__crt_stdio_output@@V?$format_validation_base@_WV?$stream_output_adapter@_W@__crt_stdio_output@@@2@@__crt_stdio_output@@AAE_N_W@Z 0044b030 f i libucrtd:output.obj
 0001:0004a170       ?type_case_c_tchar@?$output_processor@_WV?$stream_output_adapter@_W@__crt_stdio_output@@V?$positional_parameter_base@_WV?$stream_output_adapter@_W@__crt_stdio_output@@@2@@__crt_stdio_output@@AAE_N_W@Z 0044b170 f i libucrtd:output.obj
 0001:0004a2b0       ?type_case_c_tchar@?$output_processor@_WV?$stream_output_adapter@_W@__crt_stdio_output@@V?$standard_base@_WV?$stream_output_adapter@_W@__crt_stdio_output@@@2@@__crt_stdio_output@@AAE_N_W@Z 0044b2b0 f i libucrtd:output.obj
 0001:0004a3f0       ?type_case_c_tchar@?$output_processor@_WV?$string_output_adapter@_W@__crt_stdio_output@@V?$format_validation_base@_WV?$string_output_adapter@_W@__crt_stdio_output@@@2@@__crt_stdio_output@@AAE_N_W@Z 0044b3f0 f i libucrtd:output.obj
 0001:0004a530       ?type_case_c_tchar@?$output_processor@_WV?$string_output_adapter@_W@__crt_stdio_output@@V?$positional_parameter_base@_WV?$string_output_adapter@_W@__crt_stdio_output@@@2@@__crt_stdio_output@@AAE_N_W@Z 0044b530 f i libucrtd:output.obj
 0001:0004a670       ?type_case_c_tchar@?$output_processor@_WV?$string_output_adapter@_W@__crt_stdio_output@@V?$standard_base@_WV?$string_output_adapter@_W@__crt_stdio_output@@@2@@__crt_stdio_output@@AAE_N_W@Z 0044b670 f i libucrtd:output.obj
 0001:0004a7b0       ?type_case_d@?$output_processor@DV?$stream_output_adapter@D@__crt_stdio_output@@V?$format_validation_base@DV?$stream_output_adapter@D@__crt_stdio_output@@@2@@__crt_stdio_output@@AAE_NXZ 0044b7b0 f i libucrtd:output.obj
 0001:0004a7e0       ?type_case_d@?$output_processor@DV?$stream_output_adapter@D@__crt_stdio_output@@V?$positional_parameter_base@DV?$stream_output_adapter@D@__crt_stdio_output@@@2@@__crt_stdio_output@@AAE_NXZ 0044b7e0 f i libucrtd:output.obj
 0001:0004a810       ?type_case_d@?$output_processor@DV?$stream_output_adapter@D@__crt_stdio_output@@V?$standard_base@DV?$stream_output_adapter@D@__crt_stdio_output@@@2@@__crt_stdio_output@@AAE_NXZ 0044b810 f i libucrtd:output.obj
 0001:0004a840       ?type_case_d@?$output_processor@DV?$string_output_adapter@D@__crt_stdio_output@@V?$format_validation_base@DV?$string_output_adapter@D@__crt_stdio_output@@@2@@__crt_stdio_output@@AAE_NXZ 0044b840 f i libucrtd:output.obj
 0001:0004a870       ?type_case_d@?$output_processor@DV?$string_output_adapter@D@__crt_stdio_output@@V?$positional_parameter_base@DV?$string_output_adapter@D@__crt_stdio_output@@@2@@__crt_stdio_output@@AAE_NXZ 0044b870 f i libucrtd:output.obj
 0001:0004a8a0       ?type_case_d@?$output_processor@DV?$string_output_adapter@D@__crt_stdio_output@@V?$standard_base@DV?$string_output_adapter@D@__crt_stdio_output@@@2@@__crt_stdio_output@@AAE_NXZ 0044b8a0 f i libucrtd:output.obj
 0001:0004a8d0       ?type_case_d@?$output_processor@_WV?$stream_output_adapter@_W@__crt_stdio_output@@V?$format_validation_base@_WV?$stream_output_adapter@_W@__crt_stdio_output@@@2@@__crt_stdio_output@@AAE_NXZ 0044b8d0 f i libucrtd:output.obj
 0001:0004a900       ?type_case_d@?$output_processor@_WV?$stream_output_adapter@_W@__crt_stdio_output@@V?$positional_parameter_base@_WV?$stream_output_adapter@_W@__crt_stdio_output@@@2@@__crt_stdio_output@@AAE_NXZ 0044b900 f i libucrtd:output.obj
 0001:0004a930       ?type_case_d@?$output_processor@_WV?$stream_output_adapter@_W@__crt_stdio_output@@V?$standard_base@_WV?$stream_output_adapter@_W@__crt_stdio_output@@@2@@__crt_stdio_output@@AAE_NXZ 0044b930 f i libucrtd:output.obj
 0001:0004a960       ?type_case_d@?$output_processor@_WV?$string_output_adapter@_W@__crt_stdio_output@@V?$format_validation_base@_WV?$string_output_adapter@_W@__crt_stdio_output@@@2@@__crt_stdio_output@@AAE_NXZ 0044b960 f i libucrtd:output.obj
 0001:0004a990       ?type_case_d@?$output_processor@_WV?$string_output_adapter@_W@__crt_stdio_output@@V?$positional_parameter_base@_WV?$string_output_adapter@_W@__crt_stdio_output@@@2@@__crt_stdio_output@@AAE_NXZ 0044b990 f i libucrtd:output.obj
 0001:0004a9c0       ?type_case_d@?$output_processor@_WV?$string_output_adapter@_W@__crt_stdio_output@@V?$standard_base@_WV?$string_output_adapter@_W@__crt_stdio_output@@@2@@__crt_stdio_output@@AAE_NXZ 0044b9c0 f i libucrtd:output.obj
 0001:0004a9f0       ?type_case_integer@?$output_processor@DV?$stream_output_adapter@D@__crt_stdio_output@@V?$format_validation_base@DV?$stream_output_adapter@D@__crt_stdio_output@@@2@@__crt_stdio_output@@AAE_NI_N@Z 0044b9f0 f i libucrtd:output.obj
 0001:0004ae00       ?type_case_integer@?$output_processor@DV?$stream_output_adapter@D@__crt_stdio_output@@V?$positional_parameter_base@DV?$stream_output_adapter@D@__crt_stdio_output@@@2@@__crt_stdio_output@@AAE_NI_N@Z 0044be00 f i libucrtd:output.obj
 0001:0004b210       ?type_case_integer@?$output_processor@DV?$stream_output_adapter@D@__crt_stdio_output@@V?$standard_base@DV?$stream_output_adapter@D@__crt_stdio_output@@@2@@__crt_stdio_output@@AAE_NI_N@Z 0044c210 f i libucrtd:output.obj
 0001:0004b620       ?type_case_integer@?$output_processor@DV?$string_output_adapter@D@__crt_stdio_output@@V?$format_validation_base@DV?$string_output_adapter@D@__crt_stdio_output@@@2@@__crt_stdio_output@@AAE_NI_N@Z 0044c620 f i libucrtd:output.obj
 0001:0004ba30       ?type_case_integer@?$output_processor@DV?$string_output_adapter@D@__crt_stdio_output@@V?$positional_parameter_base@DV?$string_output_adapter@D@__crt_stdio_output@@@2@@__crt_stdio_output@@AAE_NI_N@Z 0044ca30 f i libucrtd:output.obj
 0001:0004be40       ?type_case_integer@?$output_processor@DV?$string_output_adapter@D@__crt_stdio_output@@V?$standard_base@DV?$string_output_adapter@D@__crt_stdio_output@@@2@@__crt_stdio_output@@AAE_NI_N@Z 0044ce40 f i libucrtd:output.obj
 0001:0004c250       ?type_case_integer@?$output_processor@_WV?$stream_output_adapter@_W@__crt_stdio_output@@V?$format_validation_base@_WV?$stream_output_adapter@_W@__crt_stdio_output@@@2@@__crt_stdio_output@@AAE_NI_N@Z 0044d250 f i libucrtd:output.obj
 0001:0004c660       ?type_case_integer@?$output_processor@_WV?$stream_output_adapter@_W@__crt_stdio_output@@V?$positional_parameter_base@_WV?$stream_output_adapter@_W@__crt_stdio_output@@@2@@__crt_stdio_output@@AAE_NI_N@Z 0044d660 f i libucrtd:output.obj
 0001:0004ca70       ?type_case_integer@?$output_processor@_WV?$stream_output_adapter@_W@__crt_stdio_output@@V?$standard_base@_WV?$stream_output_adapter@_W@__crt_stdio_output@@@2@@__crt_stdio_output@@AAE_NI_N@Z 0044da70 f i libucrtd:output.obj
 0001:0004ce80       ?type_case_integer@?$output_processor@_WV?$string_output_adapter@_W@__crt_stdio_output@@V?$format_validation_base@_WV?$string_output_adapter@_W@__crt_stdio_output@@@2@@__crt_stdio_output@@AAE_NI_N@Z 0044de80 f i libucrtd:output.obj
 0001:0004d290       ?type_case_integer@?$output_processor@_WV?$string_output_adapter@_W@__crt_stdio_output@@V?$positional_parameter_base@_WV?$string_output_adapter@_W@__crt_stdio_output@@@2@@__crt_stdio_output@@AAE_NI_N@Z 0044e290 f i libucrtd:output.obj
 0001:0004d6a0       ?type_case_integer@?$output_processor@_WV?$string_output_adapter@_W@__crt_stdio_output@@V?$standard_base@_WV?$string_output_adapter@_W@__crt_stdio_output@@@2@@__crt_stdio_output@@AAE_NI_N@Z 0044e6a0 f i libucrtd:output.obj
 0001:0004dab0       ?type_case_n@?$output_processor@DV?$stream_output_adapter@D@__crt_stdio_output@@V?$format_validation_base@DV?$stream_output_adapter@D@__crt_stdio_output@@@2@@__crt_stdio_output@@AAE_NXZ 0044eab0 f i libucrtd:output.obj
 0001:0004dd20       ?type_case_n@?$output_processor@DV?$stream_output_adapter@D@__crt_stdio_output@@V?$positional_parameter_base@DV?$stream_output_adapter@D@__crt_stdio_output@@@2@@__crt_stdio_output@@AAE_NXZ 0044ed20 f i libucrtd:output.obj
 0001:0004df90       ?type_case_n@?$output_processor@DV?$stream_output_adapter@D@__crt_stdio_output@@V?$standard_base@DV?$stream_output_adapter@D@__crt_stdio_output@@@2@@__crt_stdio_output@@AAE_NXZ 0044ef90 f i libucrtd:output.obj
 0001:0004e200       ?type_case_n@?$output_processor@DV?$string_output_adapter@D@__crt_stdio_output@@V?$format_validation_base@DV?$string_output_adapter@D@__crt_stdio_output@@@2@@__crt_stdio_output@@AAE_NXZ 0044f200 f i libucrtd:output.obj
 0001:0004e470       ?type_case_n@?$output_processor@DV?$string_output_adapter@D@__crt_stdio_output@@V?$positional_parameter_base@DV?$string_output_adapter@D@__crt_stdio_output@@@2@@__crt_stdio_output@@AAE_NXZ 0044f470 f i libucrtd:output.obj
 0001:0004e6e0       ?type_case_n@?$output_processor@DV?$string_output_adapter@D@__crt_stdio_output@@V?$standard_base@DV?$string_output_adapter@D@__crt_stdio_output@@@2@@__crt_stdio_output@@AAE_NXZ 0044f6e0 f i libucrtd:output.obj
 0001:0004e950       ?type_case_n@?$output_processor@_WV?$stream_output_adapter@_W@__crt_stdio_output@@V?$format_validation_base@_WV?$stream_output_adapter@_W@__crt_stdio_output@@@2@@__crt_stdio_output@@AAE_NXZ 0044f950 f i libucrtd:output.obj
 0001:0004ebc0       ?type_case_n@?$output_processor@_WV?$stream_output_adapter@_W@__crt_stdio_output@@V?$positional_parameter_base@_WV?$stream_output_adapter@_W@__crt_stdio_output@@@2@@__crt_stdio_output@@AAE_NXZ 0044fbc0 f i libucrtd:output.obj
 0001:0004ee30       ?type_case_n@?$output_processor@_WV?$stream_output_adapter@_W@__crt_stdio_output@@V?$standard_base@_WV?$stream_output_adapter@_W@__crt_stdio_output@@@2@@__crt_stdio_output@@AAE_NXZ 0044fe30 f i libucrtd:output.obj
 0001:0004f0a0       ?type_case_n@?$output_processor@_WV?$string_output_adapter@_W@__crt_stdio_output@@V?$format_validation_base@_WV?$string_output_adapter@_W@__crt_stdio_output@@@2@@__crt_stdio_output@@AAE_NXZ 004500a0 f i libucrtd:output.obj
 0001:0004f310       ?type_case_n@?$output_processor@_WV?$string_output_adapter@_W@__crt_stdio_output@@V?$positional_parameter_base@_WV?$string_output_adapter@_W@__crt_stdio_output@@@2@@__crt_stdio_output@@AAE_NXZ 00450310 f i libucrtd:output.obj
 0001:0004f580       ?type_case_n@?$output_processor@_WV?$string_output_adapter@_W@__crt_stdio_output@@V?$standard_base@_WV?$string_output_adapter@_W@__crt_stdio_output@@@2@@__crt_stdio_output@@AAE_NXZ 00450580 f i libucrtd:output.obj
 0001:0004f7f0       ?type_case_o@?$output_processor@DV?$stream_output_adapter@D@__crt_stdio_output@@V?$format_validation_base@DV?$stream_output_adapter@D@__crt_stdio_output@@@2@@__crt_stdio_output@@AAE_NXZ 004507f0 f i libucrtd:output.obj
 0001:0004f840       ?type_case_o@?$output_processor@DV?$stream_output_adapter@D@__crt_stdio_output@@V?$positional_parameter_base@DV?$stream_output_adapter@D@__crt_stdio_output@@@2@@__crt_stdio_output@@AAE_NXZ 00450840 f i libucrtd:output.obj
 0001:0004f890       ?type_case_o@?$output_processor@DV?$stream_output_adapter@D@__crt_stdio_output@@V?$standard_base@DV?$stream_output_adapter@D@__crt_stdio_output@@@2@@__crt_stdio_output@@AAE_NXZ 00450890 f i libucrtd:output.obj
 0001:0004f8e0       ?type_case_o@?$output_processor@DV?$string_output_adapter@D@__crt_stdio_output@@V?$format_validation_base@DV?$string_output_adapter@D@__crt_stdio_output@@@2@@__crt_stdio_output@@AAE_NXZ 004508e0 f i libucrtd:output.obj
 0001:0004f930       ?type_case_o@?$output_processor@DV?$string_output_adapter@D@__crt_stdio_output@@V?$positional_parameter_base@DV?$string_output_adapter@D@__crt_stdio_output@@@2@@__crt_stdio_output@@AAE_NXZ 00450930 f i libucrtd:output.obj
 0001:0004f980       ?type_case_o@?$output_processor@DV?$string_output_adapter@D@__crt_stdio_output@@V?$standard_base@DV?$string_output_adapter@D@__crt_stdio_output@@@2@@__crt_stdio_output@@AAE_NXZ 00450980 f i libucrtd:output.obj
 0001:0004f9d0       ?type_case_o@?$output_processor@_WV?$stream_output_adapter@_W@__crt_stdio_output@@V?$format_validation_base@_WV?$stream_output_adapter@_W@__crt_stdio_output@@@2@@__crt_stdio_output@@AAE_NXZ 004509d0 f i libucrtd:output.obj
 0001:0004fa20       ?type_case_o@?$output_processor@_WV?$stream_output_adapter@_W@__crt_stdio_output@@V?$positional_parameter_base@_WV?$stream_output_adapter@_W@__crt_stdio_output@@@2@@__crt_stdio_output@@AAE_NXZ 00450a20 f i libucrtd:output.obj
 0001:0004fa70       ?type_case_o@?$output_processor@_WV?$stream_output_adapter@_W@__crt_stdio_output@@V?$standard_base@_WV?$stream_output_adapter@_W@__crt_stdio_output@@@2@@__crt_stdio_output@@AAE_NXZ 00450a70 f i libucrtd:output.obj
 0001:0004fac0       ?type_case_o@?$output_processor@_WV?$string_output_adapter@_W@__crt_stdio_output@@V?$format_validation_base@_WV?$string_output_adapter@_W@__crt_stdio_output@@@2@@__crt_stdio_output@@AAE_NXZ 00450ac0 f i libucrtd:output.obj
 0001:0004fb10       ?type_case_o@?$output_processor@_WV?$string_output_adapter@_W@__crt_stdio_output@@V?$positional_parameter_base@_WV?$string_output_adapter@_W@__crt_stdio_output@@@2@@__crt_stdio_output@@AAE_NXZ 00450b10 f i libucrtd:output.obj
 0001:0004fb60       ?type_case_o@?$output_processor@_WV?$string_output_adapter@_W@__crt_stdio_output@@V?$standard_base@_WV?$string_output_adapter@_W@__crt_stdio_output@@@2@@__crt_stdio_output@@AAE_NXZ 00450b60 f i libucrtd:output.obj
 0001:0004fbb0       ?type_case_p@?$output_processor@DV?$stream_output_adapter@D@__crt_stdio_output@@V?$format_validation_base@DV?$stream_output_adapter@D@__crt_stdio_output@@@2@@__crt_stdio_output@@AAE_NXZ 00450bb0 f i libucrtd:output.obj
 0001:0004fbf0       ?type_case_p@?$output_processor@DV?$stream_output_adapter@D@__crt_stdio_output@@V?$positional_parameter_base@DV?$stream_output_adapter@D@__crt_stdio_output@@@2@@__crt_stdio_output@@AAE_NXZ 00450bf0 f i libucrtd:output.obj
 0001:0004fc30       ?type_case_p@?$output_processor@DV?$stream_output_adapter@D@__crt_stdio_output@@V?$standard_base@DV?$stream_output_adapter@D@__crt_stdio_output@@@2@@__crt_stdio_output@@AAE_NXZ 00450c30 f i libucrtd:output.obj
 0001:0004fc70       ?type_case_p@?$output_processor@DV?$string_output_adapter@D@__crt_stdio_output@@V?$format_validation_base@DV?$string_output_adapter@D@__crt_stdio_output@@@2@@__crt_stdio_output@@AAE_NXZ 00450c70 f i libucrtd:output.obj
 0001:0004fcb0       ?type_case_p@?$output_processor@DV?$string_output_adapter@D@__crt_stdio_output@@V?$positional_parameter_base@DV?$string_output_adapter@D@__crt_stdio_output@@@2@@__crt_stdio_output@@AAE_NXZ 00450cb0 f i libucrtd:output.obj
 0001:0004fcf0       ?type_case_p@?$output_processor@DV?$string_output_adapter@D@__crt_stdio_output@@V?$standard_base@DV?$string_output_adapter@D@__crt_stdio_output@@@2@@__crt_stdio_output@@AAE_NXZ 00450cf0 f i libucrtd:output.obj
 0001:0004fd30       ?type_case_p@?$output_processor@_WV?$stream_output_adapter@_W@__crt_stdio_output@@V?$format_validation_base@_WV?$stream_output_adapter@_W@__crt_stdio_output@@@2@@__crt_stdio_output@@AAE_NXZ 00450d30 f i libucrtd:output.obj
 0001:0004fd70       ?type_case_p@?$output_processor@_WV?$stream_output_adapter@_W@__crt_stdio_output@@V?$positional_parameter_base@_WV?$stream_output_adapter@_W@__crt_stdio_output@@@2@@__crt_stdio_output@@AAE_NXZ 00450d70 f i libucrtd:output.obj
 0001:0004fdb0       ?type_case_p@?$output_processor@_WV?$stream_output_adapter@_W@__crt_stdio_output@@V?$standard_base@_WV?$stream_output_adapter@_W@__crt_stdio_output@@@2@@__crt_stdio_output@@AAE_NXZ 00450db0 f i libucrtd:output.obj
 0001:0004fdf0       ?type_case_p@?$output_processor@_WV?$string_output_adapter@_W@__crt_stdio_output@@V?$format_validation_base@_WV?$string_output_adapter@_W@__crt_stdio_output@@@2@@__crt_stdio_output@@AAE_NXZ 00450df0 f i libucrtd:output.obj
 0001:0004fe30       ?type_case_p@?$output_processor@_WV?$string_output_adapter@_W@__crt_stdio_output@@V?$positional_parameter_base@_WV?$string_output_adapter@_W@__crt_stdio_output@@@2@@__crt_stdio_output@@AAE_NXZ 00450e30 f i libucrtd:output.obj
 0001:0004fe70       ?type_case_p@?$output_processor@_WV?$string_output_adapter@_W@__crt_stdio_output@@V?$standard_base@_WV?$string_output_adapter@_W@__crt_stdio_output@@@2@@__crt_stdio_output@@AAE_NXZ 00450e70 f i libucrtd:output.obj
 0001:0004feb0       ?type_case_s@?$output_processor@DV?$stream_output_adapter@D@__crt_stdio_output@@V?$format_validation_base@DV?$stream_output_adapter@D@__crt_stdio_output@@@2@@__crt_stdio_output@@AAE_NXZ 00450eb0 f i libucrtd:output.obj
 0001:0004ffe0       ?type_case_s@?$output_processor@DV?$stream_output_adapter@D@__crt_stdio_output@@V?$positional_parameter_base@DV?$stream_output_adapter@D@__crt_stdio_output@@@2@@__crt_stdio_output@@AAE_NXZ 00450fe0 f i libucrtd:output.obj
 0001:00050110       ?type_case_s@?$output_processor@DV?$stream_output_adapter@D@__crt_stdio_output@@V?$standard_base@DV?$stream_output_adapter@D@__crt_stdio_output@@@2@@__crt_stdio_output@@AAE_NXZ 00451110 f i libucrtd:output.obj
 0001:00050240       ?type_case_s@?$output_processor@DV?$string_output_adapter@D@__crt_stdio_output@@V?$format_validation_base@DV?$string_output_adapter@D@__crt_stdio_output@@@2@@__crt_stdio_output@@AAE_NXZ 00451240 f i libucrtd:output.obj
 0001:00050370       ?type_case_s@?$output_processor@DV?$string_output_adapter@D@__crt_stdio_output@@V?$positional_parameter_base@DV?$string_output_adapter@D@__crt_stdio_output@@@2@@__crt_stdio_output@@AAE_NXZ 00451370 f i libucrtd:output.obj
 0001:000504a0       ?type_case_s@?$output_processor@DV?$string_output_adapter@D@__crt_stdio_output@@V?$standard_base@DV?$string_output_adapter@D@__crt_stdio_output@@@2@@__crt_stdio_output@@AAE_NXZ 004514a0 f i libucrtd:output.obj
 0001:000505d0       ?type_case_s@?$output_processor@_WV?$stream_output_adapter@_W@__crt_stdio_output@@V?$format_validation_base@_WV?$stream_output_adapter@_W@__crt_stdio_output@@@2@@__crt_stdio_output@@AAE_NXZ 004515d0 f i libucrtd:output.obj
 0001:00050700       ?type_case_s@?$output_processor@_WV?$stream_output_adapter@_W@__crt_stdio_output@@V?$positional_parameter_base@_WV?$stream_output_adapter@_W@__crt_stdio_output@@@2@@__crt_stdio_output@@AAE_NXZ 00451700 f i libucrtd:output.obj
 0001:00050830       ?type_case_s@?$output_processor@_WV?$stream_output_adapter@_W@__crt_stdio_output@@V?$standard_base@_WV?$stream_output_adapter@_W@__crt_stdio_output@@@2@@__crt_stdio_output@@AAE_NXZ 00451830 f i libucrtd:output.obj
 0001:00050960       ?type_case_s@?$output_processor@_WV?$string_output_adapter@_W@__crt_stdio_output@@V?$format_validation_base@_WV?$string_output_adapter@_W@__crt_stdio_output@@@2@@__crt_stdio_output@@AAE_NXZ 00451960 f i libucrtd:output.obj
 0001:00050a90       ?type_case_s@?$output_processor@_WV?$string_output_adapter@_W@__crt_stdio_output@@V?$positional_parameter_base@_WV?$string_output_adapter@_W@__crt_stdio_output@@@2@@__crt_stdio_output@@AAE_NXZ 00451a90 f i libucrtd:output.obj
 0001:00050bc0       ?type_case_s@?$output_processor@_WV?$string_output_adapter@_W@__crt_stdio_output@@V?$standard_base@_WV?$string_output_adapter@_W@__crt_stdio_output@@@2@@__crt_stdio_output@@AAE_NXZ 00451bc0 f i libucrtd:output.obj
 0001:00050cf0       ?type_case_s_compute_narrow_string_length@?$output_processor@DV?$stream_output_adapter@D@__crt_stdio_output@@V?$format_validation_base@DV?$stream_output_adapter@D@__crt_stdio_output@@@2@@__crt_stdio_output@@ABEHHD@Z 00451cf0 f i libucrtd:output.obj
 0001:00050d20       ?type_case_s_compute_narrow_string_length@?$output_processor@DV?$stream_output_adapter@D@__crt_stdio_output@@V?$positional_parameter_base@DV?$stream_output_adapter@D@__crt_stdio_output@@@2@@__crt_stdio_output@@ABEHHD@Z 00451d20 f i libucrtd:output.obj
 0001:00050d50       ?type_case_s_compute_narrow_string_length@?$output_processor@DV?$stream_output_adapter@D@__crt_stdio_output@@V?$standard_base@DV?$stream_output_adapter@D@__crt_stdio_output@@@2@@__crt_stdio_output@@ABEHHD@Z 00451d50 f i libucrtd:output.obj
 0001:00050d80       ?type_case_s_compute_narrow_string_length@?$output_processor@DV?$string_output_adapter@D@__crt_stdio_output@@V?$format_validation_base@DV?$string_output_adapter@D@__crt_stdio_output@@@2@@__crt_stdio_output@@ABEHHD@Z 00451d80 f i libucrtd:output.obj
 0001:00050db0       ?type_case_s_compute_narrow_string_length@?$output_processor@DV?$string_output_adapter@D@__crt_stdio_output@@V?$positional_parameter_base@DV?$string_output_adapter@D@__crt_stdio_output@@@2@@__crt_stdio_output@@ABEHHD@Z 00451db0 f i libucrtd:output.obj
 0001:00050de0       ?type_case_s_compute_narrow_string_length@?$output_processor@DV?$string_output_adapter@D@__crt_stdio_output@@V?$standard_base@DV?$string_output_adapter@D@__crt_stdio_output@@@2@@__crt_stdio_output@@ABEHHD@Z 00451de0 f i libucrtd:output.obj
 0001:00050e10       ?type_case_s_compute_narrow_string_length@?$output_processor@_WV?$stream_output_adapter@_W@__crt_stdio_output@@V?$format_validation_base@_WV?$stream_output_adapter@_W@__crt_stdio_output@@@2@@__crt_stdio_output@@ABEHH_W@Z 00451e10 f i libucrtd:output.obj
 0001:00050ea0       ?type_case_s_compute_narrow_string_length@?$output_processor@_WV?$stream_output_adapter@_W@__crt_stdio_output@@V?$positional_parameter_base@_WV?$stream_output_adapter@_W@__crt_stdio_output@@@2@@__crt_stdio_output@@ABEHH_W@Z 00451ea0 f i libucrtd:output.obj
 0001:00050f30       ?type_case_s_compute_narrow_string_length@?$output_processor@_WV?$stream_output_adapter@_W@__crt_stdio_output@@V?$standard_base@_WV?$stream_output_adapter@_W@__crt_stdio_output@@@2@@__crt_stdio_output@@ABEHH_W@Z 00451f30 f i libucrtd:output.obj
 0001:00050fc0       ?type_case_s_compute_narrow_string_length@?$output_processor@_WV?$string_output_adapter@_W@__crt_stdio_output@@V?$format_validation_base@_WV?$string_output_adapter@_W@__crt_stdio_output@@@2@@__crt_stdio_output@@ABEHH_W@Z 00451fc0 f i libucrtd:output.obj
 0001:00051050       ?type_case_s_compute_narrow_string_length@?$output_processor@_WV?$string_output_adapter@_W@__crt_stdio_output@@V?$positional_parameter_base@_WV?$string_output_adapter@_W@__crt_stdio_output@@@2@@__crt_stdio_output@@ABEHH_W@Z 00452050 f i libucrtd:output.obj
 0001:000510e0       ?type_case_s_compute_narrow_string_length@?$output_processor@_WV?$string_output_adapter@_W@__crt_stdio_output@@V?$standard_base@_WV?$string_output_adapter@_W@__crt_stdio_output@@@2@@__crt_stdio_output@@ABEHH_W@Z 004520e0 f i libucrtd:output.obj
 0001:00051170       ?type_case_u@?$output_processor@DV?$stream_output_adapter@D@__crt_stdio_output@@V?$format_validation_base@DV?$stream_output_adapter@D@__crt_stdio_output@@@2@@__crt_stdio_output@@AAE_NXZ 00452170 f i libucrtd:output.obj
 0001:00051190       ?type_case_u@?$output_processor@DV?$stream_output_adapter@D@__crt_stdio_output@@V?$positional_parameter_base@DV?$stream_output_adapter@D@__crt_stdio_output@@@2@@__crt_stdio_output@@AAE_NXZ 00452190 f i libucrtd:output.obj
 0001:000511b0       ?type_case_u@?$output_processor@DV?$stream_output_adapter@D@__crt_stdio_output@@V?$standard_base@DV?$stream_output_adapter@D@__crt_stdio_output@@@2@@__crt_stdio_output@@AAE_NXZ 004521b0 f i libucrtd:output.obj
 0001:000511d0       ?type_case_u@?$output_processor@DV?$string_output_adapter@D@__crt_stdio_output@@V?$format_validation_base@DV?$string_output_adapter@D@__crt_stdio_output@@@2@@__crt_stdio_output@@AAE_NXZ 004521d0 f i libucrtd:output.obj
 0001:000511f0       ?type_case_u@?$output_processor@DV?$string_output_adapter@D@__crt_stdio_output@@V?$positional_parameter_base@DV?$string_output_adapter@D@__crt_stdio_output@@@2@@__crt_stdio_output@@AAE_NXZ 004521f0 f i libucrtd:output.obj
 0001:00051210       ?type_case_u@?$output_processor@DV?$string_output_adapter@D@__crt_stdio_output@@V?$standard_base@DV?$string_output_adapter@D@__crt_stdio_output@@@2@@__crt_stdio_output@@AAE_NXZ 00452210 f i libucrtd:output.obj
 0001:00051230       ?type_case_u@?$output_processor@_WV?$stream_output_adapter@_W@__crt_stdio_output@@V?$format_validation_base@_WV?$stream_output_adapter@_W@__crt_stdio_output@@@2@@__crt_stdio_output@@AAE_NXZ 00452230 f i libucrtd:output.obj
 0001:00051250       ?type_case_u@?$output_processor@_WV?$stream_output_adapter@_W@__crt_stdio_output@@V?$positional_parameter_base@_WV?$stream_output_adapter@_W@__crt_stdio_output@@@2@@__crt_stdio_output@@AAE_NXZ 00452250 f i libucrtd:output.obj
 0001:00051270       ?type_case_u@?$output_processor@_WV?$stream_output_adapter@_W@__crt_stdio_output@@V?$standard_base@_WV?$stream_output_adapter@_W@__crt_stdio_output@@@2@@__crt_stdio_output@@AAE_NXZ 00452270 f i libucrtd:output.obj
 0001:00051290       ?type_case_u@?$output_processor@_WV?$string_output_adapter@_W@__crt_stdio_output@@V?$format_validation_base@_WV?$string_output_adapter@_W@__crt_stdio_output@@@2@@__crt_stdio_output@@AAE_NXZ 00452290 f i libucrtd:output.obj
 0001:000512b0       ?type_case_u@?$output_processor@_WV?$string_output_adapter@_W@__crt_stdio_output@@V?$positional_parameter_base@_WV?$string_output_adapter@_W@__crt_stdio_output@@@2@@__crt_stdio_output@@AAE_NXZ 004522b0 f i libucrtd:output.obj
 0001:000512d0       ?type_case_u@?$output_processor@_WV?$string_output_adapter@_W@__crt_stdio_output@@V?$standard_base@_WV?$string_output_adapter@_W@__crt_stdio_output@@@2@@__crt_stdio_output@@AAE_NXZ 004522d0 f i libucrtd:output.obj
 0001:000512f0       ?type_case_x@?$output_processor@DV?$stream_output_adapter@D@__crt_stdio_output@@V?$format_validation_base@DV?$stream_output_adapter@D@__crt_stdio_output@@@2@@__crt_stdio_output@@AAE_NXZ 004522f0 f i libucrtd:output.obj
 0001:00051310       ?type_case_x@?$output_processor@DV?$stream_output_adapter@D@__crt_stdio_output@@V?$positional_parameter_base@DV?$stream_output_adapter@D@__crt_stdio_output@@@2@@__crt_stdio_output@@AAE_NXZ 00452310 f i libucrtd:output.obj
 0001:00051330       ?type_case_x@?$output_processor@DV?$stream_output_adapter@D@__crt_stdio_output@@V?$standard_base@DV?$stream_output_adapter@D@__crt_stdio_output@@@2@@__crt_stdio_output@@AAE_NXZ 00452330 f i libucrtd:output.obj
 0001:00051350       ?type_case_x@?$output_processor@DV?$string_output_adapter@D@__crt_stdio_output@@V?$format_validation_base@DV?$string_output_adapter@D@__crt_stdio_output@@@2@@__crt_stdio_output@@AAE_NXZ 00452350 f i libucrtd:output.obj
 0001:00051370       ?type_case_x@?$output_processor@DV?$string_output_adapter@D@__crt_stdio_output@@V?$positional_parameter_base@DV?$string_output_adapter@D@__crt_stdio_output@@@2@@__crt_stdio_output@@AAE_NXZ 00452370 f i libucrtd:output.obj
 0001:00051390       ?type_case_x@?$output_processor@DV?$string_output_adapter@D@__crt_stdio_output@@V?$standard_base@DV?$string_output_adapter@D@__crt_stdio_output@@@2@@__crt_stdio_output@@AAE_NXZ 00452390 f i libucrtd:output.obj
 0001:000513b0       ?type_case_x@?$output_processor@_WV?$stream_output_adapter@_W@__crt_stdio_output@@V?$format_validation_base@_WV?$stream_output_adapter@_W@__crt_stdio_output@@@2@@__crt_stdio_output@@AAE_NXZ 004523b0 f i libucrtd:output.obj
 0001:000513d0       ?type_case_x@?$output_processor@_WV?$stream_output_adapter@_W@__crt_stdio_output@@V?$positional_parameter_base@_WV?$stream_output_adapter@_W@__crt_stdio_output@@@2@@__crt_stdio_output@@AAE_NXZ 004523d0 f i libucrtd:output.obj
 0001:000513f0       ?type_case_x@?$output_processor@_WV?$stream_output_adapter@_W@__crt_stdio_output@@V?$standard_base@_WV?$stream_output_adapter@_W@__crt_stdio_output@@@2@@__crt_stdio_output@@AAE_NXZ 004523f0 f i libucrtd:output.obj
 0001:00051410       ?type_case_x@?$output_processor@_WV?$string_output_adapter@_W@__crt_stdio_output@@V?$format_validation_base@_WV?$string_output_adapter@_W@__crt_stdio_output@@@2@@__crt_stdio_output@@AAE_NXZ 00452410 f i libucrtd:output.obj
 0001:00051430       ?type_case_x@?$output_processor@_WV?$string_output_adapter@_W@__crt_stdio_output@@V?$positional_parameter_base@_WV?$string_output_adapter@_W@__crt_stdio_output@@@2@@__crt_stdio_output@@AAE_NXZ 00452430 f i libucrtd:output.obj
 0001:00051450       ?type_case_x@?$output_processor@_WV?$string_output_adapter@_W@__crt_stdio_output@@V?$standard_base@_WV?$string_output_adapter@_W@__crt_stdio_output@@@2@@__crt_stdio_output@@AAE_NXZ 00452450 f i libucrtd:output.obj
 0001:00051470       ?unset_flag@?$output_processor@DV?$stream_output_adapter@D@__crt_stdio_output@@V?$format_validation_base@DV?$stream_output_adapter@D@__crt_stdio_output@@@2@@__crt_stdio_output@@AAEXI@Z 00452470 f i libucrtd:output.obj
 0001:000514a0       ?unset_flag@?$output_processor@DV?$stream_output_adapter@D@__crt_stdio_output@@V?$positional_parameter_base@DV?$stream_output_adapter@D@__crt_stdio_output@@@2@@__crt_stdio_output@@AAEXI@Z 004524a0 f i libucrtd:output.obj
 0001:000514d0       ?unset_flag@?$output_processor@DV?$stream_output_adapter@D@__crt_stdio_output@@V?$standard_base@DV?$stream_output_adapter@D@__crt_stdio_output@@@2@@__crt_stdio_output@@AAEXI@Z 004524d0 f i libucrtd:output.obj
 0001:00051500       ?unset_flag@?$output_processor@DV?$string_output_adapter@D@__crt_stdio_output@@V?$format_validation_base@DV?$string_output_adapter@D@__crt_stdio_output@@@2@@__crt_stdio_output@@AAEXI@Z 00452500 f i libucrtd:output.obj
 0001:00051530       ?unset_flag@?$output_processor@DV?$string_output_adapter@D@__crt_stdio_output@@V?$positional_parameter_base@DV?$string_output_adapter@D@__crt_stdio_output@@@2@@__crt_stdio_output@@AAEXI@Z 00452530 f i libucrtd:output.obj
 0001:00051560       ?unset_flag@?$output_processor@DV?$string_output_adapter@D@__crt_stdio_output@@V?$standard_base@DV?$string_output_adapter@D@__crt_stdio_output@@@2@@__crt_stdio_output@@AAEXI@Z 00452560 f i libucrtd:output.obj
 0001:00051590       ?unset_flag@?$output_processor@_WV?$stream_output_adapter@_W@__crt_stdio_output@@V?$format_validation_base@_WV?$stream_output_adapter@_W@__crt_stdio_output@@@2@@__crt_stdio_output@@AAEXI@Z 00452590 f i libucrtd:output.obj
 0001:000515c0       ?unset_flag@?$output_processor@_WV?$stream_output_adapter@_W@__crt_stdio_output@@V?$positional_parameter_base@_WV?$stream_output_adapter@_W@__crt_stdio_output@@@2@@__crt_stdio_output@@AAEXI@Z 004525c0 f i libucrtd:output.obj
 0001:000515f0       ?unset_flag@?$output_processor@_WV?$stream_output_adapter@_W@__crt_stdio_output@@V?$standard_base@_WV?$stream_output_adapter@_W@__crt_stdio_output@@@2@@__crt_stdio_output@@AAEXI@Z 004525f0 f i libucrtd:output.obj
 0001:00051620       ?unset_flag@?$output_processor@_WV?$string_output_adapter@_W@__crt_stdio_output@@V?$format_validation_base@_WV?$string_output_adapter@_W@__crt_stdio_output@@@2@@__crt_stdio_output@@AAEXI@Z 00452620 f i libucrtd:output.obj
 0001:00051650       ?unset_flag@?$output_processor@_WV?$string_output_adapter@_W@__crt_stdio_output@@V?$positional_parameter_base@_WV?$string_output_adapter@_W@__crt_stdio_output@@@2@@__crt_stdio_output@@AAEXI@Z 00452650 f i libucrtd:output.obj
 0001:00051680       ?unset_flag@?$output_processor@_WV?$string_output_adapter@_W@__crt_stdio_output@@V?$standard_base@_WV?$string_output_adapter@_W@__crt_stdio_output@@@2@@__crt_stdio_output@@AAEXI@Z 00452680 f i libucrtd:output.obj
 0001:000516b0       ?update_field_width@?$positional_parameter_base@DV?$stream_output_adapter@D@__crt_stdio_output@@@__crt_stdio_output@@IAE_NXZ 004526b0 f i libucrtd:output.obj
 0001:00051890       ?update_field_width@?$positional_parameter_base@DV?$string_output_adapter@D@__crt_stdio_output@@@__crt_stdio_output@@IAE_NXZ 00452890 f i libucrtd:output.obj
 0001:00051a70       ?update_field_width@?$positional_parameter_base@_WV?$stream_output_adapter@_W@__crt_stdio_output@@@__crt_stdio_output@@IAE_NXZ 00452a70 f i libucrtd:output.obj
 0001:00051c50       ?update_field_width@?$positional_parameter_base@_WV?$string_output_adapter@_W@__crt_stdio_output@@@__crt_stdio_output@@IAE_NXZ 00452c50 f i libucrtd:output.obj
 0001:00051e30       ?update_field_width@?$standard_base@DV?$stream_output_adapter@D@__crt_stdio_output@@@__crt_stdio_output@@IAE_NXZ 00452e30 f i libucrtd:output.obj
 0001:00051e60       ?update_field_width@?$standard_base@DV?$string_output_adapter@D@__crt_stdio_output@@@__crt_stdio_output@@IAE_NXZ 00452e60 f i libucrtd:output.obj
 0001:00051e90       ?update_field_width@?$standard_base@_WV?$stream_output_adapter@_W@__crt_stdio_output@@@__crt_stdio_output@@IAE_NXZ 00452e90 f i libucrtd:output.obj
 0001:00051ec0       ?update_field_width@?$standard_base@_WV?$string_output_adapter@_W@__crt_stdio_output@@@__crt_stdio_output@@IAE_NXZ 00452ec0 f i libucrtd:output.obj
 0001:00051ef0       ?update_precision@?$positional_parameter_base@DV?$stream_output_adapter@D@__crt_stdio_output@@@__crt_stdio_output@@IAE_NXZ 00452ef0 f i libucrtd:output.obj
 0001:000520d0       ?update_precision@?$positional_parameter_base@DV?$string_output_adapter@D@__crt_stdio_output@@@__crt_stdio_output@@IAE_NXZ 004530d0 f i libucrtd:output.obj
 0001:000522b0       ?update_precision@?$positional_parameter_base@_WV?$stream_output_adapter@_W@__crt_stdio_output@@@__crt_stdio_output@@IAE_NXZ 004532b0 f i libucrtd:output.obj
 0001:00052490       ?update_precision@?$positional_parameter_base@_WV?$string_output_adapter@_W@__crt_stdio_output@@@__crt_stdio_output@@IAE_NXZ 00453490 f i libucrtd:output.obj
 0001:00052670       ?update_precision@?$standard_base@DV?$stream_output_adapter@D@__crt_stdio_output@@@__crt_stdio_output@@IAE_NXZ 00453670 f i libucrtd:output.obj
 0001:000526a0       ?update_precision@?$standard_base@DV?$string_output_adapter@D@__crt_stdio_output@@@__crt_stdio_output@@IAE_NXZ 004536a0 f i libucrtd:output.obj
 0001:000526d0       ?update_precision@?$standard_base@_WV?$stream_output_adapter@_W@__crt_stdio_output@@@__crt_stdio_output@@IAE_NXZ 004536d0 f i libucrtd:output.obj
 0001:00052700       ?update_precision@?$standard_base@_WV?$string_output_adapter@_W@__crt_stdio_output@@@__crt_stdio_output@@IAE_NXZ 00453700 f i libucrtd:output.obj
 0001:00052730       ?validate@?$stream_output_adapter@D@__crt_stdio_output@@QBE_NXZ 00453730 f i libucrtd:output.obj
 0001:00052800       ?validate@?$stream_output_adapter@_W@__crt_stdio_output@@QBE_NXZ 00453800 f i libucrtd:output.obj
 0001:000528d0       ?validate@?$string_output_adapter@D@__crt_stdio_output@@QBE_NXZ 004538d0 f i libucrtd:output.obj
 0001:00052990       ?validate@?$string_output_adapter@_W@__crt_stdio_output@@QBE_NXZ 00453990 f i libucrtd:output.obj
 0001:00052a50       ?validate_and_store_parameter_data@?$positional_parameter_base@DV?$stream_output_adapter@D@__crt_stdio_output@@@__crt_stdio_output@@AAE_NAAUparameter_data@12@W4parameter_type@12@DW4length_modifier@2@@Z 00453a50 f i libucrtd:output.obj
 0001:00052b60       ?validate_and_store_parameter_data@?$positional_parameter_base@DV?$string_output_adapter@D@__crt_stdio_output@@@__crt_stdio_output@@AAE_NAAUparameter_data@12@W4parameter_type@12@DW4length_modifier@2@@Z 00453b60 f i libucrtd:output.obj
 0001:00052c70       ?validate_and_store_parameter_data@?$positional_parameter_base@_WV?$stream_output_adapter@_W@__crt_stdio_output@@@__crt_stdio_output@@AAE_NAAUparameter_data@12@W4parameter_type@12@_WW4length_modifier@2@@Z 00453c70 f i libucrtd:output.obj
 0001:00052d80       ?validate_and_store_parameter_data@?$positional_parameter_base@_WV?$string_output_adapter@_W@__crt_stdio_output@@@__crt_stdio_output@@AAE_NAAUparameter_data@12@W4parameter_type@12@_WW4length_modifier@2@@Z 00453d80 f i libucrtd:output.obj
 0001:00052e90       ?validate_and_update_state_at_beginning_of_format_character@?$positional_parameter_base@DV?$stream_output_adapter@D@__crt_stdio_output@@@__crt_stdio_output@@IAE_NXZ 00453e90 f i libucrtd:output.obj
 0001:00053140       ?validate_and_update_state_at_beginning_of_format_character@?$positional_parameter_base@DV?$string_output_adapter@D@__crt_stdio_output@@@__crt_stdio_output@@IAE_NXZ 00454140 f i libucrtd:output.obj
 0001:000533f0       ?validate_and_update_state_at_beginning_of_format_character@?$positional_parameter_base@_WV?$stream_output_adapter@_W@__crt_stdio_output@@@__crt_stdio_output@@IAE_NXZ 004543f0 f i libucrtd:output.obj
 0001:000536a0       ?validate_and_update_state_at_beginning_of_format_character@?$positional_parameter_base@_WV?$string_output_adapter@_W@__crt_stdio_output@@@__crt_stdio_output@@IAE_NXZ 004546a0 f i libucrtd:output.obj
 0001:00053950       ?validate_and_update_state_at_beginning_of_format_character@?$standard_base@DV?$stream_output_adapter@D@__crt_stdio_output@@@__crt_stdio_output@@IAE_NXZ 00454950 f i libucrtd:output.obj
 0001:00053970       ?validate_and_update_state_at_beginning_of_format_character@?$standard_base@DV?$string_output_adapter@D@__crt_stdio_output@@@__crt_stdio_output@@IAE_NXZ 00454970 f i libucrtd:output.obj
 0001:00053990       ?validate_and_update_state_at_beginning_of_format_character@?$standard_base@_WV?$stream_output_adapter@_W@__crt_stdio_output@@@__crt_stdio_output@@IAE_NXZ 00454990 f i libucrtd:output.obj
 0001:000539b0       ?validate_and_update_state_at_beginning_of_format_character@?$standard_base@_WV?$string_output_adapter@_W@__crt_stdio_output@@@__crt_stdio_output@@IAE_NXZ 004549b0 f i libucrtd:output.obj
 0001:000539d0       ?validate_and_update_state_at_end_of_format_string@?$format_validation_base@DV?$stream_output_adapter@D@__crt_stdio_output@@@__crt_stdio_output@@IBE_NXZ 004549d0 f i libucrtd:output.obj
 0001:00053a90       ?validate_and_update_state_at_end_of_format_string@?$format_validation_base@DV?$string_output_adapter@D@__crt_stdio_output@@@__crt_stdio_output@@IBE_NXZ 00454a90 f i libucrtd:output.obj
 0001:00053b50       ?validate_and_update_state_at_end_of_format_string@?$format_validation_base@_WV?$stream_output_adapter@_W@__crt_stdio_output@@@__crt_stdio_output@@IBE_NXZ 00454b50 f i libucrtd:output.obj
 0001:00053c10       ?validate_and_update_state_at_end_of_format_string@?$format_validation_base@_WV?$string_output_adapter@_W@__crt_stdio_output@@@__crt_stdio_output@@IBE_NXZ 00454c10 f i libucrtd:output.obj
 0001:00053cd0       ?validate_and_update_state_at_end_of_format_string@?$positional_parameter_base@DV?$stream_output_adapter@D@__crt_stdio_output@@@__crt_stdio_output@@IAE_NXZ 00454cd0 f i libucrtd:output.obj
 0001:00053ed0       ?validate_and_update_state_at_end_of_format_string@?$positional_parameter_base@DV?$string_output_adapter@D@__crt_stdio_output@@@__crt_stdio_output@@IAE_NXZ 00454ed0 f i libucrtd:output.obj
 0001:000540d0       ?validate_and_update_state_at_end_of_format_string@?$positional_parameter_base@_WV?$stream_output_adapter@_W@__crt_stdio_output@@@__crt_stdio_output@@IAE_NXZ 004550d0 f i libucrtd:output.obj
 0001:000542d0       ?validate_and_update_state_at_end_of_format_string@?$positional_parameter_base@_WV?$string_output_adapter@_W@__crt_stdio_output@@@__crt_stdio_output@@IAE_NXZ 004552d0 f i libucrtd:output.obj
 0001:000544d0       ?validate_and_update_state_at_end_of_format_string@?$standard_base@DV?$stream_output_adapter@D@__crt_stdio_output@@@__crt_stdio_output@@IBE_NXZ 004554d0 f i libucrtd:output.obj
 0001:000544f0       ?validate_and_update_state_at_end_of_format_string@?$standard_base@DV?$string_output_adapter@D@__crt_stdio_output@@@__crt_stdio_output@@IBE_NXZ 004554f0 f i libucrtd:output.obj
 0001:00054510       ?validate_and_update_state_at_end_of_format_string@?$standard_base@_WV?$stream_output_adapter@_W@__crt_stdio_output@@@__crt_stdio_output@@IBE_NXZ 00455510 f i libucrtd:output.obj
 0001:00054530       ?validate_and_update_state_at_end_of_format_string@?$standard_base@_WV?$string_output_adapter@_W@__crt_stdio_output@@@__crt_stdio_output@@IBE_NXZ 00455530 f i libucrtd:output.obj
 0001:00054550       ?validate_state_for_type_case_a@?$positional_parameter_base@DV?$stream_output_adapter@D@__crt_stdio_output@@@__crt_stdio_output@@IAE_NXZ 00455550 f i libucrtd:output.obj
 0001:00054680       ?validate_state_for_type_case_a@?$positional_parameter_base@DV?$string_output_adapter@D@__crt_stdio_output@@@__crt_stdio_output@@IAE_NXZ 00455680 f i libucrtd:output.obj
 0001:000547b0       ?validate_state_for_type_case_a@?$positional_parameter_base@_WV?$stream_output_adapter@_W@__crt_stdio_output@@@__crt_stdio_output@@IAE_NXZ 004557b0 f i libucrtd:output.obj
 0001:000548e0       ?validate_state_for_type_case_a@?$positional_parameter_base@_WV?$string_output_adapter@_W@__crt_stdio_output@@@__crt_stdio_output@@IAE_NXZ 004558e0 f i libucrtd:output.obj
 0001:00054a10       ?validate_state_for_type_case_a@?$standard_base@DV?$stream_output_adapter@D@__crt_stdio_output@@@__crt_stdio_output@@IBE_NXZ 00455a10 f i libucrtd:output.obj
 0001:00054a30       ?validate_state_for_type_case_a@?$standard_base@DV?$string_output_adapter@D@__crt_stdio_output@@@__crt_stdio_output@@IBE_NXZ 00455a30 f i libucrtd:output.obj
 0001:00054a50       ?validate_state_for_type_case_a@?$standard_base@_WV?$stream_output_adapter@_W@__crt_stdio_output@@@__crt_stdio_output@@IBE_NXZ 00455a50 f i libucrtd:output.obj
 0001:00054a70       ?validate_state_for_type_case_a@?$standard_base@_WV?$string_output_adapter@_W@__crt_stdio_output@@@__crt_stdio_output@@IBE_NXZ 00455a70 f i libucrtd:output.obj
 0001:00054a90       ?validate_stream_is_ansi_if_required@?$__acrt_stdio_char_traits@D@@SA_NQAU_iobuf@@@Z 00455a90 f i libucrtd:output.obj
 0001:00054c10       ?validate_stream_is_ansi_if_required@?$__acrt_stdio_char_traits@_W@@SA_NQAU_iobuf@@@Z 00455c10 f i libucrtd:output.obj
 0001:00054c20       ?wide_null_string@?$output_processor@DV?$stream_output_adapter@D@__crt_stdio_output@@V?$format_validation_base@DV?$stream_output_adapter@D@__crt_stdio_output@@@2@@__crt_stdio_output@@CAPA_WXZ 00455c20 f i libucrtd:output.obj
 0001:00054c30       ?wide_null_string@?$output_processor@DV?$stream_output_adapter@D@__crt_stdio_output@@V?$positional_parameter_base@DV?$stream_output_adapter@D@__crt_stdio_output@@@2@@__crt_stdio_output@@CAPA_WXZ 00455c30 f i libucrtd:output.obj
 0001:00054c40       ?wide_null_string@?$output_processor@DV?$stream_output_adapter@D@__crt_stdio_output@@V?$standard_base@DV?$stream_output_adapter@D@__crt_stdio_output@@@2@@__crt_stdio_output@@CAPA_WXZ 00455c40 f i libucrtd:output.obj
 0001:00054c50       ?wide_null_string@?$output_processor@DV?$string_output_adapter@D@__crt_stdio_output@@V?$format_validation_base@DV?$string_output_adapter@D@__crt_stdio_output@@@2@@__crt_stdio_output@@CAPA_WXZ 00455c50 f i libucrtd:output.obj
 0001:00054c60       ?wide_null_string@?$output_processor@DV?$string_output_adapter@D@__crt_stdio_output@@V?$positional_parameter_base@DV?$string_output_adapter@D@__crt_stdio_output@@@2@@__crt_stdio_output@@CAPA_WXZ 00455c60 f i libucrtd:output.obj
 0001:00054c70       ?wide_null_string@?$output_processor@DV?$string_output_adapter@D@__crt_stdio_output@@V?$standard_base@DV?$string_output_adapter@D@__crt_stdio_output@@@2@@__crt_stdio_output@@CAPA_WXZ 00455c70 f i libucrtd:output.obj
 0001:00054c80       ?wide_null_string@?$output_processor@_WV?$stream_output_adapter@_W@__crt_stdio_output@@V?$format_validation_base@_WV?$stream_output_adapter@_W@__crt_stdio_output@@@2@@__crt_stdio_output@@CAPA_WXZ 00455c80 f i libucrtd:output.obj
 0001:00054c90       ?wide_null_string@?$output_processor@_WV?$stream_output_adapter@_W@__crt_stdio_output@@V?$positional_parameter_base@_WV?$stream_output_adapter@_W@__crt_stdio_output@@@2@@__crt_stdio_output@@CAPA_WXZ 00455c90 f i libucrtd:output.obj
 0001:00054ca0       ?wide_null_string@?$output_processor@_WV?$stream_output_adapter@_W@__crt_stdio_output@@V?$standard_base@_WV?$stream_output_adapter@_W@__crt_stdio_output@@@2@@__crt_stdio_output@@CAPA_WXZ 00455ca0 f i libucrtd:output.obj
 0001:00054cb0       ?wide_null_string@?$output_processor@_WV?$string_output_adapter@_W@__crt_stdio_output@@V?$format_validation_base@_WV?$string_output_adapter@_W@__crt_stdio_output@@@2@@__crt_stdio_output@@CAPA_WXZ 00455cb0 f i libucrtd:output.obj
 0001:00054cc0       ?wide_null_string@?$output_processor@_WV?$string_output_adapter@_W@__crt_stdio_output@@V?$positional_parameter_base@_WV?$string_output_adapter@_W@__crt_stdio_output@@@2@@__crt_stdio_output@@CAPA_WXZ 00455cc0 f i libucrtd:output.obj
 0001:00054cd0       ?wide_null_string@?$output_processor@_WV?$string_output_adapter@_W@__crt_stdio_output@@V?$standard_base@_WV?$string_output_adapter@_W@__crt_stdio_output@@@2@@__crt_stdio_output@@CAPA_WXZ 00455cd0 f i libucrtd:output.obj
 0001:00054ce0       ?write_character@?$stream_output_adapter@D@__crt_stdio_output@@QBEXDQAH@Z 00455ce0 f i libucrtd:output.obj
 0001:00054d80       ?write_character@?$stream_output_adapter@_W@__crt_stdio_output@@QBEX_WQAH@Z 00455d80 f i libucrtd:output.obj
 0001:00054e20       ?write_character@?$string_output_adapter@D@__crt_stdio_output@@QBE_NDQAH@Z 00455e20 f i libucrtd:output.obj
 0001:00054ee0       ?write_character@?$string_output_adapter@_W@__crt_stdio_output@@QBE_N_WQAH@Z 00455ee0 f i libucrtd:output.obj
 0001:00054fa0       ?write_stored_string_tchar@?$output_processor@DV?$stream_output_adapter@D@__crt_stdio_output@@V?$format_validation_base@DV?$stream_output_adapter@D@__crt_stdio_output@@@2@@__crt_stdio_output@@AAE_ND@Z 00455fa0 f i libucrtd:output.obj
 0001:000550f0       ?write_stored_string_tchar@?$output_processor@DV?$stream_output_adapter@D@__crt_stdio_output@@V?$positional_parameter_base@DV?$stream_output_adapter@D@__crt_stdio_output@@@2@@__crt_stdio_output@@AAE_ND@Z 004560f0 f i libucrtd:output.obj
 0001:00055240       ?write_stored_string_tchar@?$output_processor@DV?$stream_output_adapter@D@__crt_stdio_output@@V?$standard_base@DV?$stream_output_adapter@D@__crt_stdio_output@@@2@@__crt_stdio_output@@AAE_ND@Z 00456240 f i libucrtd:output.obj
 0001:00055390       ?write_stored_string_tchar@?$output_processor@DV?$string_output_adapter@D@__crt_stdio_output@@V?$format_validation_base@DV?$string_output_adapter@D@__crt_stdio_output@@@2@@__crt_stdio_output@@AAE_ND@Z 00456390 f i libucrtd:output.obj
 0001:000554e0       ?write_stored_string_tchar@?$output_processor@DV?$string_output_adapter@D@__crt_stdio_output@@V?$positional_parameter_base@DV?$string_output_adapter@D@__crt_stdio_output@@@2@@__crt_stdio_output@@AAE_ND@Z 004564e0 f i libucrtd:output.obj
 0001:00055630       ?write_stored_string_tchar@?$output_processor@DV?$string_output_adapter@D@__crt_stdio_output@@V?$standard_base@DV?$string_output_adapter@D@__crt_stdio_output@@@2@@__crt_stdio_output@@AAE_ND@Z 00456630 f i libucrtd:output.obj
 0001:00055780       ?write_stored_string_tchar@?$output_processor@_WV?$stream_output_adapter@_W@__crt_stdio_output@@V?$format_validation_base@_WV?$stream_output_adapter@_W@__crt_stdio_output@@@2@@__crt_stdio_output@@AAE_N_W@Z 00456780 f i libucrtd:output.obj
 0001:000558a0       ?write_stored_string_tchar@?$output_processor@_WV?$stream_output_adapter@_W@__crt_stdio_output@@V?$positional_parameter_base@_WV?$stream_output_adapter@_W@__crt_stdio_output@@@2@@__crt_stdio_output@@AAE_N_W@Z 004568a0 f i libucrtd:output.obj
 0001:000559c0       ?write_stored_string_tchar@?$output_processor@_WV?$stream_output_adapter@_W@__crt_stdio_output@@V?$standard_base@_WV?$stream_output_adapter@_W@__crt_stdio_output@@@2@@__crt_stdio_output@@AAE_N_W@Z 004569c0 f i libucrtd:output.obj
 0001:00055ae0       ?write_stored_string_tchar@?$output_processor@_WV?$string_output_adapter@_W@__crt_stdio_output@@V?$format_validation_base@_WV?$string_output_adapter@_W@__crt_stdio_output@@@2@@__crt_stdio_output@@AAE_N_W@Z 00456ae0 f i libucrtd:output.obj
 0001:00055c00       ?write_stored_string_tchar@?$output_processor@_WV?$string_output_adapter@_W@__crt_stdio_output@@V?$positional_parameter_base@_WV?$string_output_adapter@_W@__crt_stdio_output@@@2@@__crt_stdio_output@@AAE_N_W@Z 00456c00 f i libucrtd:output.obj
 0001:00055d20       ?write_stored_string_tchar@?$output_processor@_WV?$string_output_adapter@_W@__crt_stdio_output@@V?$standard_base@_WV?$string_output_adapter@_W@__crt_stdio_output@@@2@@__crt_stdio_output@@AAE_N_W@Z 00456d20 f i libucrtd:output.obj
 0001:00055e40       ?write_string@?$stream_output_adapter@D@__crt_stdio_output@@QBEXQBDHQAH1@Z 00456e40 f i libucrtd:output.obj
 0001:00055f20       ?write_string@?$stream_output_adapter@_W@__crt_stdio_output@@QBEXQB_WHQAH1@Z 00456f20 f i libucrtd:output.obj
 0001:00056000       ?write_string@?$string_output_adapter@D@__crt_stdio_output@@QBEXQBDHQAH1@Z 00457000 f i libucrtd:output.obj
 0001:00056160       ?write_string@?$string_output_adapter@_W@__crt_stdio_output@@QBEXQB_WHQAH1@Z 00457160 f i libucrtd:output.obj
 0001:000562c0       ___acrt_isleadbyte_l_noupdate 004572c0 f i libucrtd:output.obj
 0001:000562f0       ___acrt_locale_changed     004572f0 f i libucrtd:output.obj
 0001:00056330       ___stdio_common_vfprintf   00457330 f   libucrtd:output.obj
 0001:00056360       ___stdio_common_vfprintf_p 00457360 f   libucrtd:output.obj
 0001:00056390       ___stdio_common_vfprintf_s 00457390 f   libucrtd:output.obj
 0001:000563c0       ___stdio_common_vfwprintf  004573c0 f   libucrtd:output.obj
 0001:000563f0       ___stdio_common_vfwprintf_p 004573f0 f   libucrtd:output.obj
 0001:00056420       ___stdio_common_vfwprintf_s 00457420 f   libucrtd:output.obj
 0001:00056450       ___stdio_common_vsnprintf_s 00457450 f   libucrtd:output.obj
 0001:00056490       ___stdio_common_vsnwprintf_s 00457490 f   libucrtd:output.obj
 0001:000564d0       ___stdio_common_vsprintf   004574d0 f   libucrtd:output.obj
 0001:00056510       ___stdio_common_vsprintf_p 00457510 f   libucrtd:output.obj
 0001:00056550       ___stdio_common_vsprintf_s 00457550 f   libucrtd:output.obj
 0001:00056590       ___stdio_common_vswprintf  00457590 f   libucrtd:output.obj
 0001:000565d0       ___stdio_common_vswprintf_p 004575d0 f   libucrtd:output.obj
 0001:00056610       ___stdio_common_vswprintf_s 00457610 f   libucrtd:output.obj
 0001:00056650       _free                      00457650 f   libucrtd:free.obj
 0001:00056670       _malloc                    00457670 f   libucrtd:malloc.obj
 0001:00056690       ??$?B$$A6GXPAXK0@Z@__crt_fast_encoded_nullptr_t@@QBEP6GXPAXK0@ZXZ 00457690 f i libucrtd:exit.obj
 0001:000566b0       ??$__crt_fast_decode_pointer@P6GXPAXK0@Z@@YAP6GXPAXK0@ZQ6GX0K0@Z@Z 004576b0 f i libucrtd:exit.obj
 0001:000566f0       ??$__crt_fast_encode_pointer@P6GXPAXK0@Z@@YAP6GXPAXK0@ZQ6GX0K0@Z@Z 004576f0 f i libucrtd:exit.obj
 0001:00056730       ??$__crt_get_proc_address@P6GXI@Z@@YAP6GXI@ZQAUHINSTANCE__@@QBD@Z 00457730 f i libucrtd:exit.obj
 0001:00056750       ??0?$__crt_unique_handle_t@U__crt_hmodule_traits@@@@QAE@QAUHINSTANCE__@@@Z 00457750 f i libucrtd:exit.obj
 0001:00056770       ??1?$__crt_unique_handle_t@U__crt_hmodule_traits@@@@QAE@XZ 00457770 f i libucrtd:exit.obj
 0001:000567b0       ?close@?$__crt_unique_handle_t@U__crt_hmodule_traits@@@@QAEXXZ 004577b0 f i libucrtd:exit.obj
 0001:000567f0       ?close@__crt_hmodule_traits@@SA_NPAUHINSTANCE__@@@Z 004577f0 f i libucrtd:exit.obj
 0001:00056ab0       ?get@?$__crt_unique_handle_t@U__crt_hmodule_traits@@@@QBEPAUHINSTANCE__@@XZ 00457ab0 f i libucrtd:exit.obj
 0001:00056ad0       ?get_address_of@?$__crt_unique_handle_t@U__crt_hmodule_traits@@@@QAEPAPAUHINSTANCE__@@XZ 00457ad0 f i libucrtd:exit.obj
 0001:00056af0       ?get_invalid_value@__crt_hmodule_traits@@SAPAUHINSTANCE__@@XZ 00457af0 f i libucrtd:exit.obj
 0001:00056cd0       __Exit                     00457cd0 f   libucrtd:exit.obj
 0001:00056cf0       ___acrt_initialize_thread_local_exit_callback 00457cf0 f   libucrtd:exit.obj
 0001:00056d10       __c_exit                   00457d10 f   libucrtd:exit.obj
 0001:00056d30       __cexit                    00457d30 f   libucrtd:exit.obj
 0001:00056d50       __exit                     00457d50 f   libucrtd:exit.obj
 0001:00056d70       __is_c_termination_complete 00457d70 f   libucrtd:exit.obj
 0001:00056d90       __register_thread_local_exe_atexit_callback 00457d90 f   libucrtd:exit.obj
 0001:00056de0       _exit                      00457de0 f   libucrtd:exit.obj
 0001:00056e00       _quick_exit                00457e00 f   libucrtd:exit.obj
 0001:00056e20       _strcpy                    00457e20 f   libucrtd:strcat.obj
 0001:00056e30       _strcat                    00457e30 f   libucrtd:strcat.obj
 0001:00056f60       _strcmp                    00457f60 f   libucrtd:strcmp.obj
 0001:00057010       _strlen                    00458010 f   libucrtd:strlen.obj
 0001:000570c0       ??0__crt_stdio_stream@@QAE@QAU__crt_stdio_stream_data@@@Z 004580c0 f i libucrtd:fflush.obj
 0001:000570e0       ___acrt_stdio_flush_nolock 004580e0 f   libucrtd:fflush.obj
 0001:000571f0       __fflush_nolock            004581f0 f   libucrtd:fflush.obj
 0001:00057290       __flushall                 00458290 f   libucrtd:fflush.obj
 0001:000574b0       _fflush                    004584b0 f   libucrtd:fflush.obj
 0001:00057580       _strncpy                   00458580 f   libucrtd:strncpy.obj
 0001:000576f0       __abs64                    004586f0 f   libucrtd:abs.obj
 0001:00057750       _abs                       00458750 f   libucrtd:abs.obj
 0001:00057780       _strncat                   00458780 f   libucrtd:strncat.obj
 0001:00058950       ??$localtime_s@PAUtm@@ABQBJ@?$__crt_integer_traits@J@@SAH$$QAPAUtm@@ABQBJ@Z 00459950 f i libucrtd:ctime.obj
 0001:00058980       ??$localtime_s@PAUtm@@ABQB_J@?$__crt_integer_traits@_J@@SAH$$QAPAUtm@@ABQB_J@Z 00459980 f i libucrtd:ctime.obj
 0001:000589b0       ??$tasctime@PAUtm@@@?$__crt_char_traits@D@@SAPAD$$QAPAUtm@@@Z 004599b0 f i libucrtd:ctime.obj
 0001:000589d0       ??$tasctime@PAUtm@@@?$__crt_char_traits@_W@@SAPA_W$$QAPAUtm@@@Z 004599d0 f i libucrtd:ctime.obj
 0001:000589f0       ??$tasctime_s@ABQADABIPAUtm@@@?$__crt_char_traits@D@@SAHABQADABI$$QAPAUtm@@@Z 004599f0 f i libucrtd:ctime.obj
 0001:00058a20       ??$tasctime_s@ABQA_WABIPAUtm@@@?$__crt_char_traits@_W@@SAHABQA_WABI$$QAPAUtm@@@Z 00459a20 f i libucrtd:ctime.obj
 0001:00058a50       __ctime32                  00459a50 f   libucrtd:ctime.obj
 0001:00058a70       __ctime32_s                00459a70 f   libucrtd:ctime.obj
 0001:00058aa0       __ctime64                  00459aa0 f   libucrtd:ctime.obj
 0001:00058ac0       __ctime64_s                00459ac0 f   libucrtd:ctime.obj
 0001:00058af0       __wctime32                 00459af0 f   libucrtd:ctime.obj
 0001:00058b10       __wctime32_s               00459b10 f   libucrtd:ctime.obj
 0001:00058b40       __wctime64                 00459b40 f   libucrtd:ctime.obj
 0001:00058b60       __wctime64_s               00459b60 f   libucrtd:ctime.obj
 0001:00058f80       __time32                   00459f80 f   libucrtd:time.obj
 0001:00058fa0       __time64                   00459fa0 f   libucrtd:time.obj
 0001:00058fc0       __timespec32_get           00459fc0 f   libucrtd:time.obj
 0001:00058fe0       __timespec64_get           00459fe0 f   libucrtd:time.obj
 0001:00059000       _fabs                      0045a000 f   libucrtd:fabs.obj
 0001:00059700       ___acrt_get_locale_data_prefix 0045a700 f i libucrtd:tolower_toupper.obj
 0001:00059720       __chvalidchk_l             0045a720 f i libucrtd:tolower_toupper.obj
 0001:00059750       __ischartype_l             0045a750 f i libucrtd:tolower_toupper.obj
 0001:000597b0       __tolower                  0045a7b0 f   libucrtd:tolower_toupper.obj
 0001:000597c0       __tolower_l                0045a7c0 f   libucrtd:tolower_toupper.obj
 0001:000597f0       __toupper                  0045a7f0 f   libucrtd:tolower_toupper.obj
 0001:00059800       __toupper_l                0045a800 f   libucrtd:tolower_toupper.obj
 0001:00059830       _tolower                   0045a830 f   libucrtd:tolower_toupper.obj
 0001:000598a0       _toupper                   0045a8a0 f   libucrtd:tolower_toupper.obj
 0001:00059910       _strncmp                   0045a910 f   libucrtd:strncmp.obj
 0001:000599b0       __errcode                  0045a9b0 f   libucrtd:fpexcept.obj
 0001:00059a40       __except1                  0045aa40 f   libucrtd:fpexcept.obj
 0001:00059b80       __except2                  0045ab80 f   libucrtd:fpexcept.obj
 0001:00059d30       __handle_exc               0045ad30 f   libucrtd:fpexcept.obj
 0001:0005a110       __handle_qnan2             0045b110 f   libucrtd:fpexcept.obj
 0001:0005a130       __raise_exc                0045b130 f   libucrtd:fpexcept.obj
 0001:0005a170       __raise_exc_ex             0045b170 f   libucrtd:fpexcept.obj
 0001:0005a850       __raise_excf               0045b850 f   libucrtd:fpexcept.obj
 0001:0005a890       __set_errno_from_matherr   0045b890 f   libucrtd:fpexcept.obj
 0001:0005a8e0       __umatherr                 0045b8e0 f   libucrtd:fpexcept.obj
 0001:0005aa10       __seh_filter_dll           0045ba10 f   libucrtd:exception_filter.obj
 0001:0005aa40       __seh_filter_exe           0045ba40 f   libucrtd:exception_filter.obj
 0001:0005af00       ___acrt_report_runtime_error 0045bf00 f   libucrtd:report_runtime_error.obj
 0001:0005b170       __invoke_watson_if_error   0045c170 f i libucrtd:report_runtime_error.obj
 0001:0005b1b0       __query_app_type           0045c1b0 f   libucrtd:report_runtime_error.obj
 0001:0005b1c0       __set_app_type             0045c1c0 f   libucrtd:report_runtime_error.obj
 0001:0005b1e0       ??$__crt_fast_decode_pointer@P6AHPAU_exception@@@Z@@YAP6AHPAU_exception@@@ZQ6AH0@Z@Z 0045c1e0 f i libucrtd:matherr.obj
 0001:0005b220       ??$__crt_fast_encode_pointer@P6AHPAU_exception@@@Z@@YAP6AHPAU_exception@@@ZQ6AH0@Z@Z 0045c220 f i libucrtd:matherr.obj
 0001:0005b260       ?get_current_state_index@__crt_state_management@@YAIXZ 0045c260 f i libucrtd:matherr.obj
 0001:0005b270       ?initialize@?$dual_state_global@P6AHPAU_exception@@@Z@__crt_state_management@@QAEXQ6AHPAU_exception@@@Z@Z 0045c270 f i libucrtd:matherr.obj
 0001:0005b2c0       ?value@?$dual_state_global@P6AHPAU_exception@@@Z@__crt_state_management@@QAEAAP6AHPAU_exception@@@ZXZ 0045c2c0 f i libucrtd:matherr.obj
 0001:0005b2e0       ___acrt_has_user_matherr   0045c2e0 f   libucrtd:matherr.obj
 0001:0005b330       ___acrt_initialize_user_matherr 0045c330 f   libucrtd:matherr.obj
 0001:0005b350       ___acrt_invoke_user_matherr 0045c350 f   libucrtd:matherr.obj
 0001:0005b3d0       ___setusermatherr          0045c3d0 f   libucrtd:matherr.obj
 0001:0005b400       ??$?RE@__crt_internal_free_policy@@QBEXQBE@Z 0045c400 f i libucrtd:argv_parsing.obj
 0001:0005b430       ??$?RPAD@__crt_internal_free_policy@@QBEXQBQAD@Z 0045c430 f i libucrtd:argv_parsing.obj
 0001:0005b460       ??$?RPA_W@__crt_internal_free_policy@@QBEXQBQA_W@Z 0045c460 f i libucrtd:argv_parsing.obj
 0001:0005bb10       ??$get_module_file_name@$$TAAY0BAF@DH@?$__crt_char_traits@D@@SAK$$QA$$TAAY0BAF@D$$QAH@Z 0045cb10 f i libucrtd:argv_parsing.obj
 0001:0005bb40       ??$get_module_file_name@$$TAAY0BAF@_WH@?$__crt_char_traits@_W@@SAK$$QA$$TAAY0BAF@_W$$QAH@Z 0045cb40 f i libucrtd:argv_parsing.obj
 0001:0005c430       ??$set_program_name@PAD@?$__crt_char_traits@D@@SAX$$QAPAD@Z 0045d430 f i libucrtd:argv_parsing.obj
 0001:0005c450       ??$set_program_name@PA_W@?$__crt_char_traits@_W@@SAX$$QAPA_W@Z 0045d450 f i libucrtd:argv_parsing.obj
 0001:0005c4b0       ??0?$__crt_unique_heap_ptr@EU__crt_internal_free_policy@@@@QAE@QAE@Z 0045d4b0 f i libucrtd:argv_parsing.obj
 0001:0005c4d0       ??0?$__crt_unique_heap_ptr@PADU__crt_internal_free_policy@@@@QAE@QAPAD@Z 0045d4d0 f i libucrtd:argv_parsing.obj
 0001:0005c4f0       ??0?$__crt_unique_heap_ptr@PA_WU__crt_internal_free_policy@@@@QAE@QAPA_W@Z 0045d4f0 f i libucrtd:argv_parsing.obj
 0001:0005c510       ??1?$__crt_unique_heap_ptr@EU__crt_internal_free_policy@@@@QAE@XZ 0045d510 f i libucrtd:argv_parsing.obj
 0001:0005c530       ??1?$__crt_unique_heap_ptr@PADU__crt_internal_free_policy@@@@QAE@XZ 0045d530 f i libucrtd:argv_parsing.obj
 0001:0005c550       ??1?$__crt_unique_heap_ptr@PA_WU__crt_internal_free_policy@@@@QAE@XZ 0045d550 f i libucrtd:argv_parsing.obj
 0001:0005c570       ??B?$__crt_unique_heap_ptr@EU__crt_internal_free_policy@@@@QBE_NXZ 0045d570 f i libucrtd:argv_parsing.obj
 0001:0005c650       ?detach@?$__crt_unique_heap_ptr@EU__crt_internal_free_policy@@@@QAEPAEXZ 0045d650 f i libucrtd:argv_parsing.obj
 0001:0005c680       ?detach@?$__crt_unique_heap_ptr@PADU__crt_internal_free_policy@@@@QAEPAPADXZ 0045d680 f i libucrtd:argv_parsing.obj
 0001:0005c6b0       ?detach@?$__crt_unique_heap_ptr@PA_WU__crt_internal_free_policy@@@@QAEPAPA_WXZ 0045d6b0 f i libucrtd:argv_parsing.obj
 0001:0005c740       ?get@?$__crt_unique_heap_ptr@EU__crt_internal_free_policy@@@@QBEPAEXZ 0045d740 f i libucrtd:argv_parsing.obj
 0001:0005c760       ?get@?$__crt_unique_heap_ptr@PADU__crt_internal_free_policy@@@@QBEPAPADXZ 0045d760 f i libucrtd:argv_parsing.obj
 0001:0005c780       ?get@?$__crt_unique_heap_ptr@PA_WU__crt_internal_free_policy@@@@QBEPAPA_WXZ 0045d780 f i libucrtd:argv_parsing.obj
 0001:0005c7a0       ?get_address_of@?$__crt_unique_heap_ptr@PADU__crt_internal_free_policy@@@@QAEPAPAPADXZ 0045d7a0 f i libucrtd:argv_parsing.obj
 0001:0005c7c0       ?get_address_of@?$__crt_unique_heap_ptr@PA_WU__crt_internal_free_policy@@@@QAEPAPAPA_WXZ 0045d7c0 f i libucrtd:argv_parsing.obj
 0001:0005c820       ?is_valid@?$__crt_unique_heap_ptr@EU__crt_internal_free_policy@@@@QBE_NXZ 0045d820 f i libucrtd:argv_parsing.obj
 0001:0005c860       ?release@?$__crt_unique_heap_ptr@EU__crt_internal_free_policy@@@@QAEXXZ 0045d860 f i libucrtd:argv_parsing.obj
 0001:0005c8a0       ?release@?$__crt_unique_heap_ptr@PADU__crt_internal_free_policy@@@@QAEXXZ 0045d8a0 f i libucrtd:argv_parsing.obj
 0001:0005c8e0       ?release@?$__crt_unique_heap_ptr@PA_WU__crt_internal_free_policy@@@@QAEXXZ 0045d8e0 f i libucrtd:argv_parsing.obj
 0001:0005c970       ___acrt_allocate_buffer_for_argv 0045d970 f   libucrtd:argv_parsing.obj
 0001:0005ca60       __configure_narrow_argv    0045da60 f   libucrtd:argv_parsing.obj
 0001:0005ca80       __configure_wide_argv      0045da80 f   libucrtd:argv_parsing.obj
 0001:0005caa0       __set_pgmptr               0045daa0 f i libucrtd:argv_parsing.obj
 0001:0005cac0       __set_wpgmptr              0045dac0 f i libucrtd:argv_parsing.obj
 0001:0005d033       ??$get_environment_from_os@$$$V@?$__crt_char_traits@D@@SAPADXZ 0045e033 f i libucrtd:environment_initialization.obj
 0001:0005d038       ??$get_environment_from_os@$$$V@?$__crt_char_traits@_W@@SAPA_WXZ 0045e038 f i libucrtd:environment_initialization.obj
 0001:0005d19f       ??$set_variable_in_environment_nolock@PADH@?$__crt_char_traits@D@@SAH$$QAPAD$$QAH@Z 0045e19f f i libucrtd:environment_initialization.obj
 0001:0005d1bd       ??$set_variable_in_environment_nolock@PA_WH@?$__crt_char_traits@_W@@SAH$$QAPA_W$$QAH@Z 0045e1bd f i libucrtd:environment_initialization.obj
 0001:0005d1db       ??$tcscpy_s@PADABIAAPAD@?$__crt_char_traits@D@@SAH$$QAPADABIAAPAD@Z 0045e1db f i libucrtd:environment_initialization.obj
 0001:0005d200       ??$tcscpy_s@PA_WABIAAPA_W@?$__crt_char_traits@_W@@SAH$$QAPA_WABIAAPA_W@Z 0045e200 f i libucrtd:environment_initialization.obj
 0001:0005d225       ??$tcslen@AAPAD@?$__crt_char_traits@D@@SAIAAPAD@Z 0045e225 f i libucrtd:environment_initialization.obj
 0001:0005d243       ??$tcslen@AAPA_W@?$__crt_char_traits@_W@@SAIAAPA_W@Z 0045e243 f i libucrtd:environment_initialization.obj
 0001:0005d268       ??$uninitialize@A6AXAAPAPAD@Z@?$dual_state_global@PAPAD@__crt_state_management@@QAEXA6AXAAPAPAD@Z@Z 0045e268 f i libucrtd:environment_initialization.obj
 0001:0005d2b8       ??$uninitialize@A6AXAAPAPA_W@Z@?$dual_state_global@PAPA_W@__crt_state_management@@QAEXA6AXAAPAPA_W@Z@Z 0045e2b8 f i libucrtd:environment_initialization.obj
 0001:0005d34a       ??B?$__crt_unique_heap_ptr@PADU__crt_internal_free_policy@@@@QBE_NXZ 0045e34a f i libucrtd:environment_initialization.obj
 0001:0005d354       ??B?$__crt_unique_heap_ptr@PA_WU__crt_internal_free_policy@@@@QBE_NXZ 0045e354 f i libucrtd:environment_initialization.obj
 0001:0005d35e       ??B?$__crt_unique_heap_ptr@_WU__crt_internal_free_policy@@@@QBE_NXZ 0045e35e f i libucrtd:environment_initialization.obj
 0001:0005d368       ?__crt_compute_required_transform_buffer_count@@YAIIQBD@Z 0045e368 f i libucrtd:environment_initialization.obj
 0001:0005d388       ?__crt_compute_required_transform_buffer_count@@YAIIQB_W@Z 0045e388 f i libucrtd:environment_initialization.obj
 0001:0005d3ab       ?__crt_transform_string@@YAIIQBDQA_WI@Z 0045e3ab f i libucrtd:environment_initialization.obj
 0001:0005d3cf       ?__crt_transform_string@@YAIIQB_WQADI@Z 0045e3cf f i libucrtd:environment_initialization.obj
 0001:0005d3f7       ?detach@?$__crt_unique_heap_ptr@DU__crt_internal_free_policy@@@@QAEPADXZ 0045e3f7 f i libucrtd:environment_initialization.obj
 0001:0005d3fd       ?detach@?$__crt_unique_heap_ptr@_WU__crt_internal_free_policy@@@@QAEPA_WXZ 0045e3fd f i libucrtd:environment_initialization.obj
 0001:0005d427       ?initialize@?$dual_state_global@PAPAD@__crt_state_management@@QAEXQAPAD@Z 0045e427 f i libucrtd:environment_initialization.obj
 0001:0005d464       ?initialize@?$dual_state_global@PAPA_W@__crt_state_management@@QAEXQAPA_W@Z 0045e464 f i libucrtd:environment_initialization.obj
 0001:0005d4a1       ?is_valid@?$__crt_unique_heap_ptr@PADU__crt_internal_free_policy@@@@QBE_NXZ 0045e4a1 f i libucrtd:environment_initialization.obj
 0001:0005d4ab       ?is_valid@?$__crt_unique_heap_ptr@PA_WU__crt_internal_free_policy@@@@QBE_NXZ 0045e4ab f i libucrtd:environment_initialization.obj
 0001:0005d4b5       ?is_valid@?$__crt_unique_heap_ptr@_WU__crt_internal_free_policy@@@@QBE_NXZ 0045e4b5 f i libucrtd:environment_initialization.obj
 0001:0005d4c5       ?value@?$dual_state_global@PAPAD@__crt_state_management@@QAEAAPAPADXZ 0045e4c5 f i libucrtd:environment_initialization.obj
 0001:0005d4c8       ?value@?$dual_state_global@PAPA_W@__crt_state_management@@QAEAAPAPA_WXZ 0045e4c8 f i libucrtd:environment_initialization.obj
 0001:0005d4cb       ___dcrt_get_or_create_narrow_environment_nolock 0045e4cb f   libucrtd:environment_initialization.obj
 0001:0005d4d0       ___dcrt_get_or_create_wide_environment_nolock 0045e4d0 f   libucrtd:environment_initialization.obj
 0001:0005d4d5       ___dcrt_uninitialize_environments_nolock 0045e4d5 f   libucrtd:environment_initialization.obj
 0001:0005d519       ___p__environ              0045e519 f   libucrtd:environment_initialization.obj
 0001:0005d51f       ___p__wenviron             0045e51f f   libucrtd:environment_initialization.obj
 0001:0005d525       __get_initial_narrow_environment 0045e525 f   libucrtd:environment_initialization.obj
 0001:0005d53e       __get_initial_wide_environment 0045e53e f   libucrtd:environment_initialization.obj
 0001:0005d557       __initialize_narrow_environment 0045e557 f   libucrtd:environment_initialization.obj
 0001:0005d55c       __initialize_wide_environment 0045e55c f   libucrtd:environment_initialization.obj
 0001:0005d570       __initterm                 0045e570 f   libucrtd:initterm.obj
 0001:0005d5e0       __initterm_e               0045e5e0 f   libucrtd:initterm.obj
 0001:0005d670       ??$__crt_interlocked_read@H@@YAHPDH@Z 0045e670 f i libucrtd:setmode.obj
 0001:0005d690       __get_fmode                0045e690 f   libucrtd:setmode.obj
 0001:0005d750       __set_fmode                0045e750 f   libucrtd:setmode.obj
 0001:0005d820       __setmode                  0045e820 f   libucrtd:setmode.obj
 0001:0005db80       __setmode_nolock           0045eb80 f   libucrtd:setmode.obj
 0001:0005de20       ___acrt_initialize_command_line 0045ee20 f   libucrtd:argv_data.obj
 0001:0005de50       ___acrt_uninitialize_command_line 0045ee50 f   libucrtd:argv_data.obj
 0001:0005de60       ___p___argc                0045ee60 f   libucrtd:argv_data.obj
 0001:0005de70       ___p___argv                0045ee70 f   libucrtd:argv_data.obj
 0001:0005de80       ___p___wargv               0045ee80 f   libucrtd:argv_data.obj
 0001:0005de90       ___p__acmdln               0045ee90 f   libucrtd:argv_data.obj
 0001:0005dea0       ___p__pgmptr               0045eea0 f   libucrtd:argv_data.obj
 0001:0005deb0       ___p__wcmdln               0045eeb0 f   libucrtd:argv_data.obj
 0001:0005dec0       ___p__wpgmptr              0045eec0 f   libucrtd:argv_data.obj
 0001:0005ded0       __get_pgmptr               0045eed0 f   libucrtd:argv_data.obj
 0001:0005e030       __get_wpgmptr              0045f030 f   libucrtd:argv_data.obj
 0001:0005e1a0       ??$?RU__crt_locale_data@@@__crt_internal_free_policy@@QBEXQBU__crt_locale_data@@@Z 0045f1a0 f i libucrtd:wsetlocale.obj
 0001:0005e1d0       ??$?RU__crt_locale_pointers@@@__crt_internal_free_policy@@QBEXQBU__crt_locale_pointers@@@Z 0045f1d0 f i libucrtd:wsetlocale.obj
 0001:0005e200       ??$?RU__crt_multibyte_data@@@__crt_internal_free_policy@@QBEXQBU__crt_multibyte_data@@@Z 0045f200 f i libucrtd:wsetlocale.obj
 0001:0005e230       ??$?RV<lambda_0f92d0c5a8007722f95b3b6c71cd8e3e>@@AAV<lambda_321f9d61c14d59ff00145e45db1313e0>@@V<lambda_3298c911d7b53f44106027a7fde9a80a>@@@?$__crt_seh_guarded_call@X@@QAEX$$QAV<lambda_0f92d0c5a8007722f95b3b6c71cd8e3e>@@AAV<lambda_321f9d61c14d59ff00145e45db1313e0>@@$$QAV<lambda_3298c911d7b53f44106027a7fde9a80a>@@@Z 0045f230 f i libucrtd:wsetlocale.obj
 0001:0005e2d0       ??$?RV<lambda_507d9fd6b66e39451a8852ba73f804a7>@@AAV<lambda_565169b3e3b494427ce1bebdd17b54ac>@@AAV<lambda_f51fe5fd7c79a33db34fc9310f277369>@@@?$__crt_seh_guarded_call@X@@QAEX$$QAV<lambda_507d9fd6b66e39451a8852ba73f804a7>@@AAV<lambda_565169b3e3b494427ce1bebdd17b54ac>@@AAV<lambda_f51fe5fd7c79a33db34fc9310f277369>@@@Z 0045f2d0 f i libucrtd:wsetlocale.obj
 0001:0005e370       ??$?RV<lambda_76aaead6e312921abc834cb00a638bdd>@@AAV<lambda_176e34f99554166dd2fac165c457248c>@@V<lambda_998ee1c9f4290b119b936bcd6215875a>@@@?$__crt_seh_guarded_call@X@@QAEX$$QAV<lambda_76aaead6e312921abc834cb00a638bdd>@@AAV<lambda_176e34f99554166dd2fac165c457248c>@@$$QAV<lambda_998ee1c9f4290b119b936bcd6215875a>@@@Z 0045f370 f i libucrtd:wsetlocale.obj
 0001:0005e410       ??$?RV<lambda_c9469061b39d205f0f236529d4a41659>@@AAV<lambda_b7fb1a997d3ebc0cc0186c5835178808>@@V<lambda_14b92c79d699846b5cc916cd4cf280e4>@@@?$__crt_seh_guarded_call@X@@QAEX$$QAV<lambda_c9469061b39d205f0f236529d4a41659>@@AAV<lambda_b7fb1a997d3ebc0cc0186c5835178808>@@$$QAV<lambda_14b92c79d699846b5cc916cd4cf280e4>@@@Z 0045f410 f i libucrtd:wsetlocale.obj
 0001:0005e4b0       ??$__acrt_lock_and_call@V<lambda_176e34f99554166dd2fac165c457248c>@@@@YAXW4__acrt_lock_id@@$$QAV<lambda_176e34f99554166dd2fac165c457248c>@@@Z 0045f4b0 f i libucrtd:wsetlocale.obj
 0001:0005e500       ??$__acrt_lock_and_call@V<lambda_321f9d61c14d59ff00145e45db1313e0>@@@@YAXW4__acrt_lock_id@@$$QAV<lambda_321f9d61c14d59ff00145e45db1313e0>@@@Z 0045f500 f i libucrtd:wsetlocale.obj
 0001:0005e550       ??$__acrt_lock_and_call@V<lambda_b7fb1a997d3ebc0cc0186c5835178808>@@@@YAXW4__acrt_lock_id@@$$QAV<lambda_b7fb1a997d3ebc0cc0186c5835178808>@@@Z 0045f550 f i libucrtd:wsetlocale.obj
 0001:0005e5a0       ??$__crt_call_and_cleanup@V<lambda_565169b3e3b494427ce1bebdd17b54ac>@@V<lambda_f51fe5fd7c79a33db34fc9310f277369>@@@@YAX$$QAV<lambda_565169b3e3b494427ce1bebdd17b54ac>@@$$QAV<lambda_f51fe5fd7c79a33db34fc9310f277369>@@@Z 0045f5a0 f i libucrtd:wsetlocale.obj
 0001:0005e5d0       ??$__vcrt_va_start_verify_argument_type@H@@YAXXZ 0045f5d0 f i libucrtd:wsetlocale.obj
 0001:0005e800       ??0?$__crt_unique_heap_ptr@U__crt_locale_data@@U__crt_internal_free_policy@@@@QAE@QAU__crt_locale_data@@@Z 0045f800 f i libucrtd:wsetlocale.obj
 0001:0005e820       ??0?$__crt_unique_heap_ptr@U__crt_locale_pointers@@U__crt_internal_free_policy@@@@QAE@QAU__crt_locale_pointers@@@Z 0045f820 f i libucrtd:wsetlocale.obj
 0001:0005e840       ??0?$__crt_unique_heap_ptr@U__crt_multibyte_data@@U__crt_internal_free_policy@@@@QAE@QAU__crt_multibyte_data@@@Z 0045f840 f i libucrtd:wsetlocale.obj
 0001:0005e860       ??1?$__crt_unique_heap_ptr@U__crt_locale_data@@U__crt_internal_free_policy@@@@QAE@XZ 0045f860 f i libucrtd:wsetlocale.obj
 0001:0005e880       ??1?$__crt_unique_heap_ptr@U__crt_locale_pointers@@U__crt_internal_free_policy@@@@QAE@XZ 0045f880 f i libucrtd:wsetlocale.obj
 0001:0005e8a0       ??1?$__crt_unique_heap_ptr@U__crt_multibyte_data@@U__crt_internal_free_policy@@@@QAE@XZ 0045f8a0 f i libucrtd:wsetlocale.obj
 0001:0005e8c0       ??B?$__crt_unique_heap_ptr@U__crt_locale_data@@U__crt_internal_free_policy@@@@QBE_NXZ 0045f8c0 f i libucrtd:wsetlocale.obj
 0001:0005e8e0       ??B?$__crt_unique_heap_ptr@U__crt_locale_pointers@@U__crt_internal_free_policy@@@@QBE_NXZ 0045f8e0 f i libucrtd:wsetlocale.obj
 0001:0005e900       ??B?$__crt_unique_heap_ptr@U__crt_multibyte_data@@U__crt_internal_free_policy@@@@QBE_NXZ 0045f900 f i libucrtd:wsetlocale.obj
 0001:0005ed40       ?detach@?$__crt_unique_heap_ptr@U__crt_locale_data@@U__crt_internal_free_policy@@@@QAEPAU__crt_locale_data@@XZ 0045fd40 f i libucrtd:wsetlocale.obj
 0001:0005ed70       ?detach@?$__crt_unique_heap_ptr@U__crt_locale_pointers@@U__crt_internal_free_policy@@@@QAEPAU__crt_locale_pointers@@XZ 0045fd70 f i libucrtd:wsetlocale.obj
 0001:0005eda0       ?detach@?$__crt_unique_heap_ptr@U__crt_multibyte_data@@U__crt_internal_free_policy@@@@QAEPAU__crt_multibyte_data@@XZ 0045fda0 f i libucrtd:wsetlocale.obj
 0001:0005edd0       ?get@?$__crt_unique_heap_ptr@U__crt_locale_data@@U__crt_internal_free_policy@@@@QBEPAU__crt_locale_data@@XZ 0045fdd0 f i libucrtd:wsetlocale.obj
 0001:0005edf0       ?get@?$__crt_unique_heap_ptr@U__crt_locale_pointers@@U__crt_internal_free_policy@@@@QBEPAU__crt_locale_pointers@@XZ 0045fdf0 f i libucrtd:wsetlocale.obj
 0001:0005ee10       ?get@?$__crt_unique_heap_ptr@U__crt_multibyte_data@@U__crt_internal_free_policy@@@@QBEPAU__crt_multibyte_data@@XZ 0045fe10 f i libucrtd:wsetlocale.obj
 0001:0005ee30       ?is_valid@?$__crt_unique_heap_ptr@U__crt_locale_data@@U__crt_internal_free_policy@@@@QBE_NXZ 0045fe30 f i libucrtd:wsetlocale.obj
 0001:0005ee70       ?is_valid@?$__crt_unique_heap_ptr@U__crt_locale_pointers@@U__crt_internal_free_policy@@@@QBE_NXZ 0045fe70 f i libucrtd:wsetlocale.obj
 0001:0005eeb0       ?is_valid@?$__crt_unique_heap_ptr@U__crt_multibyte_data@@U__crt_internal_free_policy@@@@QBE_NXZ 0045feb0 f i libucrtd:wsetlocale.obj
 0001:0005eef0       ?release@?$__crt_unique_heap_ptr@U__crt_locale_data@@U__crt_internal_free_policy@@@@QAEXXZ 0045fef0 f i libucrtd:wsetlocale.obj
 0001:0005ef30       ?release@?$__crt_unique_heap_ptr@U__crt_locale_pointers@@U__crt_internal_free_policy@@@@QAEXXZ 0045ff30 f i libucrtd:wsetlocale.obj
 0001:0005ef70       ?release@?$__crt_unique_heap_ptr@U__crt_multibyte_data@@U__crt_internal_free_policy@@@@QAEXXZ 0045ff70 f i libucrtd:wsetlocale.obj
 0001:0005efb0       ?value@?$dual_state_global@PAU__crt_locale_data@@@__crt_state_management@@QAEAAPAU__crt_locale_data@@XZ 0045ffb0 f i libucrtd:wsetlocale.obj
 0001:0005efd0       ___acrt_copy_locale_name   0045ffd0 f   libucrtd:wsetlocale.obj
 0001:0005f0a0       ___acrt_set_locale_changed 004600a0 f   libucrtd:wsetlocale.obj
 0001:0005f0c0       ___acrt_uninitialize_locale 004600c0 f   libucrtd:wsetlocale.obj
 0001:0005f190       ___lc_lctowcs              00460190 f   libucrtd:wsetlocale.obj
 0001:0005f270       ___lc_wcstolc              00460270 f   libucrtd:wsetlocale.obj
 0001:0005f520       __configthreadlocale       00460520 f   libucrtd:wsetlocale.obj
 0001:0005f700       __create_locale            00460700 f   libucrtd:wsetlocale.obj
 0001:0005f790       __expandlocale             00460790 f   libucrtd:wsetlocale.obj
 0001:0005fd90       __free_locale              00460d90 f   libucrtd:wsetlocale.obj
 0001:0005ff10       __get_current_locale       00460f10 f   libucrtd:wsetlocale.obj
 0001:00060010       __wcreate_locale           00461010 f   libucrtd:wsetlocale.obj
 0001:000602d0       __wcscats                  004612d0 f   libucrtd:wsetlocale.obj
 0001:00060370       __wsetlocale               00461370 f   libucrtd:wsetlocale.obj
 0001:00061680       ?value@?$dual_state_global@J@__crt_state_management@@QAEAAJXZ 00462680 f i libucrtd:new_mode.obj
 0001:000616a0       __query_new_mode           004626a0 f   libucrtd:new_mode.obj
 0001:000616c0       __set_new_mode             004626c0 f   libucrtd:new_mode.obj
 0001:00061790       ___p__commode              00462790 f   libucrtd:ncommode.obj
 0001:000617a0       ??$?BP6AXXZ@__crt_fast_encoded_nullptr_t@@QBEPAP6AXXZXZ 004627a0 f i libucrtd:onexit.obj
 0001:000617c0       ??$?RP6AXXZ@__crt_internal_free_policy@@QBEXQBQ6AXXZ@Z 004627c0 f i libucrtd:onexit.obj
 0001:000617f0       ??$?RV<lambda_821a00fc0e15a7fd532972332124005d>@@AAV<lambda_942beefa13ab35ff55f86422493ffd6a>@@V<lambda_3ab53bf64df1f1ff33dbc5b1929ce7a7>@@@?$__crt_seh_guarded_call@H@@QAEH$$QAV<lambda_821a00fc0e15a7fd532972332124005d>@@AAV<lambda_942beefa13ab35ff55f86422493ffd6a>@@$$QAV<lambda_3ab53bf64df1f1ff33dbc5b1929ce7a7>@@@Z 004627f0 f i libucrtd:onexit.obj
 0001:000618a0       ??$?RV<lambda_a12890e7f9ac9927a62bd0bbd5044c78>@@AAV<lambda_e971338317bfa523bb8920b43d823727>@@V<lambda_e618b16d59e79e236350cab8485990d2>@@@?$__crt_seh_guarded_call@H@@QAEH$$QAV<lambda_a12890e7f9ac9927a62bd0bbd5044c78>@@AAV<lambda_e971338317bfa523bb8920b43d823727>@@$$QAV<lambda_e618b16d59e79e236350cab8485990d2>@@@Z 004628a0 f i libucrtd:onexit.obj
 0001:00061950       ??$__acrt_lock_and_call@V<lambda_942beefa13ab35ff55f86422493ffd6a>@@@@YAHW4__acrt_lock_id@@$$QAV<lambda_942beefa13ab35ff55f86422493ffd6a>@@@Z 00462950 f i libucrtd:onexit.obj
 0001:000619a0       ??$__acrt_lock_and_call@V<lambda_e971338317bfa523bb8920b43d823727>@@@@YAHW4__acrt_lock_id@@$$QAV<lambda_e971338317bfa523bb8920b43d823727>@@@Z 004629a0 f i libucrtd:onexit.obj
 0001:000619f0       ??$__crt_fast_encode_pointer@P6AHXZ@@YAP6AHXZQ6AHXZ@Z 004629f0 f i libucrtd:onexit.obj
 0001:00061b40       ??0?$__crt_unique_heap_ptr@P6AXXZU__crt_internal_free_policy@@@@QAE@QAP6AXXZ@Z 00462b40 f i libucrtd:onexit.obj
 0001:00061b60       ??1?$__crt_unique_heap_ptr@P6AXXZU__crt_internal_free_policy@@@@QAE@XZ 00462b60 f i libucrtd:onexit.obj
 0001:000620d0       ?detach@?$__crt_unique_heap_ptr@P6AXXZU__crt_internal_free_policy@@@@QAEPAP6AXXZXZ 004630d0 f i libucrtd:onexit.obj
 0001:00062100       ?release@?$__crt_unique_heap_ptr@P6AXXZU__crt_internal_free_policy@@@@QAEXXZ 00463100 f i libucrtd:onexit.obj
 0001:00062140       __crt_at_quick_exit        00463140 f   libucrtd:onexit.obj
 0001:00062160       __crt_atexit               00463160 f   libucrtd:onexit.obj
 0001:00062180       __execute_onexit_table     00463180 f   libucrtd:onexit.obj
 0001:000621b0       __initialize_onexit_table  004631b0 f   libucrtd:onexit.obj
 0001:00062230       __register_onexit_function 00463230 f   libucrtd:onexit.obj
 0001:000624c0       ?initialize@?$dual_state_global@PAU__crt_locale_data@@@__crt_state_management@@QAEXQAU__crt_locale_data@@@Z 004634c0 f i libucrtd:initialization.obj
 0001:00062510       ___acrt_initialize         00463510 f   libucrtd:initialization.obj
 0001:00062530       ___acrt_thread_attach      00463530 f   libucrtd:initialization.obj
 0001:00062550       ___acrt_thread_detach      00463550 f   libucrtd:initialization.obj
 0001:00062570       ___acrt_uninitialize       00463570 f   libucrtd:initialization.obj
 0001:00062590       ___acrt_uninitialize_critical 00463590 f   libucrtd:initialization.obj
 0001:000625b0       __controlfp_s              004635b0 f   libucrtd:contrlfp.obj
 0001:00062710       __get_terminate            00463710 f   libucrtd:terminate.obj
 0001:00062730       _set_terminate             00463730 f   libucrtd:terminate.obj
 0001:00062770       _terminate                 00463770 f   libucrtd:terminate.obj
 0001:000646e0       __CrtCheckMemory           004656e0 f   libucrtd:debug_heap.obj
 0001:000648d0       __CrtDoForAllClientObjects 004658d0 f   libucrtd:debug_heap.obj
 0001:00064a80       __CrtDumpMemoryLeaks       00465a80 f   libucrtd:debug_heap.obj
 0001:00064b40       __CrtGetAllocHook          00465b40 f   libucrtd:debug_heap.obj
 0001:00064b50       __CrtGetDumpClient         00465b50 f   libucrtd:debug_heap.obj
 0001:00064b60       __CrtIsMemoryBlock         00465b60 f   libucrtd:debug_heap.obj
 0001:00064d00       __CrtIsValidHeapPointer    00465d00 f   libucrtd:debug_heap.obj
 0001:00064d40       __CrtIsValidPointer        00465d40 f   libucrtd:debug_heap.obj
 0001:00064d70       __CrtMemCheckpoint         00465d70 f   libucrtd:debug_heap.obj
 0001:00065030       __CrtMemDifference         00466030 f   libucrtd:debug_heap.obj
 0001:00065340       __CrtMemDumpAllObjectsSince 00466340 f   libucrtd:debug_heap.obj
 0001:00065400       __CrtMemDumpStatistics     00466400 f   libucrtd:debug_heap.obj
 0001:00065570       __CrtReportBlockType       00466570 f   libucrtd:debug_heap.obj
 0001:000655b0       __CrtSetAllocHook          004665b0 f   libucrtd:debug_heap.obj
 0001:000655e0       __CrtSetBreakAlloc         004665e0 f   libucrtd:debug_heap.obj
 0001:00065610       __CrtSetDbgBlockType       00466610 f   libucrtd:debug_heap.obj
 0001:00065720       __CrtSetDbgFlag            00466720 f   libucrtd:debug_heap.obj
 0001:000658f0       __CrtSetDumpClient         004668f0 f   libucrtd:debug_heap.obj
 0001:00065920       ___p__crtBreakAlloc        00466920 f   libucrtd:debug_heap.obj
 0001:00065930       ___p__crtDbgFlag           00466930 f   libucrtd:debug_heap.obj
 0001:00065940       __aligned_free_dbg         00466940 f   libucrtd:debug_heap.obj
 0001:00065a20       __aligned_malloc_dbg       00466a20 f   libucrtd:debug_heap.obj
 0001:00065a50       __aligned_msize_dbg        00466a50 f   libucrtd:debug_heap.obj
 0001:00065bc0       __aligned_offset_malloc_dbg 00466bc0 f   libucrtd:debug_heap.obj
 0001:00065e10       __aligned_offset_realloc_dbg 00466e10 f   libucrtd:debug_heap.obj
 0001:000661e0       __aligned_offset_recalloc_dbg 004671e0 f   libucrtd:debug_heap.obj
 0001:000662d0       __aligned_realloc_dbg      004672d0 f   libucrtd:debug_heap.obj
 0001:00066300       __aligned_recalloc_dbg     00467300 f   libucrtd:debug_heap.obj
 0001:00066340       __calloc_dbg               00467340 f   libucrtd:debug_heap.obj
 0001:000663d0       __expand_dbg               004673d0 f   libucrtd:debug_heap.obj
 0001:00066550       __free_dbg                 00467550 f   libucrtd:debug_heap.obj
 0001:00066630       __invoke_watson_if_oneof   00467630 f i libucrtd:debug_heap.obj
 0001:00066680       __malloc_dbg               00467680 f   libucrtd:debug_heap.obj
 0001:000666b0       __msize_dbg                004676b0 f   libucrtd:debug_heap.obj
 0001:000668a0       __realloc_dbg              004678a0 f   libucrtd:debug_heap.obj
 0001:00066970       __recalloc_dbg             00467970 f   libucrtd:debug_heap.obj
 0001:00066e20       _strcpy_s                  00467e20 f   libucrtd:strcpy_s.obj
 0001:00066e50       __set_abort_behavior       00467e50 f   libucrtd:abort.obj
 0001:00066e90       _abort                     00467e90 f   libucrtd:abort.obj
 0001:00066f20       ??$?RU?$__crt_report_hook_node@D@@@__crt_internal_free_policy@@QBEXQBU?$__crt_report_hook_node@D@@@Z 00467f20 f i libucrtd:dbgrpt.obj
 0001:00066f50       ??$?RU?$__crt_report_hook_node@_W@@@__crt_internal_free_policy@@QBEXQBU?$__crt_report_hook_node@_W@@@Z 00467f50 f i libucrtd:dbgrpt.obj
 0001:00066f80       ??$?RV<lambda_4385efabcfedf7d3ecea3114bb4d80a3>@@AAV<lambda_0e04737ef8baea6dabca2b8414b05b67>@@V<lambda_d865d276f220a9fa71140df531e906d8>@@@?$__crt_seh_guarded_call@H@@QAEH$$QAV<lambda_4385efabcfedf7d3ecea3114bb4d80a3>@@AAV<lambda_0e04737ef8baea6dabca2b8414b05b67>@@$$QAV<lambda_d865d276f220a9fa71140df531e906d8>@@@Z 00467f80 f i libucrtd:dbgrpt.obj
 0001:00067030       ??$?RV<lambda_cc3a1c0f52e01ba2b29fe175588291fc>@@AAV<lambda_fe667bea668416e0f0232b481cd5c955>@@V<lambda_bb8fdd70844b93de4445abd0f0332611>@@@?$__crt_seh_guarded_call@H@@QAEH$$QAV<lambda_cc3a1c0f52e01ba2b29fe175588291fc>@@AAV<lambda_fe667bea668416e0f0232b481cd5c955>@@$$QAV<lambda_bb8fdd70844b93de4445abd0f0332611>@@@Z 00468030 f i libucrtd:dbgrpt.obj
 0001:000670e0       ??$__acrt_lock_and_call@V<lambda_0e04737ef8baea6dabca2b8414b05b67>@@@@YAHW4__acrt_lock_id@@$$QAV<lambda_0e04737ef8baea6dabca2b8414b05b67>@@@Z 004680e0 f i libucrtd:dbgrpt.obj
 0001:00067130       ??$__acrt_lock_and_call@V<lambda_fe667bea668416e0f0232b481cd5c955>@@@@YAHW4__acrt_lock_id@@$$QAV<lambda_fe667bea668416e0f0232b481cd5c955>@@@Z 00468130 f i libucrtd:dbgrpt.obj
 0001:00067180       ??$__vcrt_va_start_verify_argument_type@QB_W@@YAXXZ 00468180 f i libucrtd:dbgrpt.obj
 0001:00068080       ??$get_module_file_name@AAPAUHINSTANCE__@@AAY0BAF@DK@?$__crt_char_traits@D@@SAKAAPAUHINSTANCE__@@AAY0BAF@D$$QAK@Z 00469080 f i libucrtd:dbgrpt.obj
 0001:000680b0       ??$get_module_file_name@AAPAUHINSTANCE__@@AAY0BAF@_WK@?$__crt_char_traits@_W@@SAKAAPAUHINSTANCE__@@AAY0BAF@_W$$QAK@Z 004690b0 f i libucrtd:dbgrpt.obj
 0001:000680e0       ??$tcscpy_s@AAY0BAF@DIPBD@?$__crt_char_traits@D@@SAHAAY0BAF@D$$QAI$$QAPBD@Z 004690e0 f i libucrtd:dbgrpt.obj
 0001:00068110       ??$tcscpy_s@AAY0BAF@_WIPB_W@?$__crt_char_traits@_W@@SAHAAY0BAF@_W$$QAI$$QAPB_W@Z 00469110 f i libucrtd:dbgrpt.obj
 0001:00068140       ??$tcslen@AAY0BAF@D@?$__crt_char_traits@D@@SAIAAY0BAF@D@Z 00469140 f i libucrtd:dbgrpt.obj
 0001:00068160       ??$tcslen@AAY0BAF@_W@?$__crt_char_traits@_W@@SAIAAY0BAF@_W@Z 00469160 f i libucrtd:dbgrpt.obj
 0001:00068180       ??$tcslen@ABQBD@?$__crt_char_traits@D@@SAIABQBD@Z 00469180 f i libucrtd:dbgrpt.obj
 0001:000681a0       ??$tcslen@ABQB_W@?$__crt_char_traits@_W@@SAIABQB_W@Z 004691a0 f i libucrtd:dbgrpt.obj
 0001:000682e0       ??0?$__crt_unique_heap_ptr@U?$__crt_report_hook_node@D@@U__crt_internal_free_policy@@@@QAE@QAU?$__crt_report_hook_node@D@@@Z 004692e0 f i libucrtd:dbgrpt.obj
 0001:00068300       ??0?$__crt_unique_heap_ptr@U?$__crt_report_hook_node@_W@@U__crt_internal_free_policy@@@@QAE@QAU?$__crt_report_hook_node@_W@@@Z 00469300 f i libucrtd:dbgrpt.obj
 0001:00068320       ??1?$__crt_unique_heap_ptr@U?$__crt_report_hook_node@D@@U__crt_internal_free_policy@@@@QAE@XZ 00469320 f i libucrtd:dbgrpt.obj
 0001:00068340       ??1?$__crt_unique_heap_ptr@U?$__crt_report_hook_node@_W@@U__crt_internal_free_policy@@@@QAE@XZ 00469340 f i libucrtd:dbgrpt.obj
 0001:00068360       ??B?$__crt_unique_heap_ptr@U?$__crt_report_hook_node@D@@U__crt_internal_free_policy@@@@QBE_NXZ 00469360 f i libucrtd:dbgrpt.obj
 0001:00068380       ??B?$__crt_unique_heap_ptr@U?$__crt_report_hook_node@_W@@U__crt_internal_free_policy@@@@QBE_NXZ 00469380 f i libucrtd:dbgrpt.obj
 0001:00068a20       ?detach@?$__crt_unique_heap_ptr@U?$__crt_report_hook_node@D@@U__crt_internal_free_policy@@@@QAEPAU?$__crt_report_hook_node@D@@XZ 00469a20 f i libucrtd:dbgrpt.obj
 0001:00068a50       ?detach@?$__crt_unique_heap_ptr@U?$__crt_report_hook_node@_W@@U__crt_internal_free_policy@@@@QAEPAU?$__crt_report_hook_node@_W@@XZ 00469a50 f i libucrtd:dbgrpt.obj
 0001:00068a80       ?get@?$__crt_unique_heap_ptr@U?$__crt_report_hook_node@D@@U__crt_internal_free_policy@@@@QBEPAU?$__crt_report_hook_node@D@@XZ 00469a80 f i libucrtd:dbgrpt.obj
 0001:00068aa0       ?get@?$__crt_unique_heap_ptr@U?$__crt_report_hook_node@_W@@U__crt_internal_free_policy@@@@QBEPAU?$__crt_report_hook_node@_W@@XZ 00469aa0 f i libucrtd:dbgrpt.obj
 0001:00068b20       ?is_valid@?$__crt_unique_heap_ptr@U?$__crt_report_hook_node@D@@U__crt_internal_free_policy@@@@QBE_NXZ 00469b20 f i libucrtd:dbgrpt.obj
 0001:00068b60       ?is_valid@?$__crt_unique_heap_ptr@U?$__crt_report_hook_node@_W@@U__crt_internal_free_policy@@@@QBE_NXZ 00469b60 f i libucrtd:dbgrpt.obj
 0001:00068ba0       ?release@?$__crt_unique_heap_ptr@U?$__crt_report_hook_node@D@@U__crt_internal_free_policy@@@@QAEXXZ 00469ba0 f i libucrtd:dbgrpt.obj
 0001:00068be0       ?release@?$__crt_unique_heap_ptr@U?$__crt_report_hook_node@_W@@U__crt_internal_free_policy@@@@QAEXXZ 00469be0 f i libucrtd:dbgrpt.obj
 0001:00068c20       __CrtDbgReport             00469c20 f   libucrtd:dbgrpt.obj
 0001:00068c80       __CrtDbgReportW            00469c80 f   libucrtd:dbgrpt.obj
 0001:00068ce0       __CrtSetReportHook2        00469ce0 f   libucrtd:dbgrpt.obj
 0001:00068d00       __CrtSetReportHookW2       00469d00 f   libucrtd:dbgrpt.obj
 0001:00068d20       ___acrt_MessageWindowA     00469d20 f   libucrtd:dbgrpt.obj
 0001:00068d50       ___acrt_MessageWindowW     00469d50 f   libucrtd:dbgrpt.obj
 0001:00068d80       __snwprintf_s              00469d80 f i libucrtd:dbgrpt.obj
 0001:00068de0       __vsnwprintf_s_l           00469de0 f i libucrtd:dbgrpt.obj
 0001:00068e50       _wcsncmp                   00469e50 f   libucrtd:wcsncmp.obj
 0001:00068ec0       ??$is_overflow_condition@K@__crt_strtox@@YA_NIK@Z 00469ec0 f i libucrtd:atox.obj
 0001:00068f30       ??$is_overflow_condition@_K@__crt_strtox@@YA_NI_K@Z 00469f30 f i libucrtd:atox.obj
 0001:00068fe0       ??$make_c_string_character_source@D$$T@__crt_strtox@@YA?AV?$c_string_character_source@D@0@QBD$$T@Z 00469fe0 f i libucrtd:atox.obj
 0001:00069000       ??$make_c_string_character_source@_W$$T@__crt_strtox@@YA?AV?$c_string_character_source@_W@0@QB_W$$T@Z 0046a000 f i libucrtd:atox.obj
 0001:00069020       ??$parse_integer@KV?$c_string_character_source@D@__crt_strtox@@@__crt_strtox@@YAKQAU__crt_locale_pointers@@V?$c_string_character_source@D@0@H_N@Z 0046a020 f i libucrtd:atox.obj
 0001:00069470       ??$parse_integer@KV?$c_string_character_source@_W@__crt_strtox@@@__crt_strtox@@YAKQAU__crt_locale_pointers@@V?$c_string_character_source@_W@0@H_N@Z 0046a470 f i libucrtd:atox.obj
 0001:000698c0       ??$parse_integer@_KV?$c_string_character_source@D@__crt_strtox@@@__crt_strtox@@YA_KQAU__crt_locale_pointers@@V?$c_string_character_source@D@0@H_N@Z 0046a8c0 f i libucrtd:atox.obj
 0001:00069de0       ??$parse_integer@_KV?$c_string_character_source@_W@__crt_strtox@@@__crt_strtox@@YA_KQAU__crt_locale_pointers@@V?$c_string_character_source@_W@0@H_N@Z 0046ade0 f i libucrtd:atox.obj
 0001:0006a320       ??$parse_integer_from_string@JD$$T@__crt_strtox@@YAJQBD$$THQAU__crt_locale_pointers@@@Z 0046b320 f i libucrtd:atox.obj
 0001:0006a370       ??$parse_integer_from_string@J_W$$T@__crt_strtox@@YAJQB_W$$THQAU__crt_locale_pointers@@@Z 0046b370 f i libucrtd:atox.obj
 0001:0006a3c0       ??$parse_integer_from_string@_JD$$T@__crt_strtox@@YA_JQBD$$THQAU__crt_locale_pointers@@@Z 0046b3c0 f i libucrtd:atox.obj
 0001:0006a410       ??$parse_integer_from_string@_J_W$$T@__crt_strtox@@YA_JQB_W$$THQAU__crt_locale_pointers@@@Z 0046b410 f i libucrtd:atox.obj
 0001:0006a460       ??0?$c_string_character_source@D@__crt_strtox@@QAE@QBDQAPBD@Z 0046b460 f i libucrtd:atox.obj
 0001:0006a4a0       ??0?$c_string_character_source@_W@__crt_strtox@@QAE@QB_WQAPB_W@Z 0046b4a0 f i libucrtd:atox.obj
 0001:0006a4e0       ??1?$c_string_character_source@D@__crt_strtox@@QAE@XZ 0046b4e0 f i libucrtd:atox.obj
 0001:0006a510       ??1?$c_string_character_source@_W@__crt_strtox@@QAE@XZ 0046b510 f i libucrtd:atox.obj
 0001:0006a540       ?get@?$c_string_character_source@D@__crt_strtox@@QAEDXZ 0046b540 f i libucrtd:atox.obj
 0001:0006a580       ?get@?$c_string_character_source@_W@__crt_strtox@@QAE_WXZ 0046b580 f i libucrtd:atox.obj
 0001:0006a5c0       ?is_space@__crt_strtox@@YA_NDQAU__crt_locale_pointers@@@Z 0046b5c0 f i libucrtd:atox.obj
 0001:0006a610       ?is_space@__crt_strtox@@YA_N_WPAU__crt_locale_pointers@@@Z 0046b610 f i libucrtd:atox.obj
 0001:0006a650       ?maximum_signed_value@__crt_strtox@@YAJK@Z 0046b650 f i libucrtd:atox.obj
 0001:0006a660       ?maximum_signed_value@__crt_strtox@@YA_J_K@Z 0046b660 f i libucrtd:atox.obj
 0001:0006a680       ?minimum_signed_value@__crt_strtox@@YAJK@Z 0046b680 f i libucrtd:atox.obj
 0001:0006a690       ?minimum_signed_value@__crt_strtox@@YA_J_K@Z 0046b690 f i libucrtd:atox.obj
 0001:0006a6b0       ?parse_digit@__crt_strtox@@YAID@Z 0046b6b0 f i libucrtd:atox.obj
 0001:0006a730       ?parse_digit@__crt_strtox@@YAI_W@Z 0046b730 f i libucrtd:atox.obj
 0001:0006a7d0       ?restore_state@?$c_string_character_source@D@__crt_strtox@@QAE_NQBD@Z 0046b7d0 f i libucrtd:atox.obj
 0001:0006a7f0       ?restore_state@?$c_string_character_source@_W@__crt_strtox@@QAE_NQB_W@Z 0046b7f0 f i libucrtd:atox.obj
 0001:0006a810       ?save_state@?$c_string_character_source@D@__crt_strtox@@QBEPBDXZ 0046b810 f i libucrtd:atox.obj
 0001:0006a830       ?save_state@?$c_string_character_source@_W@__crt_strtox@@QBEPB_WXZ 0046b830 f i libucrtd:atox.obj
 0001:0006a850       ?unget@?$c_string_character_source@D@__crt_strtox@@QAEXD@Z 0046b850 f i libucrtd:atox.obj
 0001:0006a920       ?unget@?$c_string_character_source@_W@__crt_strtox@@QAEX_W@Z 0046b920 f i libucrtd:atox.obj
 0001:0006a9f0       ?validate@?$c_string_character_source@D@__crt_strtox@@QBE_NXZ 0046b9f0 f i libucrtd:atox.obj
 0001:0006aab0       ?validate@?$c_string_character_source@_W@__crt_strtox@@QBE_NXZ 0046bab0 f i libucrtd:atox.obj
 0001:0006ab70       ?wide_character_to_digit@__crt_strtox@@YAH_W@Z 0046bb70 f i libucrtd:atox.obj
 0001:0006af60       __atoi64                   0046bf60 f   libucrtd:atox.obj
 0001:0006af80       __atoi64_l                 0046bf80 f   libucrtd:atox.obj
 0001:0006afb0       __atoi_l                   0046bfb0 f   libucrtd:atox.obj
 0001:0006afe0       __atol_l                   0046bfe0 f   libucrtd:atox.obj
 0001:0006b010       __atoll_l                  0046c010 f   libucrtd:atox.obj
 0001:0006b040       __wtoi                     0046c040 f   libucrtd:atox.obj
 0001:0006b060       __wtoi64                   0046c060 f   libucrtd:atox.obj
 0001:0006b080       __wtoi64_l                 0046c080 f   libucrtd:atox.obj
 0001:0006b0b0       __wtoi_l                   0046c0b0 f   libucrtd:atox.obj
 0001:0006b0e0       __wtol                     0046c0e0 f   libucrtd:atox.obj
 0001:0006b100       __wtol_l                   0046c100 f   libucrtd:atox.obj
 0001:0006b130       __wtoll                    0046c130 f   libucrtd:atox.obj
 0001:0006b150       __wtoll_l                  0046c150 f   libucrtd:atox.obj
 0001:0006b180       _atoi                      0046c180 f   libucrtd:atox.obj
 0001:0006b1a0       _atol                      0046c1a0 f   libucrtd:atox.obj
 0001:0006b1c0       _atoll                     0046c1c0 f   libucrtd:atox.obj
 0001:0006b1e0       ??$__crt_fast_decode_pointer@P6AXPB_W00II@Z@@YAP6AXPB_W00II@ZQ6AX000II@Z@Z 0046c1e0 f i libucrtd:invalid_parameter.obj
 0001:0006b220       ??$__crt_fast_encode_pointer@P6AXPB_W00II@Z@@YAP6AXPB_W00II@ZQ6AX000II@Z@Z 0046c220 f i libucrtd:invalid_parameter.obj
 0001:0006b260       ?initialize@?$dual_state_global@P6AXPB_W00II@Z@__crt_state_management@@QAEXQ6AXPB_W00II@Z@Z 0046c260 f i libucrtd:invalid_parameter.obj
 0001:0006b2b0       ?value@?$dual_state_global@P6AXPB_W00II@Z@__crt_state_management@@QAEAAP6AXPB_W00II@ZXZ 0046c2b0 f i libucrtd:invalid_parameter.obj
 0001:0006b2d0       ___acrt_call_reportfault   0046c2d0 f   libucrtd:invalid_parameter.obj
 0001:0006b480       ___acrt_initialize_invalid_parameter_handler 0046c480 f   libucrtd:invalid_parameter.obj
 0001:0006b4a0       __get_invalid_parameter_handler 0046c4a0 f   libucrtd:invalid_parameter.obj
 0001:0006b4d0       __get_thread_local_invalid_parameter_handler 0046c4d0 f   libucrtd:invalid_parameter.obj
 0001:0006b500       __invalid_parameter        0046c500 f   libucrtd:invalid_parameter.obj
 0001:0006b600       __invalid_parameter_noinfo 0046c600 f   libucrtd:invalid_parameter.obj
 0001:0006b620       __invalid_parameter_noinfo_noreturn 0046c620 f   libucrtd:invalid_parameter.obj
 0001:0006b660       __invoke_watson            0046c660 f   libucrtd:invalid_parameter.obj
 0001:0006b6b0       __set_invalid_parameter_handler 0046c6b0 f   libucrtd:invalid_parameter.obj
 0001:0006b710       __set_thread_local_invalid_parameter_handler 0046c710 f   libucrtd:invalid_parameter.obj
 0001:0006b750       ___acrt_errno_from_os_error 0046c750 f   libucrtd:errno.obj
 0001:0006b7f0       ___acrt_errno_map_os_error 0046c7f0 f   libucrtd:errno.obj
 0001:0006b830       ___doserrno                0046c830 f   libucrtd:errno.obj
 0001:0006b860       __errno                    0046c860 f   libucrtd:errno.obj
 0001:0006b890       __get_doserrno             0046c890 f   libucrtd:errno.obj
 0001:0006b940       __get_errno                0046c940 f   libucrtd:errno.obj
 0001:0006b9f0       __set_doserrno             0046c9f0 f   libucrtd:errno.obj
 0001:0006ba30       __set_errno                0046ca30 f   libucrtd:errno.obj
 0001:0006bad0       ??$?B$$A6GHPA_WKJ@Z@__crt_fast_encoded_nullptr_t@@QBEP6GHPA_WKJ@ZXZ 0046cad0 f i libucrtd:winapi_thunks.obj
 0001:0006baf0       ??$?RV<lambda_9227be29367c048ad7fd93a717dcb1a1>@@AAV<lambda_a463b7b0560cfcaf9b17f27c6ef46564>@@V<lambda_ccea11b5727ccf69be64f5f5d9a08d9f>@@@?$__crt_seh_guarded_call@H@@QAEH$$QAV<lambda_9227be29367c048ad7fd93a717dcb1a1>@@AAV<lambda_a463b7b0560cfcaf9b17f27c6ef46564>@@$$QAV<lambda_ccea11b5727ccf69be64f5f5d9a08d9f>@@@Z 0046caf0 f i libucrtd:winapi_thunks.obj
 0001:0006bba0       ??$__acrt_lock_and_call@V<lambda_a463b7b0560cfcaf9b17f27c6ef46564>@@@@YAHW4__acrt_lock_id@@$$QAV<lambda_a463b7b0560cfcaf9b17f27c6ef46564>@@@Z 0046cba0 f i libucrtd:winapi_thunks.obj
 0001:0006bbf0       ??$__crt_fast_decode_pointer@P6GHPA_WKJ@Z@@YAP6GHPA_WKJ@ZQ6GH0KJ@Z@Z 0046cbf0 f i libucrtd:winapi_thunks.obj
 0001:0006bc30       ??$__crt_fast_encode_pointer@P6GHPA_WKJ@Z@@YAP6GHPA_WKJ@ZQ6GH0KJ@Z@Z 0046cc30 f i libucrtd:winapi_thunks.obj
 0001:0006c800       ___acrt_AreFileApisANSI@0  0046d800 f   libucrtd:winapi_thunks.obj
 0001:0006c860       ___acrt_CompareStringEx@36 0046d860 f   libucrtd:winapi_thunks.obj
 0001:0006c920       ___acrt_EnumSystemLocalesEx@16 0046d920 f   libucrtd:winapi_thunks.obj
 0001:0006c9b0       ___acrt_FlsAlloc@4         0046d9b0 f   libucrtd:winapi_thunks.obj
 0001:0006ca20       ___acrt_FlsFree@4          0046da20 f   libucrtd:winapi_thunks.obj
 0001:0006ca90       ___acrt_FlsGetValue@4      0046da90 f   libucrtd:winapi_thunks.obj
 0001:0006cb00       ___acrt_FlsSetValue@8      0046db00 f   libucrtd:winapi_thunks.obj
 0001:0006cb70       ___acrt_GetDateFormatEx@28 0046db70 f   libucrtd:winapi_thunks.obj
 0001:0006cc20       ___acrt_GetEnabledXStateFeatures@0 0046dc20 f   libucrtd:winapi_thunks.obj
 0001:0006cc80       ___acrt_GetFileInformationByHandleEx@16 0046dc80 f   libucrtd:winapi_thunks.obj
 0001:0006cd00       ___acrt_GetLocaleInfoEx@16 0046dd00 f   libucrtd:winapi_thunks.obj
 0001:0006cd90       ___acrt_GetSystemTimePreciseAsFileTime@4 0046dd90 f   libucrtd:winapi_thunks.obj
 0001:0006ce00       ___acrt_GetTimeFormatEx@24 0046de00 f   libucrtd:winapi_thunks.obj
 0001:0006ceb0       ___acrt_GetUserDefaultLocaleName@8 0046deb0 f   libucrtd:winapi_thunks.obj
 0001:0006cf30       ___acrt_GetXStateFeaturesMask@8 0046df30 f   libucrtd:winapi_thunks.obj
 0001:0006cfa0       ___acrt_InitializeCriticalSectionEx@12 0046dfa0 f   libucrtd:winapi_thunks.obj
 0001:0006d020       ___acrt_IsValidLocaleName@4 0046e020 f   libucrtd:winapi_thunks.obj
 0001:0006d0a0       ___acrt_LCIDToLocaleName@16 0046e0a0 f   libucrtd:winapi_thunks.obj
 0001:0006d130       ___acrt_LCMapStringEx@36   0046e130 f   libucrtd:winapi_thunks.obj
 0001:0006d1f0       ___acrt_LocaleNameToLCID@8 0046e1f0 f   libucrtd:winapi_thunks.obj
 0001:0006d260       ___acrt_LocateXStateFeature@12 0046e260 f   libucrtd:winapi_thunks.obj
 0001:0006d2d0       ___acrt_MessageBoxA@16     0046e2d0 f   libucrtd:winapi_thunks.obj
 0001:0006d340       ___acrt_MessageBoxW@16     0046e340 f   libucrtd:winapi_thunks.obj
 0001:0006d3b0       ___acrt_RoInitialize@4     0046e3b0 f   libucrtd:winapi_thunks.obj
 0001:0006d410       ___acrt_RoUninitialize@0   0046e410 f   libucrtd:winapi_thunks.obj
 0001:0006d460       ___acrt_RtlGenRandom@8     0046e460 f   libucrtd:winapi_thunks.obj
 0001:0006d4d0       ___acrt_SetThreadStackGuarantee@4 0046e4d0 f   libucrtd:winapi_thunks.obj
 0001:0006d530       ___acrt_can_show_message_box 0046e530 f   libucrtd:winapi_thunks.obj
 0001:0006d570       ___acrt_can_use_vista_locale_apis 0046e570 f   libucrtd:winapi_thunks.obj
 0001:0006d5a0       ___acrt_can_use_xstate_apis 0046e5a0 f   libucrtd:winapi_thunks.obj
 0001:0006d5d0       ___acrt_get_parent_window  0046e5d0 f   libucrtd:winapi_thunks.obj
 0001:0006d670       ___acrt_initialize_winapi_thunks 0046e670 f   libucrtd:winapi_thunks.obj
 0001:0006d6f0       ___acrt_is_interactive     0046e6f0 f   libucrtd:winapi_thunks.obj
 0001:0006d7c0       ___acrt_is_packaged_app    0046e7c0 f   libucrtd:winapi_thunks.obj
 0001:0006d920       ___acrt_uninitialize_winapi_thunks 0046e920 f   libucrtd:winapi_thunks.obj
 0001:0006d9b0       __fcloseall                0046e9b0 f   libucrtd:closeall.obj
 0001:0006db30       ___acrt_stdio_free_buffer_nolock 0046eb30 f   libucrtd:_freebuf.obj
 0001:0006df80       ___acrt_initialize_lowio   0046ef80 f   libucrtd:ioinit.obj
 0001:0006e040       ___acrt_uninitialize_lowio 0046f040 f   libucrtd:ioinit.obj
 0001:0006e0b0       ??$?RV<lambda_4d8dda1ac129e11742d77ae5e3bbda74>@@AAV<lambda_a8f98972ebaa5f7148d35bffe53bd70d>@@V<lambda_5193b64c98d743723bd5dcf162a72339>@@@?$__crt_seh_guarded_call@H@@QAEH$$QAV<lambda_4d8dda1ac129e11742d77ae5e3bbda74>@@AAV<lambda_a8f98972ebaa5f7148d35bffe53bd70d>@@$$QAV<lambda_5193b64c98d743723bd5dcf162a72339>@@@Z 0046f0b0 f i libucrtd:close.obj
 0001:0006e160       ??$__acrt_lowio_lock_fh_and_call@V<lambda_a8f98972ebaa5f7148d35bffe53bd70d>@@@@YAHH$$QAV<lambda_a8f98972ebaa5f7148d35bffe53bd70d>@@@Z 0046f160 f i libucrtd:close.obj
 0001:0006e420       __close                    0046f420 f   libucrtd:close.obj
 0001:0006e5f0       __close_nolock             0046f5f0 f   libucrtd:close.obj
 0001:0006e660       __fileno                   0046f660 f   libucrtd:fileno.obj
 0001:0006e730       ??$?RU__crt_stdio_stream_data@@@__crt_internal_free_policy@@QBEXQBU__crt_stdio_stream_data@@@Z 0046f730 f i libucrtd:stream.obj
 0001:0006e760       ??0?$__crt_unique_heap_ptr@U__crt_stdio_stream_data@@U__crt_internal_free_policy@@@@QAE@QAU__crt_stdio_stream_data@@@Z 0046f760 f i libucrtd:stream.obj
 0001:0006e780       ??0__crt_stdio_stream@@QAE@XZ 0046f780 f i libucrtd:stream.obj
 0001:0006e7a0       ??1?$__crt_unique_heap_ptr@U__crt_stdio_stream_data@@U__crt_internal_free_policy@@@@QAE@XZ 0046f7a0 f i libucrtd:stream.obj
 0001:0006e7c0       ?__acrt_stdio_allocate_stream@@YA?AV__crt_stdio_stream@@XZ 0046f7c0 f   libucrtd:stream.obj
 0001:0006e8f0       ?__acrt_stdio_free_stream@@YAXV__crt_stdio_stream@@@Z 0046f8f0 f   libucrtd:stream.obj
 0001:0006e990       ?deallocate@__crt_stdio_stream@@QAEXXZ 0046f990 f i libucrtd:stream.obj
 0001:0006e9b0       ?detach@?$__crt_unique_heap_ptr@U__crt_stdio_stream_data@@U__crt_internal_free_policy@@@@QAEPAU__crt_stdio_stream_data@@XZ 0046f9b0 f i libucrtd:stream.obj
 0001:0006eb70       ?lock@__crt_stdio_stream@@QBEXXZ 0046fb70 f i libucrtd:stream.obj
 0001:0006eba0       ?release@?$__crt_unique_heap_ptr@U__crt_stdio_stream_data@@U__crt_internal_free_policy@@@@QAEXXZ 0046fba0 f i libucrtd:stream.obj
 0001:0006ebe0       ?try_allocate@__crt_stdio_stream@@QAE_NXZ 0046fbe0 f i libucrtd:stream.obj
 0001:0006ec40       ??$__acrt_stdio_parse_mode@D@@YA?AU__acrt_stdio_stream_mode@@QBD@Z 0046fc40 f i libucrtd:openfile.obj
 0001:0006f6c0       ??$__acrt_stdio_parse_mode@_W@@YA?AU__acrt_stdio_stream_mode@@QB_W@Z 004706c0 f i libucrtd:openfile.obj
 0001:00070520       ??$tcsncmp@AAPBDAAY02$$CBDI@?$__crt_char_traits@D@@SAHAAPBDAAY02$$CBD$$QAI@Z 00471520 f i libucrtd:openfile.obj
 0001:00070550       ??$tcsncmp@AAPB_WAAY02$$CB_WI@?$__crt_char_traits@_W@@SAHAAPB_WAAY02$$CB_W$$QAI@Z 00471550 f i libucrtd:openfile.obj
 0001:00070580       ??$tcsnicmp@AAPBDAAY04$$CBDI@?$__crt_char_traits@D@@SAHAAPBDAAY04$$CBD$$QAI@Z 00471580 f i libucrtd:openfile.obj
 0001:000705b0       ??$tcsnicmp@AAPBDAAY06$$CBDI@?$__crt_char_traits@D@@SAHAAPBDAAY06$$CBD$$QAI@Z 004715b0 f i libucrtd:openfile.obj
 0001:000705e0       ??$tcsnicmp@AAPBDAAY07$$CBDI@?$__crt_char_traits@D@@SAHAAPBDAAY07$$CBD$$QAI@Z 004715e0 f i libucrtd:openfile.obj
 0001:00070610       ??$tcsnicmp@AAPB_WAAY04$$CB_WI@?$__crt_char_traits@_W@@SAHAAPB_WAAY04$$CB_W$$QAI@Z 00471610 f i libucrtd:openfile.obj
 0001:00070640       ??$tcsnicmp@AAPB_WAAY06$$CB_WI@?$__crt_char_traits@_W@@SAHAAPB_WAAY06$$CB_W$$QAI@Z 00471640 f i libucrtd:openfile.obj
 0001:00070670       ??$tcsnicmp@AAPB_WAAY07$$CB_WI@?$__crt_char_traits@_W@@SAHAAPB_WAAY07$$CB_W$$QAI@Z 00471670 f i libucrtd:openfile.obj
 0001:000706a0       ??$tsopen_s@PAHABQBDABHABHH@?$__crt_char_traits@D@@SAH$$QAPAHABQBDABH2$$QAH@Z 004716a0 f i libucrtd:openfile.obj
 0001:000706e0       ??$tsopen_s@PAHABQB_WABHABHH@?$__crt_char_traits@_W@@SAH$$QAPAHABQB_WABH2$$QAH@Z 004716e0 f i libucrtd:openfile.obj
 0001:00070720       ?__acrt_stdio_parse_mode_D@@YA_NAAU__acrt_stdio_stream_mode@@@Z 00471720 f i libucrtd:openfile.obj
 0001:00070750       ?__acrt_stdio_parse_mode_N@@YA_NAAU__acrt_stdio_stream_mode@@@Z 00471750 f i libucrtd:openfile.obj
 0001:00070770       ?__acrt_stdio_parse_mode_R@@YA_NAAU__acrt_stdio_stream_mode@@AA_N@Z 00471770 f i libucrtd:openfile.obj
 0001:000707b0       ?__acrt_stdio_parse_mode_S@@YA_NAAU__acrt_stdio_stream_mode@@AA_N@Z 004717b0 f i libucrtd:openfile.obj
 0001:000707f0       ?__acrt_stdio_parse_mode_T@@YA_NAAU__acrt_stdio_stream_mode@@@Z 004717f0 f i libucrtd:openfile.obj
 0001:00070830       ?__acrt_stdio_parse_mode_b@@YA_NAAU__acrt_stdio_stream_mode@@@Z 00471830 f i libucrtd:openfile.obj
 0001:00070870       ?__acrt_stdio_parse_mode_c@@YA_NAAU__acrt_stdio_stream_mode@@AA_N@Z 00471870 f i libucrtd:openfile.obj
 0001:000708b0       ?__acrt_stdio_parse_mode_n@@YA_NAAU__acrt_stdio_stream_mode@@AA_N@Z 004718b0 f i libucrtd:openfile.obj
 0001:000708f0       ?__acrt_stdio_parse_mode_plus@@YA_NAAU__acrt_stdio_stream_mode@@AA_N@Z 004718f0 f i libucrtd:openfile.obj
 0001:00070970       ?__acrt_stdio_parse_mode_t@@YA_NAAU__acrt_stdio_stream_mode@@@Z 00471970 f i libucrtd:openfile.obj
 0001:000709b0       __openfile                 004719b0 f   libucrtd:openfile.obj
 0001:000709f0       __wopenfile                004719f0 f   libucrtd:openfile.obj
 0001:00071340       ___acrt_stdio_flush_and_write_narrow_nolock 00472340 f   libucrtd:_flsbuf.obj
 0001:00071370       ___acrt_stdio_flush_and_write_wide_nolock 00472370 f   libucrtd:_flsbuf.obj
 0001:00072000       __read                     00473000 f   libucrtd:read.obj
 0001:000723a0       __read_nolock              004733a0 f   libucrtd:read.obj
 0001:00073900       ___acrt_stdio_refill_and_read_narrow_nolock 00474900 f   libucrtd:_filbuf.obj
 0001:00073930       ___acrt_stdio_refill_and_read_wide_nolock 00474930 f   libucrtd:_filbuf.obj
 0001:000742a0       __lseek                    004752a0 f   libucrtd:lseek.obj
 0001:000742d0       __lseek_nolock             004752d0 f   libucrtd:lseek.obj
 0001:00074300       __lseeki64                 00475300 f   libucrtd:lseek.obj
 0001:00074330       __lseeki64_nolock          00475330 f   libucrtd:lseek.obj
 0001:00074360       ___acrt_copy_path_to_wide_string 00475360 f   libucrtd:string_utilities.obj
 0001:00074600       ___acrt_copy_to_char       00475600 f   libucrtd:string_utilities.obj
 0001:000748a0       __wremove                  004758a0 f   libucrtd:wunlink.obj
 0001:000748e0       __wunlink                  004758e0 f   libucrtd:wunlink.obj
 0001:00074900       __wrename                  00475900 f   libucrtd:wrename.obj
 0001:00074960       ___isascii                 00475960 f i libucrtd:_ctype.obj
 0001:00074990       ___iscsym                  00475990 f i libucrtd:_ctype.obj
 0001:000749e0       ___iscsymf                 004759e0 f i libucrtd:_ctype.obj
 0001:00074a20       ___toascii                 00475a20 f i libucrtd:_ctype.obj
 0001:00074a30       __isalnum_l                00475a30 f i libucrtd:_ctype.obj
 0001:00074a80       __isalpha_l                00475a80 f i libucrtd:_ctype.obj
 0001:00074ad0       __isblank_l                00475ad0 f i libucrtd:_ctype.obj
 0001:00074b40       __iscntrl_l                00475b40 f i libucrtd:_ctype.obj
 0001:00074b90       __iscsym_l                 00475b90 f i libucrtd:_ctype.obj
 0001:00074be0       __iscsymf_l                00475be0 f i libucrtd:_ctype.obj
 0001:00074c30       __isdigit_l                00475c30 f i libucrtd:_ctype.obj
 0001:00074c80       __isgraph_l                00475c80 f i libucrtd:_ctype.obj
 0001:00074cd0       __islower_l                00475cd0 f i libucrtd:_ctype.obj
 0001:00074d20       __isprint_l                00475d20 f i libucrtd:_ctype.obj
 0001:00074d70       __ispunct_l                00475d70 f i libucrtd:_ctype.obj
 0001:00074dc0       __isspace_l                00475dc0 f i libucrtd:_ctype.obj
 0001:00074e10       __isupper_l                00475e10 f i libucrtd:_ctype.obj
 0001:00074e60       __isxdigit_l               00475e60 f i libucrtd:_ctype.obj
 0001:00074eb0       _isalnum                   00475eb0 f i libucrtd:_ctype.obj
 0001:00074f00       _isalpha                   00475f00 f i libucrtd:_ctype.obj
 0001:00074f50       _isblank                   00475f50 f i libucrtd:_ctype.obj
 0001:00074fc0       _iscntrl                   00475fc0 f i libucrtd:_ctype.obj
 0001:00075010       _isdigit                   00476010 f i libucrtd:_ctype.obj
 0001:00075060       _isgraph                   00476060 f i libucrtd:_ctype.obj
 0001:000750b0       _islower                   004760b0 f i libucrtd:_ctype.obj
 0001:00075100       _isprint                   00476100 f i libucrtd:_ctype.obj
 0001:00075150       _ispunct                   00476150 f i libucrtd:_ctype.obj
 0001:000751a0       _isspace                   004761a0 f i libucrtd:_ctype.obj
 0001:000751f0       _isupper                   004761f0 f i libucrtd:_ctype.obj
 0001:00075240       _isxdigit                  00476240 f i libucrtd:_ctype.obj
 0001:00075290       __CrtGetDebugFillThreshold 00476290 f   libucrtd:debug_fill_threshold.obj
 0001:000752a0       __CrtSetDebugFillThreshold 004762a0 f   libucrtd:debug_fill_threshold.obj
 0001:000752d0       ??$make_c_string_character_source@DPAPAD@__crt_strtox@@YA?AV?$c_string_character_source@D@0@QBDQAPAD@Z 004762d0 f i libucrtd:strtox.obj
 0001:000752f0       ??$make_c_string_character_source@_WPAPA_W@__crt_strtox@@YA?AV?$c_string_character_source@_W@0@QB_WQAPA_W@Z 004762f0 f i libucrtd:strtox.obj
 0001:00075310       ??$parse_integer_from_string@JDPAPAD@__crt_strtox@@YAJQBDQAPADHQAU__crt_locale_pointers@@@Z 00476310 f i libucrtd:strtox.obj
 0001:00075360       ??$parse_integer_from_string@J_WPAPA_W@__crt_strtox@@YAJQB_WQAPA_WHQAU__crt_locale_pointers@@@Z 00476360 f i libucrtd:strtox.obj
 0001:000753b0       ??$parse_integer_from_string@KDPAPAD@__crt_strtox@@YAKQBDQAPADHQAU__crt_locale_pointers@@@Z 004763b0 f i libucrtd:strtox.obj
 0001:00075400       ??$parse_integer_from_string@K_WPAPA_W@__crt_strtox@@YAKQB_WQAPA_WHQAU__crt_locale_pointers@@@Z 00476400 f i libucrtd:strtox.obj
 0001:00075450       ??$parse_integer_from_string@_JDPAPAD@__crt_strtox@@YA_JQBDQAPADHQAU__crt_locale_pointers@@@Z 00476450 f i libucrtd:strtox.obj
 0001:000754a0       ??$parse_integer_from_string@_J_WPAPA_W@__crt_strtox@@YA_JQB_WQAPA_WHQAU__crt_locale_pointers@@@Z 004764a0 f i libucrtd:strtox.obj
 0001:000754f0       ??$parse_integer_from_string@_KDPAPAD@__crt_strtox@@YA_KQBDQAPADHQAU__crt_locale_pointers@@@Z 004764f0 f i libucrtd:strtox.obj
 0001:00075540       ??$parse_integer_from_string@_K_WPAPA_W@__crt_strtox@@YA_KQB_WQAPA_WHQAU__crt_locale_pointers@@@Z 00476540 f i libucrtd:strtox.obj
 0001:00075590       __strtoi64                 00476590 f   libucrtd:strtox.obj
 0001:000755c0       __strtoi64_l               004765c0 f   libucrtd:strtox.obj
 0001:000755f0       __strtoimax_l              004765f0 f   libucrtd:strtox.obj
 0001:00075620       __strtol_l                 00476620 f   libucrtd:strtox.obj
 0001:00075650       __strtoll_l                00476650 f   libucrtd:strtox.obj
 0001:00075680       __strtoui64                00476680 f   libucrtd:strtox.obj
 0001:000756b0       __strtoui64_l              004766b0 f   libucrtd:strtox.obj
 0001:000756e0       __strtoul_l                004766e0 f   libucrtd:strtox.obj
 0001:00075710       __strtoull_l               00476710 f   libucrtd:strtox.obj
 0001:00075740       __strtoumax_l              00476740 f   libucrtd:strtox.obj
 0001:00075770       __wcstoi64                 00476770 f   libucrtd:strtox.obj
 0001:000757a0       __wcstoi64_l               004767a0 f   libucrtd:strtox.obj
 0001:000757d0       __wcstoimax_l              004767d0 f   libucrtd:strtox.obj
 0001:00075800       __wcstol_l                 00476800 f   libucrtd:strtox.obj
 0001:00075830       __wcstoll_l                00476830 f   libucrtd:strtox.obj
 0001:00075860       __wcstoui64                00476860 f   libucrtd:strtox.obj
 0001:00075890       __wcstoui64_l              00476890 f   libucrtd:strtox.obj
 0001:000758c0       __wcstoul_l                004768c0 f   libucrtd:strtox.obj
 0001:000758f0       __wcstoull_l               004768f0 f   libucrtd:strtox.obj
 0001:00075920       __wcstoumax_l              00476920 f   libucrtd:strtox.obj
 0001:00075950       _strtoimax                 00476950 f   libucrtd:strtox.obj
 0001:00075980       _strtol                    00476980 f   libucrtd:strtox.obj
 0001:000759b0       _strtoll                   004769b0 f   libucrtd:strtox.obj
 0001:000759e0       _strtoul                   004769e0 f   libucrtd:strtox.obj
 0001:00075a10       _strtoull                  00476a10 f   libucrtd:strtox.obj
 0001:00075a40       _strtoumax                 00476a40 f   libucrtd:strtox.obj
 0001:00075a70       _wcstoimax                 00476a70 f   libucrtd:strtox.obj
 0001:00075aa0       _wcstol                    00476aa0 f   libucrtd:strtox.obj
 0001:00075ad0       _wcstoll                   00476ad0 f   libucrtd:strtox.obj
 0001:00075b00       _wcstoul                   00476b00 f   libucrtd:strtox.obj
 0001:00075b30       _wcstoull                  00476b30 f   libucrtd:strtox.obj
 0001:00075b60       _wcstoumax                 00476b60 f   libucrtd:strtox.obj
 0001:00075b90       __mbtowc_l                 00476b90 f   libucrtd:mbtowc.obj
 0001:00075e60       _mbtowc                    00476e60 f   libucrtd:mbtowc.obj
 0001:00075e90       __wctomb_l                 00476e90 f   libucrtd:wctomb.obj
 0001:00075f30       __wctomb_s_l               00476f30 f   libucrtd:wctomb.obj
 0001:00076340       _wctomb                    00477340 f   libucrtd:wctomb.obj
 0001:000763a0       _wctomb_s                  004773a0 f   libucrtd:wctomb.obj
 0001:00076da0       ??1?$__crt_simd_cleanup_guard@$00@@QAE@XZ 00477da0 f i libucrtd:strnlen.obj
 0001:00076dc0       ??1?$__crt_simd_cleanup_guard@$0A@@@QAE@XZ 00477dc0 f i libucrtd:strnlen.obj
 0001:00076dd0       ?compare_equals@?$__crt_simd_traits@$00E@@SA?AT__m256i@@T2@0@Z 00477dd0 f i libucrtd:strnlen.obj
 0001:00076e20       ?compare_equals@?$__crt_simd_traits@$00G@@SA?AT__m256i@@T2@0@Z 00477e20 f i libucrtd:strnlen.obj
 0001:00076e70       ?compare_equals@?$__crt_simd_traits@$0A@E@@SA?AT__m128i@@T2@0@Z 00477e70 f i libucrtd:strnlen.obj
 0001:00076ec0       ?compare_equals@?$__crt_simd_traits@$0A@G@@SA?AT__m128i@@T2@0@Z 00477ec0 f i libucrtd:strnlen.obj
 0001:00076f10       ?compute_byte_mask@?$__crt_simd_pack_traits@$00@@SAHT__m256i@@@Z 00477f10 f i libucrtd:strnlen.obj
 0001:00076f50       ?compute_byte_mask@?$__crt_simd_pack_traits@$0A@@@SAHT__m128i@@@Z 00477f50 f i libucrtd:strnlen.obj
 0001:00076f90       ?get_zero_pack@?$__crt_simd_pack_traits@$00@@SA?AT__m256i@@XZ 00477f90 f i libucrtd:strnlen.obj
 0001:00076fd0       ?get_zero_pack@?$__crt_simd_pack_traits@$0A@@@SA?AT__m128i@@XZ 00477fd0 f i libucrtd:strnlen.obj
 0001:00077010       _strnlen                   00478010 f   libucrtd:strnlen.obj
 0001:00077030       _wcsnlen                   00478030 f   libucrtd:strnlen.obj
 0001:00077050       ??$?RU__acrt_ptd@@@__crt_internal_free_policy@@QBEXQBU__acrt_ptd@@@Z 00478050 f i libucrtd:per_thread_data.obj
 0001:00077080       ??$?RV<lambda_3518db117f0e7cdb002338c5d3c47b6c>@@AAV<lambda_b2ea41f6bbb362cd97d94c6828d90b61>@@V<lambda_abdedf541bb04549bc734292b4a045d4>@@@?$__crt_seh_guarded_call@X@@QAEX$$QAV<lambda_3518db117f0e7cdb002338c5d3c47b6c>@@AAV<lambda_b2ea41f6bbb362cd97d94c6828d90b61>@@$$QAV<lambda_abdedf541bb04549bc734292b4a045d4>@@@Z 00478080 f i libucrtd:per_thread_data.obj
 0001:00077120       ??$?RV<lambda_5b71d36f03204c0beab531769a5b5694>@@AAV<lambda_be2b3da3f62db62e9dad5dc70221a656>@@V<lambda_8f9ce462984622f9bf76b59e2aaaf805>@@@?$__crt_seh_guarded_call@X@@QAEX$$QAV<lambda_5b71d36f03204c0beab531769a5b5694>@@AAV<lambda_be2b3da3f62db62e9dad5dc70221a656>@@$$QAV<lambda_8f9ce462984622f9bf76b59e2aaaf805>@@@Z 00478120 f i libucrtd:per_thread_data.obj
 0001:000771c0       ??$?RV<lambda_952b238c83a62ef8e81c72265e1e9aa0>@@AAV<lambda_801f60a70ab65355beb13c41cbe335bb>@@V<lambda_84d84f98815add542a0d6e6ca338feb2>@@@?$__crt_seh_guarded_call@X@@QAEX$$QAV<lambda_952b238c83a62ef8e81c72265e1e9aa0>@@AAV<lambda_801f60a70ab65355beb13c41cbe335bb>@@$$QAV<lambda_84d84f98815add542a0d6e6ca338feb2>@@@Z 004781c0 f i libucrtd:per_thread_data.obj
 0001:00077260       ??$?RV<lambda_9df27f884b057bc3edfc946cb5b7cf47>@@AAV<lambda_e69574bed617af4e071282c136b37893>@@V<lambda_cc0d902bcbbeb830f749456577db4721>@@@?$__crt_seh_guarded_call@X@@QAEX$$QAV<lambda_9df27f884b057bc3edfc946cb5b7cf47>@@AAV<lambda_e69574bed617af4e071282c136b37893>@@$$QAV<lambda_cc0d902bcbbeb830f749456577db4721>@@@Z 00478260 f i libucrtd:per_thread_data.obj
 0001:00077300       ??$__acrt_lock_and_call@V<lambda_801f60a70ab65355beb13c41cbe335bb>@@@@YAXW4__acrt_lock_id@@$$QAV<lambda_801f60a70ab65355beb13c41cbe335bb>@@@Z 00478300 f i libucrtd:per_thread_data.obj
 0001:00077350       ??$__acrt_lock_and_call@V<lambda_b2ea41f6bbb362cd97d94c6828d90b61>@@@@YAXW4__acrt_lock_id@@$$QAV<lambda_b2ea41f6bbb362cd97d94c6828d90b61>@@@Z 00478350 f i libucrtd:per_thread_data.obj
 0001:000773a0       ??$__acrt_lock_and_call@V<lambda_be2b3da3f62db62e9dad5dc70221a656>@@@@YAXW4__acrt_lock_id@@$$QAV<lambda_be2b3da3f62db62e9dad5dc70221a656>@@@Z 004783a0 f i libucrtd:per_thread_data.obj
 0001:000773f0       ??$__acrt_lock_and_call@V<lambda_e69574bed617af4e071282c136b37893>@@@@YAXW4__acrt_lock_id@@$$QAV<lambda_e69574bed617af4e071282c136b37893>@@@Z 004783f0 f i libucrtd:per_thread_data.obj
 0001:00077650       ??0?$__crt_unique_heap_ptr@U__acrt_ptd@@U__crt_internal_free_policy@@@@QAE@QAU__acrt_ptd@@@Z 00478650 f i libucrtd:per_thread_data.obj
 0001:00077670       ??0__crt_scoped_get_last_error_reset@@QAE@XZ 00478670 f i libucrtd:per_thread_data.obj
 0001:000776a0       ??1?$__crt_unique_heap_ptr@U__acrt_ptd@@U__crt_internal_free_policy@@@@QAE@XZ 004786a0 f i libucrtd:per_thread_data.obj
 0001:000776c0       ??1__crt_scoped_get_last_error_reset@@QAE@XZ 004786c0 f i libucrtd:per_thread_data.obj
 0001:000776e0       ??B?$__crt_unique_heap_ptr@U__acrt_ptd@@U__crt_internal_free_policy@@@@QBE_NXZ 004786e0 f i libucrtd:per_thread_data.obj
 0001:00077aa0       ?dangerous_get_state_array@?$dual_state_global@PAU__crt_locale_data@@@__crt_state_management@@QAEPAPAU__crt_locale_data@@XZ 00478aa0 f i libucrtd:per_thread_data.obj
 0001:00077c80       ?detach@?$__crt_unique_heap_ptr@U__acrt_ptd@@U__crt_internal_free_policy@@@@QAEPAU__acrt_ptd@@XZ 00478c80 f i libucrtd:per_thread_data.obj
 0001:00077cb0       ?get@?$__crt_unique_heap_ptr@U__acrt_ptd@@U__crt_internal_free_policy@@@@QBEPAU__acrt_ptd@@XZ 00478cb0 f i libucrtd:per_thread_data.obj
 0001:00077e30       ?is_valid@?$__crt_unique_heap_ptr@U__acrt_ptd@@U__crt_internal_free_policy@@@@QBE_NXZ 00478e30 f i libucrtd:per_thread_data.obj
 0001:00077e70       ?release@?$__crt_unique_heap_ptr@U__acrt_ptd@@U__crt_internal_free_policy@@@@QAEXXZ 00478e70 f i libucrtd:per_thread_data.obj
 0001:00077f90       ___acrt_freeptd            00478f90 f   libucrtd:per_thread_data.obj
 0001:00077fd0       ___acrt_getptd             00478fd0 f   libucrtd:per_thread_data.obj
 0001:00078000       ___acrt_getptd_noexit      00479000 f   libucrtd:per_thread_data.obj
 0001:00078010       ___acrt_initialize_ptd     00479010 f   libucrtd:per_thread_data.obj
 0001:00078060       ___acrt_uninitialize_ptd   00479060 f   libucrtd:per_thread_data.obj
 0001:00078090       ___threadhandle            00479090 f   libucrtd:per_thread_data.obj
 0001:000780a0       ___threadid                004790a0 f   libucrtd:per_thread_data.obj
 0001:000780b0       ___acrt_update_locale_info 004790b0 f   libucrtd:locale_update.obj
 0001:00078100       ___acrt_update_multibyte_info 00479100 f   libucrtd:locale_update.obj
 0001:00078140       ?__acrt_fp_classify@@YA?AW4__acrt_fp_class@@ABN@Z 00479140 f i libucrtd:cvt.obj
 0001:000782a0       ?__acrt_fp_is_negative@@YA_NABN@Z 004792a0 f i libucrtd:cvt.obj
 0001:00079750       ?strrchr@@YAPADQADH@Z      0047a750 f i libucrtd:cvt.obj
 0001:00079770       ___acrt_fp_format          0047a770 f   libucrtd:cvt.obj
 0001:00079d20       __fputwc_nolock            0047ad20 f   libucrtd:fputwc.obj
 0001:00079f80       __fputwchar                0047af80 f   libucrtd:fputwc.obj
 0001:00079fb0       __putwc_nolock             0047afb0 f   libucrtd:fputwc.obj
 0001:00079fd0       _fputwc                    0047afd0 f   libucrtd:fputwc.obj
 0001:0007a120       _putwc                     0047b120 f   libucrtd:fputwc.obj
 0001:0007a140       _putwchar                  0047b140 f   libucrtd:fputwc.obj
 0001:0007a160       __get_printf_count_output  0047b160 f   libucrtd:printf_count_output.obj
 0001:0007a1a0       __set_printf_count_output  0047b1a0 f   libucrtd:printf_count_output.obj
 0001:0007a210       ?has_temporary_buffer@__crt_stdio_stream@@QBE_NXZ 0047b210 f i libucrtd:_sftbuf.obj
 0001:0007a230       ___acrt_stdio_begin_temporary_buffering_nolock 0047b230 f   libucrtd:_sftbuf.obj
 0001:0007a460       ___acrt_stdio_end_temporary_buffering_nolock 0047b460 f   libucrtd:_sftbuf.obj
 0001:0007a500       ___p___mb_cur_max          0047b500 f   libucrtd:nlsdata.obj
 0001:0007a540       ___acrt_initialize_locks   0047b540 f   libucrtd:locks.obj
 0001:0007a5c0       ___acrt_lock               0047b5c0 f   libucrtd:locks.obj
 0001:0007a5e0       ___acrt_uninitialize_locks 0047b5e0 f   libucrtd:locks.obj
 0001:0007a640       ___acrt_unlock             0047b640 f   libucrtd:locks.obj
 0001:0007a660       __lock_locales             0047b660 f   libucrtd:locks.obj
 0001:0007a680       __unlock_locales           0047b680 f   libucrtd:locks.obj
 0001:0007a6a0       ??$?RV<lambda_a7d5e04a8e766f2a135287cf7b01dfe7>@@AAV<lambda_e9ab68cc08dfd839979545c079379e6e>@@V<lambda_14e08a59e78d15c51edeee53d25fb3be>@@@?$__crt_seh_guarded_call@H@@QAEH$$QAV<lambda_a7d5e04a8e766f2a135287cf7b01dfe7>@@AAV<lambda_e9ab68cc08dfd839979545c079379e6e>@@$$QAV<lambda_14e08a59e78d15c51edeee53d25fb3be>@@@Z 0047b6a0 f i libucrtd:commit.obj
 0001:0007a750       ??$__acrt_lowio_lock_fh_and_call@V<lambda_e9ab68cc08dfd839979545c079379e6e>@@@@YAHH$$QAV<lambda_e9ab68cc08dfd839979545c079379e6e>@@@Z 0047b750 f i libucrtd:commit.obj
 0001:0007a940       __commit                   0047b940 f   libucrtd:commit.obj
 0001:0007bb60       __write                    0047cb60 f   libucrtd:write.obj
 0001:0007be40       __write_nolock             0047ce40 f   libucrtd:write.obj
 0001:0007c3a0       ??$__crt_time_is_leap_year@H@@YA_NH@Z 0047d3a0 f i libucrtd:asctime.obj
 0001:0007d920       ?__crt_get_2digit_year@@YAHH@Z 0047e920 f i libucrtd:asctime.obj
 0001:0007d940       ?__crt_get_century@@YAHH@Z 0047e940 f i libucrtd:asctime.obj
 0001:0007d960       ?__crt_time_is_day_valid@@YA_NHHH@Z 0047e960 f i libucrtd:asctime.obj
 0001:0007da40       __wasctime                 0047ea40 f   libucrtd:asctime.obj
 0001:0007da60       __wasctime_s               0047ea60 f   libucrtd:asctime.obj
 0001:0007da90       _asctime                   0047ea90 f   libucrtd:asctime.obj
 0001:0007dab0       _asctime_s                 0047eab0 f   libucrtd:asctime.obj
 0001:0007e800       ??$gmtime_s@ABQAUtm@@ABQBJ@?$__crt_integer_traits@J@@SAHABQAUtm@@ABQBJ@Z 0047f800 f i libucrtd:localtime.obj
 0001:0007e830       ??$gmtime_s@ABQAUtm@@ABQB_J@?$__crt_integer_traits@_J@@SAHABQAUtm@@ABQB_J@Z 0047f830 f i libucrtd:localtime.obj
 0001:0007e860       ??$gmtime_s@ABQAUtm@@PAJ@?$__crt_integer_traits@J@@SAHABQAUtm@@$$QAPAJ@Z 0047f860 f i libucrtd:localtime.obj
 0001:0007e890       ??$gmtime_s@ABQAUtm@@PA_J@?$__crt_integer_traits@_J@@SAHABQAUtm@@$$QAPA_J@Z 0047f890 f i libucrtd:localtime.obj
 0001:0007e8c0       ??$localtime_s@ABQAUtm@@ABQBJ@?$__crt_integer_traits@J@@SAHABQAUtm@@ABQBJ@Z 0047f8c0 f i libucrtd:localtime.obj
 0001:0007e8f0       ??$localtime_s@ABQAUtm@@ABQB_J@?$__crt_integer_traits@_J@@SAHABQAUtm@@ABQB_J@Z 0047f8f0 f i libucrtd:localtime.obj
 0001:0007e920       __localtime32              0047f920 f   libucrtd:localtime.obj
 0001:0007e940       __localtime32_s            0047f940 f   libucrtd:localtime.obj
 0001:0007e960       __localtime64              0047f960 f   libucrtd:localtime.obj
 0001:0007e980       __localtime64_s            0047f980 f   libucrtd:localtime.obj
 0001:0007e9a0       __add_exp                  0047f9a0 f   libucrtd:util.obj
 0001:0007e9e0       __decomp                   0047f9e0 f   libucrtd:util.obj
 0001:0007eb50       __get_exp                  0047fb50 f   libucrtd:util.obj
 0001:0007eb90       __set_bexp                 0047fb90 f   libucrtd:util.obj
 0001:0007ebd0       __set_exp                  0047fbd0 f   libucrtd:util.obj
 0001:0007ec20       __sptype                   0047fc20 f   libucrtd:util.obj
 0001:0007ecc0       ___clrfp_sse2              0047fcc0 f   libucrtd:fpctrl.obj
 0001:0007ed10       ___ctrlfp_sse2             0047fd10 f   libucrtd:fpctrl.obj
 0001:0007ed80       ___fclrf_sse2              0047fd80 f   libucrtd:fpctrl.obj
 0001:0007edb0       ___get_fpsr_sse2           0047fdb0 f   libucrtd:fpctrl.obj
 0001:0007ede0       ___set_fpsr_sse2           0047fde0 f   libucrtd:fpctrl.obj
 0001:0007eef0       ___set_statfp_sse2         0047fef0 f   libucrtd:fpctrl.obj
 0001:0007ef30       ___statfp_sse2             0047ff30 f   libucrtd:fpctrl.obj
 0001:0007ef70       __clrfp                    0047ff70 f   libucrtd:fpctrl.obj
 0001:0007ef90       __ctrlfp                   0047ff90 f   libucrtd:fpctrl.obj
 0001:0007efd0       __set_statfp               0047ffd0 f   libucrtd:fpctrl.obj
 0001:0007f050       __statfp                   00480050 f   libucrtd:fpctrl.obj
 0001:0007f070       ___iswcsym                 00480070 f i libucrtd:_wctype.obj
 0001:0007f0c0       ___iswcsymf                004800c0 f i libucrtd:_wctype.obj
 0001:0007f110       __isleadbyte_l             00480110 f i libucrtd:_wctype.obj
 0001:0007f160       __iswalnum_l               00480160 f i libucrtd:_wctype.obj
 0001:0007f180       __iswalpha_l               00480180 f i libucrtd:_wctype.obj
 0001:0007f1a0       __iswblank_l               004801a0 f i libucrtd:_wctype.obj
 0001:0007f1e0       __iswcntrl_l               004801e0 f i libucrtd:_wctype.obj
 0001:0007f200       __iswcsym_l                00480200 f i libucrtd:_wctype.obj
 0001:0007f250       __iswcsymf_l               00480250 f i libucrtd:_wctype.obj
 0001:0007f2a0       __iswdigit_l               004802a0 f i libucrtd:_wctype.obj
 0001:0007f2c0       __iswgraph_l               004802c0 f i libucrtd:_wctype.obj
 0001:0007f2e0       __iswlower_l               004802e0 f i libucrtd:_wctype.obj
 0001:0007f300       __iswprint_l               00480300 f i libucrtd:_wctype.obj
 0001:0007f320       __iswpunct_l               00480320 f i libucrtd:_wctype.obj
 0001:0007f340       __iswspace_l               00480340 f i libucrtd:_wctype.obj
 0001:0007f360       __iswupper_l               00480360 f i libucrtd:_wctype.obj
 0001:0007f380       __iswxdigit_l              00480380 f i libucrtd:_wctype.obj
 0001:0007f3a0       _isleadbyte                004803a0 f i libucrtd:_wctype.obj
 0001:0007f3c0       _iswalnum                  004803c0 f i libucrtd:_wctype.obj
 0001:0007f3e0       _iswalpha                  004803e0 f i libucrtd:_wctype.obj
 0001:0007f400       _iswascii                  00480400 f i libucrtd:_wctype.obj
 0001:0007f440       _iswblank                  00480440 f i libucrtd:_wctype.obj
 0001:0007f480       _iswcntrl                  00480480 f i libucrtd:_wctype.obj
 0001:0007f4a0       _iswdigit                  004804a0 f i libucrtd:_wctype.obj
 0001:0007f4c0       _iswgraph                  004804c0 f i libucrtd:_wctype.obj
 0001:0007f4e0       _iswlower                  004804e0 f i libucrtd:_wctype.obj
 0001:0007f500       _iswprint                  00480500 f i libucrtd:_wctype.obj
 0001:0007f520       _iswpunct                  00480520 f i libucrtd:_wctype.obj
 0001:0007f540       _iswspace                  00480540 f i libucrtd:_wctype.obj
 0001:0007f560       _iswupper                  00480560 f i libucrtd:_wctype.obj
 0001:0007f580       _iswxdigit                 00480580 f i libucrtd:_wctype.obj
 0001:0007f5a0       __chvalidator              004805a0 f   libucrtd:isctype.obj
 0001:0007f600       __chvalidator_l            00480600 f   libucrtd:isctype.obj
 0001:0007f6c0       __isctype                  004806c0 f   libucrtd:isctype.obj
 0001:0007f710       __isctype_l                00480710 f   libucrtd:isctype.obj
 0001:0007f8f0       ??0?$__crt_scoped_stack_ptr@_W@@QAE@U?$__crt_scoped_stack_ptr_tag@_W@@@Z 004808f0 f i libucrtd:lcmapstringa.obj
 0001:0007f910       ??0?$__crt_scoped_stack_ptr_tag@_W@@QAE@QA_W@Z 00480910 f i libucrtd:lcmapstringa.obj
 0001:0007f930       ??1?$__crt_scoped_stack_ptr@_W@@QAE@XZ 00480930 f i libucrtd:lcmapstringa.obj
 0001:0007f960       ??B?$__crt_scoped_stack_ptr@_W@@QBE_NXZ 00480960 f i libucrtd:lcmapstringa.obj
 0001:0007fe50       ?get@?$__crt_scoped_stack_ptr@_W@@QBEPA_WXZ 00480e50 f i libucrtd:lcmapstringa.obj
 0001:0007fe70       __MallocaComputeSize       00480e70 f i libucrtd:lcmapstringa.obj
 0001:0007feb0       __MarkAllocaS              00480eb0 f i libucrtd:lcmapstringa.obj
 0001:0007fee0       ___acrt_LCMapStringA       00480ee0 f   libucrtd:lcmapstringa.obj
 0001:0007ff50       __freea_crt                00480f50 f i libucrtd:lcmapstringa.obj
 0001:0007ffe0       __set_error_mode           00480fe0 f   libucrtd:set_error_mode.obj
 0001:00080600       _wcscat_s                  00481600 f   libucrtd:wcscat_s.obj
 0001:00080a10       _wcscpy_s                  00481a10 f   libucrtd:wcscpy_s.obj
 0001:00080f70       _wcsncpy_s                 00481f70 f   libucrtd:wcsncpy_s.obj
 0001:00080fa0       _wcslen                    00481fa0 f   libucrtd:wcslen.obj
 0001:00081390       ??$message_box@$$TAAPBDAAPBDAAI@?$__crt_char_traits@D@@SAH$$QA$$TAAPBD1AAI@Z 00482390 f i libucrtd:crtmbox.obj
 0001:000813c0       ??$message_box@$$TAAPB_WAAPB_WAAI@?$__crt_char_traits@_W@@SAH$$QA$$TAAPB_W1AAI@Z 004823c0 f i libucrtd:crtmbox.obj
 0001:000813f0       ??$message_box@$$TABQBDABQBDK@?$__crt_char_traits@D@@SAH$$QA$$TABQBD1$$QAK@Z 004823f0 f i libucrtd:crtmbox.obj
 0001:00081420       ??$message_box@$$TABQB_WABQB_WK@?$__crt_char_traits@_W@@SAH$$QA$$TABQB_W1$$QAK@Z 00482420 f i libucrtd:crtmbox.obj
 0001:00081450       ??$message_box@PAUHWND__@@ABQBDABQBDABI@?$__crt_char_traits@D@@SAH$$QAPAUHWND__@@ABQBD1ABI@Z 00482450 f i libucrtd:crtmbox.obj
 0001:00081480       ??$message_box@PAUHWND__@@ABQB_WABQB_WABI@?$__crt_char_traits@_W@@SAH$$QAPAUHWND__@@ABQB_W1ABI@Z 00482480 f i libucrtd:crtmbox.obj
 0001:00081570       ??$output_debug_string@ABQBD@?$__crt_char_traits@D@@SAXABQBD@Z 00482570 f i libucrtd:crtmbox.obj
 0001:00081590       ??$output_debug_string@ABQB_W@?$__crt_char_traits@_W@@SAXABQB_W@Z 00482590 f i libucrtd:crtmbox.obj
 0001:000815b0       ??0?$__crt_unique_handle_t@U__crt_handle_traits@@@@QAE@QAX@Z 004825b0 f i libucrtd:crtmbox.obj
 0001:000815d0       ??1?$__crt_unique_handle_t@U__crt_handle_traits@@@@QAE@XZ 004825d0 f i libucrtd:crtmbox.obj
 0001:000815f0       ??B?$__crt_unique_handle_t@U__crt_handle_traits@@@@QBE_NXZ 004825f0 f i libucrtd:crtmbox.obj
 0001:00081610       ?close@?$__crt_unique_handle_t@U__crt_handle_traits@@@@QAEXXZ 00482610 f i libucrtd:crtmbox.obj
 0001:00081650       ?close@__crt_handle_traits@@SA_NPAX@Z 00482650 f i libucrtd:crtmbox.obj
 0001:00081690       ?get@?$__crt_unique_handle_t@U__crt_handle_traits@@@@QBEPAXXZ 00482690 f i libucrtd:crtmbox.obj
 0001:000816b0       ?get_invalid_value@__crt_handle_traits@@SAPAXXZ 004826b0 f i libucrtd:crtmbox.obj
 0001:000816c0       ?is_valid@?$__crt_unique_handle_t@U__crt_handle_traits@@@@QBE_NXZ 004826c0 f i libucrtd:crtmbox.obj
 0001:00081700       ___acrt_show_narrow_message_box 00482700 f   libucrtd:crtmbox.obj
 0001:00081730       ___acrt_show_wide_message_box 00482730 f   libucrtd:crtmbox.obj
 0001:00082a40       ??$find_first_file_ex@ABQADW4_FINDEX_INFO_LEVELS@@PAU_WIN32_FIND_DATAA@@W4_FINDEX_SEARCH_OPS@@$$TH@?$__crt_char_traits@D@@SAPAXABQAD$$QAW4_FINDEX_INFO_LEVELS@@$$QAPAU_WIN32_FIND_DATAA@@$$QAW4_FINDEX_SEARCH_OPS@@$$QA$$T$$QAH@Z 00483a40 f i libucrtd:argv_wildcards.obj
 0001:00082a80       ??$find_first_file_ex@ABQA_WW4_FINDEX_INFO_LEVELS@@PAU_WIN32_FIND_DATAW@@W4_FINDEX_SEARCH_OPS@@$$TH@?$__crt_char_traits@_W@@SAPAXABQA_W$$QAW4_FINDEX_INFO_LEVELS@@$$QAPAU_WIN32_FIND_DATAW@@$$QAW4_FINDEX_SEARCH_OPS@@$$QA$$T$$QAH@Z 00483a80 f i libucrtd:argv_wildcards.obj
 0001:00082ac0       ??$find_next_file@PAXPAU_WIN32_FIND_DATAA@@@?$__crt_char_traits@D@@SAH$$QAPAX$$QAPAU_WIN32_FIND_DATAA@@@Z 00483ac0 f i libucrtd:argv_wildcards.obj
 0001:00082ae0       ??$find_next_file@PAXPAU_WIN32_FIND_DATAW@@@?$__crt_char_traits@_W@@SAH$$QAPAX$$QAPAU_WIN32_FIND_DATAW@@@Z 00483ae0 f i libucrtd:argv_wildcards.obj
 0001:00082b00       ??$tcsncpy_s@AAPADIAAPADABI@?$__crt_char_traits@D@@SAHAAPAD$$QAI0ABI@Z 00483b00 f i libucrtd:argv_wildcards.obj
 0001:00082b30       ??$tcsncpy_s@AAPA_WIAAPA_WABI@?$__crt_char_traits@_W@@SAHAAPA_W$$QAI0ABI@Z 00483b30 f i libucrtd:argv_wildcards.obj
 0001:00082b60       ??$tcsncpy_s@PAD$$CBIABQBDABI@?$__crt_char_traits@D@@SAH$$QAPAD$$QBIABQBDABI@Z 00483b60 f i libucrtd:argv_wildcards.obj
 0001:00082b90       ??$tcsncpy_s@PADABIABQBDABI@?$__crt_char_traits@D@@SAH$$QAPADABIABQBD1@Z 00483b90 f i libucrtd:argv_wildcards.obj
 0001:00082bc0       ??$tcsncpy_s@PA_W$$CBIABQB_WABI@?$__crt_char_traits@_W@@SAH$$QAPA_W$$QBIABQB_WABI@Z 00483bc0 f i libucrtd:argv_wildcards.obj
 0001:00082bf0       ??$tcsncpy_s@PA_WABIABQB_WABI@?$__crt_char_traits@_W@@SAH$$QAPA_WABIABQB_W1@Z 00483bf0 f i libucrtd:argv_wildcards.obj
 0001:00082c20       ??$tcspbrk@AAPADAAY02$$CBD@?$__crt_char_traits@D@@SAPADAAPADAAY02$$CBD@Z 00483c20 f i libucrtd:argv_wildcards.obj
 0001:00082c40       ??$tcspbrk@AAPA_WAAY02$$CB_W@?$__crt_char_traits@_W@@SAPA_WAAPA_WAAY02$$CB_W@Z 00483c40 f i libucrtd:argv_wildcards.obj
 0001:00082c60       ??0?$__crt_unique_handle_t@U__crt_findfile_traits@@@@QAE@QAX@Z 00483c60 f i libucrtd:argv_wildcards.obj
 0001:00082c80       ??0?$argument_list@D@?A0x536e2c96@@QAE@XZ 00483c80 f i libucrtd:argv_wildcards.obj
 0001:00082cc0       ??0?$argument_list@_W@?A0x536e2c96@@QAE@XZ 00483cc0 f i libucrtd:argv_wildcards.obj
 0001:00082d00       ??1?$__crt_unique_handle_t@U__crt_findfile_traits@@@@QAE@XZ 00483d00 f i libucrtd:argv_wildcards.obj
 0001:00082d20       ??1?$argument_list@D@?A0x536e2c96@@QAE@XZ 00483d20 f i libucrtd:argv_wildcards.obj
 0001:00082d90       ??1?$argument_list@_W@?A0x536e2c96@@QAE@XZ 00483d90 f i libucrtd:argv_wildcards.obj
 0001:00082ee0       ?append@?$argument_list@D@?A0x536e2c96@@QAEHQAD@Z 00483ee0 f i libucrtd:argv_wildcards.obj
 0001:00082f50       ?append@?$argument_list@_W@?A0x536e2c96@@QAEHQA_W@Z 00483f50 f i libucrtd:argv_wildcards.obj
 0001:00082fc0       ?begin@?$argument_list@D@?A0x536e2c96@@QBEPAPADXZ 00483fc0 f i libucrtd:argv_wildcards.obj
 0001:00082fe0       ?begin@?$argument_list@_W@?A0x536e2c96@@QBEPAPA_WXZ 00483fe0 f i libucrtd:argv_wildcards.obj
 0001:00083000       ?close@?$__crt_unique_handle_t@U__crt_findfile_traits@@@@QAEXXZ 00484000 f i libucrtd:argv_wildcards.obj
 0001:00083040       ?close@__crt_findfile_traits@@SA_NPAX@Z 00484040 f i libucrtd:argv_wildcards.obj
 0001:00083080       ?end@?$argument_list@D@?A0x536e2c96@@QBEPAPADXZ 00484080 f i libucrtd:argv_wildcards.obj
 0001:000830a0       ?end@?$argument_list@_W@?A0x536e2c96@@QBEPAPA_WXZ 004840a0 f i libucrtd:argv_wildcards.obj
 0001:000830c0       ?expand_if_necessary@?$argument_list@D@?A0x536e2c96@@AAEHXZ 004840c0 f i libucrtd:argv_wildcards.obj
 0001:00083270       ?expand_if_necessary@?$argument_list@_W@?A0x536e2c96@@AAEHXZ 00484270 f i libucrtd:argv_wildcards.obj
 0001:00083420       ?get@?$__crt_unique_handle_t@U__crt_findfile_traits@@@@QBEPAXXZ 00484420 f i libucrtd:argv_wildcards.obj
 0001:00083440       ?get_invalid_value@__crt_findfile_traits@@SAPAXXZ 00484440 f i libucrtd:argv_wildcards.obj
 0001:00083480       ?size@?$argument_list@D@?A0x536e2c96@@QBEIXZ 00484480 f i libucrtd:argv_wildcards.obj
 0001:000834b0       ?size@?$argument_list@_W@?A0x536e2c96@@QBEIXZ 004844b0 f i libucrtd:argv_wildcards.obj
 0001:000834e0       ?strpbrk@@YAPADQADQBD@Z    004844e0 f i libucrtd:argv_wildcards.obj
 0001:00083500       ?wcspbrk@@YAPA_WPA_WPB_W@Z 00484500 f i libucrtd:argv_wildcards.obj
 0001:00083520       ___acrt_expand_narrow_argv_wildcards 00484520 f   libucrtd:argv_wildcards.obj
 0001:00083540       ___acrt_expand_wide_argv_wildcards 00484540 f   libucrtd:argv_wildcards.obj
 0001:00083560       ??$?RV<lambda_694f386f8d9a4d7d5afe1ac229f209db>@@AAV<lambda_2f900415df1f7f624cdaaefe86d0b1c0>@@V<lambda_17c2d007e408fdf31ce10a4c853c6ffa>@@@?$__crt_seh_guarded_call@X@@QAEX$$QAV<lambda_694f386f8d9a4d7d5afe1ac229f209db>@@AAV<lambda_2f900415df1f7f624cdaaefe86d0b1c0>@@$$QAV<lambda_17c2d007e408fdf31ce10a4c853c6ffa>@@@Z 00484560 f i libucrtd:mbctype.obj
 0001:00083600       ??$__acrt_lock_and_call@V<lambda_2f900415df1f7f624cdaaefe86d0b1c0>@@@@YAXW4__acrt_lock_id@@$$QAV<lambda_2f900415df1f7f624cdaaefe86d0b1c0>@@@Z 00484600 f i libucrtd:mbctype.obj
 0001:00084190       ___acrt_initialize_multibyte 00485190 f   libucrtd:mbctype.obj
 0001:000841c0       ___acrt_update_thread_multibyte_data 004851c0 f   libucrtd:mbctype.obj
 0001:00084310       ___p__mbcasemap            00485310 f   libucrtd:mbctype.obj
 0001:00084330       ___p__mbctype              00485330 f   libucrtd:mbctype.obj
 0001:00084350       __getmbcp                  00485350 f   libucrtd:mbctype.obj
 0001:000843e0       __setmbcp                  004853e0 f   libucrtd:mbctype.obj
 0001:00084400       __setmbcp_nolock           00485400 f   libucrtd:mbctype.obj
 0001:00084a1b       __ismbbalnum               00485a1b f   libucrtd:ismbbyte.obj
 0001:00084a3c       __ismbbalnum_l             00485a3c f   libucrtd:ismbbyte.obj
 0001:00084a5f       __ismbbalpha               00485a5f f   libucrtd:ismbbyte.obj
 0001:00084a80       __ismbbalpha_l             00485a80 f   libucrtd:ismbbyte.obj
 0001:00084aa3       __ismbbblank               00485aa3 f   libucrtd:ismbbyte.obj
 0001:00084ace       __ismbbblank_l             00485ace f   libucrtd:ismbbyte.obj
 0001:00084afb       __ismbbgraph               00485afb f   libucrtd:ismbbyte.obj
 0001:00084b1c       __ismbbgraph_l             00485b1c f   libucrtd:ismbbyte.obj
 0001:00084b3f       __ismbbkalnum              00485b3f f   libucrtd:ismbbyte.obj
 0001:00084b5d       __ismbbkalnum_l            00485b5d f   libucrtd:ismbbyte.obj
 0001:00084b7c       __ismbbkana                00485b7c f   libucrtd:ismbbyte.obj
 0001:00084b93       __ismbbkana_l              00485b93 f   libucrtd:ismbbyte.obj
 0001:00084bf8       __ismbbkprint              00485bf8 f   libucrtd:ismbbyte.obj
 0001:00084c16       __ismbbkprint_l            00485c16 f   libucrtd:ismbbyte.obj
 0001:00084c35       __ismbbkpunct              00485c35 f   libucrtd:ismbbyte.obj
 0001:00084c53       __ismbbkpunct_l            00485c53 f   libucrtd:ismbbyte.obj
 0001:00084c72       __ismbblead                00485c72 f   libucrtd:ismbbyte.obj
 0001:00084c90       __ismbblead_l              00485c90 f   libucrtd:ismbbyte.obj
 0001:00084caf       __ismbbprint               00485caf f   libucrtd:ismbbyte.obj
 0001:00084cd0       __ismbbprint_l             00485cd0 f   libucrtd:ismbbyte.obj
 0001:00084cf3       __ismbbpunct               00485cf3 f   libucrtd:ismbbyte.obj
 0001:00084d11       __ismbbpunct_l             00485d11 f   libucrtd:ismbbyte.obj
 0001:00084d30       __ismbbtrail               00485d30 f   libucrtd:ismbbyte.obj
 0001:00084d4e       __ismbbtrail_l             00485d4e f   libucrtd:ismbbyte.obj
 0001:00084d6d       ??0?$__crt_unique_handle_t@Uenvironment_strings_traits@?A0xda6148bb@@@@QAE@QA_W@Z 00485d6d f i libucrtd:get_environment_from_os.obj
 0001:00084d81       ??1?$__crt_unique_handle_t@Uenvironment_strings_traits@?A0xda6148bb@@@@QAE@XZ 00485d81 f i libucrtd:get_environment_from_os.obj
 0001:00084d9d       ??B?$__crt_unique_handle_t@Uenvironment_strings_traits@?A0xda6148bb@@@@QBE_NXZ 00485d9d f i libucrtd:get_environment_from_os.obj
 0001:00084da7       ?close@?$__crt_unique_handle_t@Uenvironment_strings_traits@?A0xda6148bb@@@@QAEXXZ 00485da7 f i libucrtd:get_environment_from_os.obj
 0001:00084dc3       ?close@environment_strings_traits@?A0xda6148bb@@SA_NPA_W@Z 00485dc3 f i libucrtd:get_environment_from_os.obj
 0001:00084e1d       ?get@?$__crt_unique_handle_t@Uenvironment_strings_traits@?A0xda6148bb@@@@QBEPA_WXZ 00485e1d f i libucrtd:get_environment_from_os.obj
 0001:00084e20       ?get_invalid_value@environment_strings_traits@?A0xda6148bb@@SAPA_WXZ 00485e20 f i libucrtd:get_environment_from_os.obj
 0001:00084e23       ?is_valid@?$__crt_unique_handle_t@Uenvironment_strings_traits@?A0xda6148bb@@@@QBE_NXZ 00485e23 f i libucrtd:get_environment_from_os.obj
 0001:00084e2d       ___dcrt_get_narrow_environment_from_os 00485e2d f   libucrtd:get_environment_from_os.obj
 0001:00084ee2       ___dcrt_get_wide_environment_from_os 00485ee2 f   libucrtd:get_environment_from_os.obj
 0001:00085a82       ??$get_or_create_environment_nolock@$$$V@?$__crt_char_traits@D@@SAPAPADXZ 00486a82 f i libucrtd:setenv.obj
 0001:00085a87       ??$get_or_create_environment_nolock@$$$V@?$__crt_char_traits@_W@@SAPAPA_WXZ 00486a87 f i libucrtd:setenv.obj
 0001:00085a8c       ??$set_environment_variable@ABQADQAD@?$__crt_char_traits@D@@SAHABQAD$$QBQAD@Z 00486a8c f i libucrtd:setenv.obj
 0001:00085aa8       ??$set_environment_variable@ABQA_WQA_W@?$__crt_char_traits@_W@@SAHABQA_W$$QBQA_W@Z 00486aa8 f i libucrtd:setenv.obj
 0001:00085ac4       ??$tcschr@ABQADD@?$__crt_char_traits@D@@SAPADABQAD$$QAD@Z 00486ac4 f i libucrtd:setenv.obj
 0001:00085ae4       ??$tcschr@ABQA_WD@?$__crt_char_traits@_W@@SAPA_WABQA_W$$QAD@Z 00486ae4 f i libucrtd:setenv.obj
 0001:00085b09       ??$tcscpy_s@AAPADABIAAPAD@?$__crt_char_traits@D@@SAHAAPADABI0@Z 00486b09 f i libucrtd:setenv.obj
 0001:00085b2e       ??$tcscpy_s@AAPA_WABIAAPA_W@?$__crt_char_traits@_W@@SAHAAPA_WABI0@Z 00486b2e f i libucrtd:setenv.obj
 0001:00085b53       ??$tcscpy_s@ABQADABIABQAD@?$__crt_char_traits@D@@SAHABQADABI0@Z 00486b53 f i libucrtd:setenv.obj
 0001:00085b78       ??$tcscpy_s@ABQA_WABIABQA_W@?$__crt_char_traits@_W@@SAHABQA_WABI0@Z 00486b78 f i libucrtd:setenv.obj
 0001:00085b9d       ??$tcslen@ABQAD@?$__crt_char_traits@D@@SAIABQAD@Z 00486b9d f i libucrtd:setenv.obj
 0001:00085bbb       ??$tcslen@ABQA_W@?$__crt_char_traits@_W@@SAIABQA_W@Z 00486bbb f i libucrtd:setenv.obj
 0001:00085be0       ??$tcsnicoll@ABQBDAAPADABI@?$__crt_char_traits@D@@SAHABQBDAAPADABI@Z 00486be0 f i libucrtd:setenv.obj
 0001:00085c05       ??$tcsnicoll@ABQB_WAAPA_WABI@?$__crt_char_traits@_W@@SAHABQB_WAAPA_WABI@Z 00486c05 f i libucrtd:setenv.obj
 0001:00085c2a       ??$tcsnlen@QADH@?$__crt_char_traits@D@@SAI$$QBQAD$$QAH@Z 00486c2a f i libucrtd:setenv.obj
 0001:00085c48       ??$tcsnlen@QA_WH@?$__crt_char_traits@_W@@SAI$$QBQA_W$$QAH@Z 00486c48 f i libucrtd:setenv.obj
 0001:00085c8a       ?strchr@@YAPADQADH@Z       00486c8a f i libucrtd:setenv.obj
 0001:00085c97       ?wcschr@@YAPA_WPA_W_W@Z    00486c97 f i libucrtd:setenv.obj
 0001:00085ca4       ___dcrt_set_variable_in_narrow_environment_nolock 00486ca4 f   libucrtd:setenv.obj
 0001:00085cb1       ___dcrt_set_variable_in_wide_environment_nolock 00486cb1 f   libucrtd:setenv.obj
 0001:00085cc0       ??$?RU__crt_lowio_handle_data@@@__crt_internal_free_policy@@QBEXQBU__crt_lowio_handle_data@@@Z 00486cc0 f i libucrtd:osfinfo.obj
 0001:00085cf0       ??0?$__crt_unique_heap_ptr@U__crt_lowio_handle_data@@U__crt_internal_free_policy@@@@QAE@QAU__crt_lowio_handle_data@@@Z 00486cf0 f i libucrtd:osfinfo.obj
 0001:00085d10       ??1?$__crt_unique_heap_ptr@U__crt_lowio_handle_data@@U__crt_internal_free_policy@@@@QAE@XZ 00486d10 f i libucrtd:osfinfo.obj
 0001:00085d30       ??B?$__crt_unique_heap_ptr@U__crt_lowio_handle_data@@U__crt_internal_free_policy@@@@QBE_NXZ 00486d30 f i libucrtd:osfinfo.obj
 0001:00085d50       ?detach@?$__crt_unique_heap_ptr@U__crt_lowio_handle_data@@U__crt_internal_free_policy@@@@QAEPAU__crt_lowio_handle_data@@XZ 00486d50 f i libucrtd:osfinfo.obj
 0001:00085d80       ?get@?$__crt_unique_heap_ptr@U__crt_lowio_handle_data@@U__crt_internal_free_policy@@@@QBEPAU__crt_lowio_handle_data@@XZ 00486d80 f i libucrtd:osfinfo.obj
 0001:00085da0       ?is_valid@?$__crt_unique_heap_ptr@U__crt_lowio_handle_data@@U__crt_internal_free_policy@@@@QBE_NXZ 00486da0 f i libucrtd:osfinfo.obj
 0001:00085de0       ?release@?$__crt_unique_heap_ptr@U__crt_lowio_handle_data@@U__crt_internal_free_policy@@@@QAEXXZ 00486de0 f i libucrtd:osfinfo.obj
 0001:00085e20       ___acrt_lowio_create_handle_array 00486e20 f   libucrtd:osfinfo.obj
 0001:00085fb0       ___acrt_lowio_destroy_handle_array 00486fb0 f   libucrtd:osfinfo.obj
 0001:00086020       ___acrt_lowio_ensure_fh_exists 00487020 f   libucrtd:osfinfo.obj
 0001:000861d0       ___acrt_lowio_lock_fh      004871d0 f   libucrtd:osfinfo.obj
 0001:00086200       ___acrt_lowio_set_os_handle 00487200 f   libucrtd:osfinfo.obj
 0001:00086310       ___acrt_lowio_unlock_fh    00487310 f   libucrtd:osfinfo.obj
 0001:00086340       __alloc_osfhnd             00487340 f   libucrtd:osfinfo.obj
 0001:00086590       __free_osfhnd              00487590 f   libucrtd:osfinfo.obj
 0001:000866b0       __get_osfhandle            004876b0 f   libucrtd:osfinfo.obj
 0001:00086890       __open_osfhandle           00487890 f   libucrtd:osfinfo.obj
 0001:00086b10       ___p__fmode                00487b10 f   libucrtd:txtmode.obj
 0001:00086b20       ___pctype_func             00487b20 f   libucrtd:ctype.obj
 0001:00086b60       ___pwctype_func            00487b60 f   libucrtd:ctype.obj
 0001:00086b70       ??$?RG@__crt_internal_free_policy@@QBEXQBG@Z 00487b70 f i libucrtd:initctype.obj
 0001:00086ba0       ??$?RJ@__crt_internal_free_policy@@QBEXQBJ@Z 00487ba0 f i libucrtd:initctype.obj
 0001:00086bd0       ??0?$__crt_unique_heap_ptr@GU__crt_internal_free_policy@@@@QAE@QAG@Z 00487bd0 f i libucrtd:initctype.obj
 0001:00086bf0       ??0?$__crt_unique_heap_ptr@JU__crt_internal_free_policy@@@@QAE@QAJ@Z 00487bf0 f i libucrtd:initctype.obj
 0001:00086c10       ??1?$__crt_unique_heap_ptr@GU__crt_internal_free_policy@@@@QAE@XZ 00487c10 f i libucrtd:initctype.obj
 0001:00086c30       ??1?$__crt_unique_heap_ptr@JU__crt_internal_free_policy@@@@QAE@XZ 00487c30 f i libucrtd:initctype.obj
 0001:00086c50       ?detach@?$__crt_unique_heap_ptr@GU__crt_internal_free_policy@@@@QAEPAGXZ 00487c50 f i libucrtd:initctype.obj
 0001:00086c80       ?detach@?$__crt_unique_heap_ptr@JU__crt_internal_free_policy@@@@QAEPAJXZ 00487c80 f i libucrtd:initctype.obj
 0001:00086cb0       ?release@?$__crt_unique_heap_ptr@GU__crt_internal_free_policy@@@@QAEXXZ 00487cb0 f i libucrtd:initctype.obj
 0001:00086cf0       ?release@?$__crt_unique_heap_ptr@JU__crt_internal_free_policy@@@@QAEXXZ 00487cf0 f i libucrtd:initctype.obj
 0001:00086d30       ____lc_codepage_func       00487d30 f   libucrtd:initctype.obj
 0001:00086d70       ____lc_collate_cp_func     00487d70 f   libucrtd:initctype.obj
 0001:00086db0       ____lc_locale_name_func    00487db0 f   libucrtd:initctype.obj
 0001:00086e00       ____mb_cur_max_func        00487e00 f   libucrtd:initctype.obj
 0001:00086e40       ____mb_cur_max_l_func      00487e40 f   libucrtd:initctype.obj
 0001:00086e80       ___acrt_locale_initialize_ctype 00487e80 f   libucrtd:initctype.obj
 0001:000876d0       ??$?RUlconv@@@__crt_internal_free_policy@@QBEXQBUlconv@@@Z 004886d0 f i libucrtd:initmon.obj
 0001:00087700       ??0?$__crt_unique_heap_ptr@Ulconv@@U__crt_internal_free_policy@@@@QAE@QAUlconv@@@Z 00488700 f i libucrtd:initmon.obj
 0001:00087720       ??1?$__crt_unique_heap_ptr@Ulconv@@U__crt_internal_free_policy@@@@QAE@XZ 00488720 f i libucrtd:initmon.obj
 0001:00087740       ?detach@?$__crt_unique_heap_ptr@Ulconv@@U__crt_internal_free_policy@@@@QAEPAUlconv@@XZ 00488740 f i libucrtd:initmon.obj
 0001:00087770       ?release@?$__crt_unique_heap_ptr@Ulconv@@U__crt_internal_free_policy@@@@QAEXXZ 00488770 f i libucrtd:initmon.obj
 0001:000877b0       ___acrt_locale_free_monetary 004887b0 f   libucrtd:initmon.obj
 0001:000879c0       ___acrt_locale_initialize_monetary 004889c0 f   libucrtd:initmon.obj
 0001:00088210       ___acrt_locale_free_numeric 00489210 f   libucrtd:initnum.obj
 0001:000882f0       ___acrt_locale_initialize_numeric 004892f0 f   libucrtd:initnum.obj
 0001:00088840       ??$?RU__crt_lc_time_data@@@__crt_internal_free_policy@@QBEXQBU__crt_lc_time_data@@@Z 00489840 f i libucrtd:inittime.obj
 0001:00088930       ??0?$__crt_unique_heap_ptr@U__crt_lc_time_data@@U__crt_internal_free_policy@@@@QAE@QAU__crt_lc_time_data@@@Z 00489930 f i libucrtd:inittime.obj
 0001:00088950       ??1?$__crt_unique_heap_ptr@U__crt_lc_time_data@@U__crt_internal_free_policy@@@@QAE@XZ 00489950 f i libucrtd:inittime.obj
 0001:00088970       ??B?$__crt_unique_heap_ptr@U__crt_lc_time_data@@U__crt_internal_free_policy@@@@QBE_NXZ 00489970 f i libucrtd:inittime.obj
 0001:00088990       ?detach@?$__crt_unique_heap_ptr@U__crt_lc_time_data@@U__crt_internal_free_policy@@@@QAEPAU__crt_lc_time_data@@XZ 00489990 f i libucrtd:inittime.obj
 0001:00088a10       ?get@?$__crt_unique_heap_ptr@U__crt_lc_time_data@@U__crt_internal_free_policy@@@@QBEPAU__crt_lc_time_data@@XZ 00489a10 f i libucrtd:inittime.obj
 0001:00089000       ?is_valid@?$__crt_unique_heap_ptr@U__crt_lc_time_data@@U__crt_internal_free_policy@@@@QBE_NXZ 0048a000 f i libucrtd:inittime.obj
 0001:00089040       ?release@?$__crt_unique_heap_ptr@U__crt_lc_time_data@@U__crt_internal_free_policy@@@@QAEXXZ 0048a040 f i libucrtd:inittime.obj
 0001:00089080       ___acrt_locale_free_time   0048a080 f   libucrtd:inittime.obj
 0001:00089220       ___acrt_locale_initialize_time 0048a220 f   libucrtd:inittime.obj
 0001:000892b0       _wcscmp                    0048a2b0 f   libucrtd:wcscmp.obj
 0001:00089330       _wcscspn                   0048a330 f   libucrtd:wcscspn.obj
 0001:000893c0       _wcspbrk                   0048a3c0 f   libucrtd:wcspbrk.obj
 0001:00089440       ___acrt_GetStringTypeA     0048a440 f   libucrtd:getstringtypea.obj
 0001:00089660       ___acrt_add_locale_ref     0048a660 f   libucrtd:locale_refcounting.obj
 0001:000897a0       ___acrt_free_locale        0048a7a0 f   libucrtd:locale_refcounting.obj
 0001:00089b10       ___acrt_locale_add_lc_time_reference 0048ab10 f   libucrtd:locale_refcounting.obj
 0001:00089b50       ___acrt_locale_free_lc_time_if_unreferenced 0048ab50 f   libucrtd:locale_refcounting.obj
 0001:00089bb0       ___acrt_locale_release_lc_time_reference 0048abb0 f   libucrtd:locale_refcounting.obj
 0001:00089bf0       ___acrt_release_locale_ref 0048abf0 f   libucrtd:locale_refcounting.obj
 0001:00089d40       ___acrt_update_thread_locale_data 0048ad40 f   libucrtd:locale_refcounting.obj
 0001:00089e50       __updatetlocinfoEx_nolock  0048ae50 f   libucrtd:locale_refcounting.obj
 0001:0008acb0       ___acrt_get_qualified_locale 0048bcb0 f   libucrtd:get_qualified_locale.obj
 0001:0008c020       ___acrt_get_qualified_locale_downlevel 0048d020 f   libucrtd:getqloc_downlevel.obj
 0001:0008c380       _localeconv                0048d380 f   libucrtd:localeconv.obj
 0001:0008c3d0       ___acrt_getheap            0048d3d0 f   libucrtd:heap_handle.obj
 0001:0008c420       ___acrt_initialize_heap    0048d420 f   libucrtd:heap_handle.obj
 0001:0008c450       ___acrt_uninitialize_heap  0048d450 f   libucrtd:heap_handle.obj
 0001:0008c470       __get_heap_handle          0048d470 f   libucrtd:heap_handle.obj
 0001:0008c4c0       ___acrt_execute_initializers 0048d4c0 f   libucrtd:shared_initialization.obj
 0001:0008c5c0       ___acrt_execute_uninitializers 0048d5c0 f   libucrtd:shared_initialization.obj
 0001:0008c650       ??$?B$$A6AHI@Z@__crt_fast_encoded_nullptr_t@@QBEP6AHI@ZXZ 0048d650 f i libucrtd:new_handler.obj
 0001:0008c670       ??$__crt_fast_decode_pointer@P6AHI@Z@@YAP6AHI@ZQ6AHI@Z@Z 0048d670 f i libucrtd:new_handler.obj
 0001:0008c6b0       ??$__crt_fast_encode_pointer@P6AHI@Z@@YAP6AHI@ZQ6AHI@Z@Z 0048d6b0 f i libucrtd:new_handler.obj
 0001:0008c6f0       ?_set_new_handler@@YAP6AHI@ZH@Z 0048d6f0 f   libucrtd:new_handler.obj
 0001:0008c760       ?initialize@?$dual_state_global@P6AHI@Z@__crt_state_management@@QAEXQ6AHI@Z@Z 0048d760 f i libucrtd:new_handler.obj
 0001:0008c7b0       ?value@?$dual_state_global@P6AHI@Z@__crt_state_management@@QAEAAP6AHI@ZXZ 0048d7b0 f i libucrtd:new_handler.obj
 0001:0008c7d0       ___acrt_initialize_new_handler 0048d7d0 f   libucrtd:new_handler.obj
 0001:0008c7f0       __callnewh                 0048d7f0 f   libucrtd:new_handler.obj
 0001:0008c860       __query_new_handler        0048d860 f   libucrtd:new_handler.obj
 0001:0008c920       __set_new_handler          0048d920 f   libucrtd:new_handler.obj
 0001:0008ca00       ??$?B$$A6AXH@Z@__crt_fast_encoded_nullptr_t@@QBEP6AXH@ZXZ 0048da00 f i libucrtd:signal.obj
 0001:0008ca20       ??$?RV<lambda_a048d3beccc847880fc8490e18b82769>@@AAV<lambda_ec61778202f4f5fc7e7711acc23c3bca>@@V<lambda_f7496a158712204296dd6628a163878e>@@@?$__crt_seh_guarded_call@P6AXH@Z@@QAEP6AXH@Z$$QAV<lambda_a048d3beccc847880fc8490e18b82769>@@AAV<lambda_ec61778202f4f5fc7e7711acc23c3bca>@@$$QAV<lambda_f7496a158712204296dd6628a163878e>@@@Z 0048da20 f i libucrtd:signal.obj
 0001:0008cad0       ??$__acrt_lock_and_call@V<lambda_ec61778202f4f5fc7e7711acc23c3bca>@@@@YAP6AXH@ZW4__acrt_lock_id@@$$QAV<lambda_ec61778202f4f5fc7e7711acc23c3bca>@@@Z 0048dad0 f i libucrtd:signal.obj
 0001:0008cb20       ??$__crt_fast_decode_pointer@P6AXH@Z@@YAP6AXH@ZQ6AXH@Z@Z 0048db20 f i libucrtd:signal.obj
 0001:0008cb60       ??$__crt_fast_encode_pointer@P6AXH@Z@@YAP6AXH@ZQ6AXH@Z@Z 0048db60 f i libucrtd:signal.obj
 0001:0008cee0       ?initialize@?$dual_state_global@P6AXH@Z@__crt_state_management@@QAEXQ6AXH@Z@Z 0048dee0 f i libucrtd:signal.obj
 0001:0008d000       ?value@?$dual_state_global@P6AXH@Z@__crt_state_management@@QAEAAP6AXH@ZXZ 0048e000 f i libucrtd:signal.obj
 0001:0008d020       ___acrt_get_sigabrt_handler 0048e020 f   libucrtd:signal.obj
 0001:0008d040       ___acrt_initialize_signal_handlers 0048e040 f   libucrtd:signal.obj
 0001:0008d090       ___fpecode                 0048e090 f   libucrtd:signal.obj
 0001:0008d0b0       ___pxcptinfoptrs           0048e0b0 f   libucrtd:signal.obj
 0001:0008d0d0       _raise                     0048e0d0 f   libucrtd:signal.obj
 0001:0008d5a0       _signal                    0048e5a0 f   libucrtd:signal.obj
 0001:0008db60       ___control87_2             0048eb60 f   libucrtd:ieee87.obj
 0001:0008dcd0       ___fpreset_sse2            0048ecd0 f   libucrtd:ieee87.obj
 0001:0008e120       __clearfp                  0048f120 f   libucrtd:ieee87.obj
 0001:0008e180       __control87                0048f180 f   libucrtd:ieee87.obj
 0001:0008e260       __controlfp                0048f260 f   libucrtd:ieee87.obj
 0001:0008e290       __fpreset                  0048f290 f   libucrtd:ieee87.obj
 0001:0008e4c0       __set_controlfp            0048f4c0 f   libucrtd:ieee87.obj
 0001:0008e570       __statusfp                 0048f570 f   libucrtd:ieee87.obj
 0001:0008e5d0       __statusfp2                0048f5d0 f   libucrtd:ieee87.obj
 0001:0008e620       ??$__crt_interlocked_exchange_pointer@X$$T@@YAPAXPDSAX$$T@Z 0048f620 f i libucrtd:free_base.obj
 0001:0008e650       ___acrt_get_msvcrt_heap_handle 0048f650 f   libucrtd:free_base.obj
 0001:0008e740       __free_base                0048f740 f   libucrtd:free_base.obj
 0001:0008e7a0       __msize                    0048f7a0 f   libucrtd:msize.obj
 0001:0008e7c0       __realloc_base             0048f7c0 f   libucrtd:realloc_base.obj
 0001:0008e880       __aligned_free             0048f880 f   libucrtd:align.obj
 0001:0008e8a0       __aligned_free_base        0048f8a0 f   libucrtd:align.obj
 0001:0008e8f0       __aligned_malloc           0048f8f0 f   libucrtd:align.obj
 0001:0008e920       __aligned_malloc_base      0048f920 f   libucrtd:align.obj
 0001:0008e940       __aligned_msize            0048f940 f   libucrtd:align.obj
 0001:0008e970       __aligned_msize_base       0048f970 f   libucrtd:align.obj
 0001:0008eaf0       __aligned_offset_malloc    0048faf0 f   libucrtd:align.obj
 0001:0008eb20       __aligned_offset_malloc_base 0048fb20 f   libucrtd:align.obj
 0001:0008ed40       __aligned_offset_realloc   0048fd40 f   libucrtd:align.obj
 0001:0008ed70       __aligned_offset_realloc_base 0048fd70 f   libucrtd:align.obj
 0001:0008f150       __aligned_offset_recalloc  00490150 f   libucrtd:align.obj
 0001:0008f180       __aligned_offset_recalloc_base 00490180 f   libucrtd:align.obj
 0001:0008f260       __aligned_realloc          00490260 f   libucrtd:align.obj
 0001:0008f290       __aligned_realloc_base     00490290 f   libucrtd:align.obj
 0001:0008f2c0       __aligned_recalloc         004902c0 f   libucrtd:align.obj
 0001:0008f2f0       __aligned_recalloc_base    004902f0 f   libucrtd:align.obj
 0001:0008f380       __expand                   00490380 f   libucrtd:expand.obj
 0001:0008f3b0       __expand_base              004903b0 f   libucrtd:expand.obj
 0001:0008f530       __CrtDefaultAllocHook      00490530 f   libucrtd:debug_heap_hook.obj
 0001:0008f540       __CrtGetReportHook         00490540 f   libucrtd:dbgrptt.obj
 0001:0008f550       __CrtSetReportFile         00490550 f   libucrtd:dbgrptt.obj
 0001:0008f680       __CrtSetReportHook         00490680 f   libucrtd:dbgrptt.obj
 0001:0008f6b0       __CrtSetReportMode         004906b0 f   libucrtd:dbgrptt.obj
 0001:0008f840       __VCrtDbgReportA           00490840 f   libucrtd:dbgrptt.obj
 0001:00090300       __VCrtDbgReportW           00491300 f   libucrtd:dbgrptt.obj
 0001:00090f20       __snprintf_s               00491f20 f i libucrtd:dbgrptt.obj
 0001:00090f80       __vsnprintf_s              00491f80 f i libucrtd:dbgrptt.obj
 0001:00090fb0       __vsnprintf_s_l            00491fb0 f i libucrtd:dbgrptt.obj
 0001:00091020       __vsnwprintf_s             00492020 f i libucrtd:dbgrptt.obj
 0001:00091050       __iswctype_l               00492050 f   libucrtd:iswctype.obj
 0001:00091070       _iswctype                  00492070 f   libucrtd:iswctype.obj
 0001:00091330       ___acrt_DownlevelLCIDToLocaleName 00492330 f   libucrtd:lcidtoname_downlevel.obj
 0001:00091430       ___acrt_DownlevelLocaleNameToLCID 00492430 f   libucrtd:lcidtoname_downlevel.obj
 0001:00091480       __wcsnicmp                 00492480 f   libucrtd:wcsnicmp.obj
 0001:000916f0       __wcsnicmp_l               004926f0 f   libucrtd:wcsnicmp.obj
 0001:000919f0       __strnicmp                 004929f0 f   libucrtd:strnicmp.obj
 0001:00091c30       __strnicmp_l               00492c30 f   libucrtd:strnicmp.obj
 0001:00091f60       ??$__vcrt_va_start_verify_argument_type@$$CBH@@YAXXZ 00492f60 f i libucrtd:open.obj
 0001:00092a10       ??$tsopen_nolock@PAHABQAHABQBDABHABHABHABH@?$__crt_char_traits@D@@SAH$$QAPAHABQAHABQBDABH333@Z 00493a10 f i libucrtd:open.obj
 0001:00092a60       ??$tsopen_nolock@PAHABQAHABQB_WABHABHABHABH@?$__crt_char_traits@_W@@SAH$$QAPAHABQAHABQB_WABH333@Z 00493a60 f i libucrtd:open.obj
 0001:00092ab0       ??$tsopen_nolock@PAHPAHABQBDABHHABHH@?$__crt_char_traits@D@@SAH$$QAPAH0ABQBDABH$$QAH23@Z 00493ab0 f i libucrtd:open.obj
 0001:00092b00       ??$tsopen_nolock@PAHPAHABQB_WABHHABHH@?$__crt_char_traits@_W@@SAH$$QAPAH0ABQB_WABH$$QAH23@Z 00493b00 f i libucrtd:open.obj
 0001:00093940       __open                     00494940 f   libucrtd:open.obj
 0001:000939a0       __sopen                    004949a0 f   libucrtd:open.obj
 0001:00093a30       __sopen_dispatch           00494a30 f   libucrtd:open.obj
 0001:00093a60       __sopen_nolock             00494a60 f   libucrtd:open.obj
 0001:00093af0       __sopen_s                  00494af0 f   libucrtd:open.obj
 0001:00093b20       __wopen                    00494b20 f   libucrtd:open.obj
 0001:00093b80       __wsopen                   00494b80 f   libucrtd:open.obj
 0001:00093c10       __wsopen_dispatch          00494c10 f   libucrtd:open.obj
 0001:00093c40       __wsopen_nolock            00494c40 f   libucrtd:open.obj
 0001:00094340       __wsopen_s                 00495340 f   libucrtd:open.obj
 0001:00094370       __isatty                   00495370 f   libucrtd:isatty.obj
 0001:00094470       ___acrt_stdio_allocate_buffer_nolock 00495470 f   libucrtd:_getbuf.obj
 0001:000945d0       ___acrt_fp_strflt_to_string 004955d0 f   libucrtd:_fptostr.obj
 0001:00095170       ??0big_integer@__crt_strtox@@QAE@ABU01@@Z 00496170 f i libucrtd:cfout.obj
 0001:000951c0       ??0big_integer@__crt_strtox@@QAE@XZ 004961c0 f i libucrtd:cfout.obj
 0001:00095200       ??0scoped_fp_state_reset@?A0x48fbfdd4@@QAE@XZ 00496200 f i libucrtd:cfout.obj
 0001:00095260       ??1scoped_fp_state_reset@?A0x48fbfdd4@@QAE@XZ 00496260 f i libucrtd:cfout.obj
 0001:00095290       ??4big_integer@__crt_strtox@@QAEAAU01@ABU01@@Z 00496290 f i libucrtd:cfout.obj
 0001:000952e0       ??8__crt_strtox@@YA_NABUbig_integer@0@0@Z 004962e0 f i libucrtd:cfout.obj
 0001:00095350       ??9__crt_strtox@@YA_NABUbig_integer@0@0@Z 00496350 f i libucrtd:cfout.obj
 0001:000953a0       ?add_carry@__crt_strtox@@YAIAAIII@Z 004963a0 f i libucrtd:cfout.obj
 0001:000953f0       ?add_multiply_carry@__crt_strtox@@YAIAAIIII@Z 004963f0 f i libucrtd:cfout.obj
 0001:00095440       ?bit_scan_reverse@__crt_strtox@@YAII@Z 00496440 f i libucrtd:cfout.obj
 0001:00095480       ?count_sequential_high_zeroes@__crt_strtox@@YAII@Z 00496480 f i libucrtd:cfout.obj
 0001:000954d0       ?divide@__crt_strtox@@YA_KAAUbig_integer@1@ABU21@@Z 004964d0 f i libucrtd:cfout.obj
 0001:000961f0       ?is_zero@__crt_strtox@@YA_NABUbig_integer@1@@Z 004971f0 f i libucrtd:cfout.obj
 0001:00096220       ?make_big_integer@__crt_strtox@@YA?AUbig_integer@1@_K@Z 00497220 f i libucrtd:cfout.obj
 0001:00096300       ?make_big_integer_power_of_two@__crt_strtox@@YA?AUbig_integer@1@I@Z 00497300 f i libucrtd:cfout.obj
 0001:000963e0       ?multiply@__crt_strtox@@YA_NAAUbig_integer@1@ABU21@@Z 004973e0 f i libucrtd:cfout.obj
 0001:00096840       ?multiply@__crt_strtox@@YA_NAAUbig_integer@1@I@Z 00497840 f i libucrtd:cfout.obj
 0001:00096940       ?multiply_64_32@__crt_strtox@@YA_K_KI@Z 00497940 f i libucrtd:cfout.obj
 0001:00096960       ?multiply_by_power_of_ten@__crt_strtox@@YA_NAAUbig_integer@1@I@Z 00497960 f i libucrtd:cfout.obj
 0001:00096b60       ?multiply_core@__crt_strtox@@YAIQAIII@Z 00497b60 f i libucrtd:cfout.obj
 0001:00096be0       ?shift_left@__crt_strtox@@YA_NAAUbig_integer@1@I@Z 00497be0 f i libucrtd:cfout.obj
 0001:00097000       ___acrt_fltout             00498000 f   libucrtd:cfout.obj
 0001:0009748c       ??$?RV<lambda_4980db0136e49a56f91ef52c46ca659a>@@AAV<lambda_6e3e78bb6855d1e4040e022c1b427e22>@@V<lambda_9c074eaf62197b4fd0274ed9e7824161>@@@?$__crt_seh_guarded_call@G@@QAEG$$QAV<lambda_4980db0136e49a56f91ef52c46ca659a>@@AAV<lambda_6e3e78bb6855d1e4040e022c1b427e22>@@$$QAV<lambda_9c074eaf62197b4fd0274ed9e7824161>@@@Z 0049848c f i libucrtd:putwch.obj
 0001:00097501       ??$__acrt_lock_and_call@V<lambda_6e3e78bb6855d1e4040e022c1b427e22>@@@@YAGW4__acrt_lock_id@@$$QAV<lambda_6e3e78bb6855d1e4040e022c1b427e22>@@@Z 00498501 f i libucrtd:putwch.obj
 0001:00097599       __putwch                   00498599 f   libucrtd:putwch.obj
 0001:000975bd       __putwch_nolock            004985bd f   libucrtd:putwch.obj
 0001:00097620       ?dangerous_get_state_array@?$dual_state_global@PAPAD@__crt_state_management@@QAEPAPAPADXZ 00498620 f i libucrtd:timeset.obj
 0001:00097640       ?initialize@?$dual_state_global@H@__crt_state_management@@QAEXH@Z 00498640 f i libucrtd:timeset.obj
 0001:00097690       ?initialize@?$dual_state_global@J@__crt_state_management@@QAEXJ@Z 00498690 f i libucrtd:timeset.obj
 0001:000976e0       ?value@?$dual_state_global@H@__crt_state_management@@QAEAAHXZ 004986e0 f i libucrtd:timeset.obj
 0001:00097700       ___acrt_initialize_timeset 00498700 f   libucrtd:timeset.obj
 0001:00097790       ___daylight                00498790 f   libucrtd:timeset.obj
 0001:000977b0       ___dstbias                 004987b0 f   libucrtd:timeset.obj
 0001:000977d0       ___timezone                004987d0 f   libucrtd:timeset.obj
 0001:000977f0       ___tzname                  004987f0 f   libucrtd:timeset.obj
 0001:00097810       __get_daylight             00498810 f   libucrtd:timeset.obj
 0001:000978d0       __get_dstbias              004988d0 f   libucrtd:timeset.obj
 0001:00097990       __get_timezone             00498990 f   libucrtd:timeset.obj
 0001:00097a50       __get_tzname               00498a50 f   libucrtd:timeset.obj
 0001:00097ce0       ??$?RUtm@@@__crt_internal_free_policy@@QBEXQBUtm@@@Z 00498ce0 f i libucrtd:gmtime.obj
 0001:00097d10       ??$__crt_time_elapsed_leap_years@H@@YAHH@Z 00498d10 f i libucrtd:gmtime.obj
 0001:000984d0       ??0?$__crt_unique_heap_ptr@Utm@@U__crt_internal_free_policy@@@@QAE@QAUtm@@@Z 004994d0 f i libucrtd:gmtime.obj
 0001:000984f0       ??1?$__crt_unique_heap_ptr@Utm@@U__crt_internal_free_policy@@@@QAE@XZ 004994f0 f i libucrtd:gmtime.obj
 0001:00098740       ?detach@?$__crt_unique_heap_ptr@Utm@@U__crt_internal_free_policy@@@@QAEPAUtm@@XZ 00499740 f i libucrtd:gmtime.obj
 0001:00098770       ?release@?$__crt_unique_heap_ptr@Utm@@U__crt_internal_free_policy@@@@QAEXXZ 00499770 f i libucrtd:gmtime.obj
 0001:000987b0       ___getgmtimebuf            004997b0 f   libucrtd:gmtime.obj
 0001:00098860       __gmtime32                 00499860 f   libucrtd:gmtime.obj
 0001:00098880       __gmtime32_s               00499880 f   libucrtd:gmtime.obj
 0001:000988a0       __gmtime64                 004998a0 f   libucrtd:gmtime.obj
 0001:000988c0       __gmtime64_s               004998c0 f   libucrtd:gmtime.obj
 0001:00098d20       ?_set_daylight@@YAXH@Z     00499d20 f i libucrtd:tzset.obj
 0001:00098d40       ?_set_dstbias@@YAXJ@Z      00499d40 f i libucrtd:tzset.obj
 0001:00098d60       ?_set_timezone@@YAXJ@Z     00499d60 f i libucrtd:tzset.obj
 0001:00099960       ___tzset                   0049a960 f   libucrtd:tzset.obj
 0001:00099a30       __isindst                  0049aa30 f   libucrtd:tzset.obj
 0001:00099ae0       __tzset                    0049aae0 f   libucrtd:tzset.obj
 0001:00099b70       ___strncnt                 0049ab70 f   libucrtd:strncnt.obj
 0001:00099bd0       ??1scoped_global_state_reset@__crt_state_management@@QAE@XZ 0049abd0 f i libucrtd:qsort.obj
 0001:00099d50       _qsort                     0049ad50 f   libucrtd:qsort.obj
 0001:0009aa80       _strncpy_s                 0049ba80 f   libucrtd:strncpy_s.obj
 0001:0009aab0       _strpbrk                   0049bab0 f   libucrtd:strpbrk.obj
 0001:0009ab00       __mbsdec                   0049bb00 f   libucrtd:mbsdec.obj
 0001:0009ab1c       __mbsdec_l                 0049bb1c f   libucrtd:mbsdec.obj
 0001:0009ac80       __wcsnicoll                0049bc80 f   libucrtd:wcsnicol.obj
 0001:0009af70       __wcsnicoll_l              0049bf70 f   libucrtd:wcsnicol.obj
 0001:0009b310       __strnicoll                0049c310 f   libucrtd:strnicol.obj
 0001:0009b370       __strnicoll_l              0049c370 f   libucrtd:strnicol.obj
 0001:0009b890       ___acrt_GetLocaleInfoA     0049c890 f   libucrtd:getlocaleinfoa.obj
 0001:0009d260       __i64toa                   0049e260 f   libucrtd:xtoa.obj
 0001:0009d2d0       __i64toa_s                 0049e2d0 f   libucrtd:xtoa.obj
 0001:0009d340       __i64tow                   0049e340 f   libucrtd:xtoa.obj
 0001:0009d3b0       __i64tow_s                 0049e3b0 f   libucrtd:xtoa.obj
 0001:0009d420       __itoa                     0049e420 f   libucrtd:xtoa.obj
 0001:0009d480       __itoa_s                   0049e480 f   libucrtd:xtoa.obj
 0001:0009d4e0       __itow                     0049e4e0 f   libucrtd:xtoa.obj
 0001:0009d540       __itow_s                   0049e540 f   libucrtd:xtoa.obj
 0001:0009d5a0       __ltoa                     0049e5a0 f   libucrtd:xtoa.obj
 0001:0009d600       __ltoa_s                   0049e600 f   libucrtd:xtoa.obj
 0001:0009d660       __ltow                     0049e660 f   libucrtd:xtoa.obj
 0001:0009d6c0       __ltow_s                   0049e6c0 f   libucrtd:xtoa.obj
 0001:0009d720       __ui64toa                  0049e720 f   libucrtd:xtoa.obj
 0001:0009d750       __ui64toa_s                0049e750 f   libucrtd:xtoa.obj
 0001:0009d780       __ui64tow                  0049e780 f   libucrtd:xtoa.obj
 0001:0009d7b0       __ui64tow_s                0049e7b0 f   libucrtd:xtoa.obj
 0001:0009d7e0       __ultoa                    0049e7e0 f   libucrtd:xtoa.obj
 0001:0009d810       __ultoa_s                  0049e810 f   libucrtd:xtoa.obj
 0001:0009d840       __ultow                    0049e840 f   libucrtd:xtoa.obj
 0001:0009d870       __ultow_s                  0049e870 f   libucrtd:xtoa.obj
 0001:0009d8a0       __wcsicmp                  0049e8a0 f   libucrtd:wcsicmp.obj
 0001:0009dae0       __wcsicmp_l                0049eae0 f   libucrtd:wcsicmp.obj
 0001:0009dde0       __malloc_base              0049ede0 f   libucrtd:malloc_base.obj
 0001:0009e300       __mbstowcs_l               0049f300 f   libucrtd:mbstowcs.obj
 0001:0009e330       __mbstowcs_s_l             0049f330 f   libucrtd:mbstowcs.obj
 0001:0009e7e0       _mbstowcs                  0049f7e0 f   libucrtd:mbstowcs.obj
 0001:0009e840       _mbstowcs_s                0049f840 f   libucrtd:mbstowcs.obj
 0001:0009f060       __wcstombs_l               004a0060 f   libucrtd:wcstombs.obj
 0001:0009f090       __wcstombs_s_l             004a0090 f   libucrtd:wcstombs.obj
 0001:0009f4d0       _wcstombs                  004a04d0 f   libucrtd:wcstombs.obj
 0001:0009f500       _wcstombs_s                004a0500 f   libucrtd:wcstombs.obj
 0001:0009fa40       _strcat_s                  004a0a40 f   libucrtd:strcat_s.obj
 0001:0009fa70       __towlower_l               004a0a70 f   libucrtd:towlower.obj
 0001:0009fc10       _towlower                  004a0c10 f   libucrtd:towlower.obj
 0001:0009fc30       ___ascii_strnicmp          004a0c30 f   libucrtd:_strnicm.obj
 0001:0009fcb0       ??$?RV<lambda_e87d504cbc7d400fcbe2d82cf548b8f7>@@AAV<lambda_0e5c436e1fba8d7954c4c0cd61485ee8>@@V<lambda_ae6bc716cac9627e2d882580dc02b217>@@@?$__crt_seh_guarded_call@H@@QAEH$$QAV<lambda_e87d504cbc7d400fcbe2d82cf548b8f7>@@AAV<lambda_0e5c436e1fba8d7954c4c0cd61485ee8>@@$$QAV<lambda_ae6bc716cac9627e2d882580dc02b217>@@@Z 004a0cb0 f i libucrtd:chsize.obj
 0001:0009fd60       ??$__acrt_lowio_lock_fh_and_call@V<lambda_0e5c436e1fba8d7954c4c0cd61485ee8>@@@@YAHH$$QAV<lambda_0e5c436e1fba8d7954c4c0cd61485ee8>@@@Z 004a0d60 f i libucrtd:chsize.obj
 0001:0009ff50       __chsize                   004a0f50 f   libucrtd:chsize.obj
 0001:0009ff90       __chsize_nolock            004a0f90 f   libucrtd:chsize.obj
 0001:000a0290       __chsize_s                 004a1290 f   libucrtd:chsize.obj
 0001:000a0510       __umask                    004a1510 f   libucrtd:umask.obj
 0001:000a0550       __umask_s                  004a1550 f   libucrtd:umask.obj
 0001:000a06b0       _log10                     004a16b0 f   libucrtd:log10.obj
 0001:000a06f0       __CIlog10                  004a16f0 f   libucrtd:log10.obj
 0001:000a072b       __CIlog10_default          004a172b f   libucrtd:log10.obj
 0001:000a073f       __log10_default            004a173f     libucrtd:log10.obj
 0001:000a0860       _ceil                      004a1860 f   libucrtd:ceil_pentium4.obj
 0001:000a08a0       __ceil_pentium4            004a18a0 f   libucrtd:ceil_pentium4.obj
 0001:000a09d0       _fegetenv                  004a19d0 f   libucrtd:fegetenv.obj
 0001:000a0a00       _fesetenv                  004a1a00 f   libucrtd:fesetenv.obj
 0001:000a0a80       _feholdexcept              004a1a80 f   libucrtd:feholdexcept.obj
 0001:000a0aff       ___dcrt_lowio_initialize_console_output 004a1aff f   libucrtd:initcon.obj
 0001:000a0b25       ___dcrt_terminate_console_output 004a1b25 f   libucrtd:initcon.obj
 0001:000a1763       ??$tcscpy_s@AAPADABIABQBD@?$__crt_char_traits@D@@SAHAAPADABIABQBD@Z 004a2763 f i libucrtd:getenv.obj
 0001:000a1788       ??$tcscpy_s@AAPA_WABIABQB_W@?$__crt_char_traits@_W@@SAHAAPA_WABIABQB_W@Z 004a2788 f i libucrtd:getenv.obj
 0001:000a17ad       ??$tcscpy_s@ABQADABIABQBD@?$__crt_char_traits@D@@SAHABQADABIABQBD@Z 004a27ad f i libucrtd:getenv.obj
 0001:000a17d2       ??$tcscpy_s@ABQA_WABIABQB_W@?$__crt_char_traits@_W@@SAHABQA_WABIABQB_W@Z 004a27d2 f i libucrtd:getenv.obj
 0001:000a17f7       ??$tcsnicoll@AAPADABQBDABI@?$__crt_char_traits@D@@SAHAAPADABQBDABI@Z 004a27f7 f i libucrtd:getenv.obj
 0001:000a181c       ??$tcsnicoll@AAPA_WABQB_WABI@?$__crt_char_traits@_W@@SAHAAPA_WABQB_WABI@Z 004a281c f i libucrtd:getenv.obj
 0001:000a1841       ??$tcsnlen@ABQBDH@?$__crt_char_traits@D@@SAIABQBD$$QAH@Z 004a2841 f i libucrtd:getenv.obj
 0001:000a185f       ??$tcsnlen@ABQB_WH@?$__crt_char_traits@_W@@SAIABQB_W$$QAH@Z 004a285f f i libucrtd:getenv.obj
 0001:000a187d       ??$tcsnlen@PADH@?$__crt_char_traits@D@@SAI$$QAPAD$$QAH@Z 004a287d f i libucrtd:getenv.obj
 0001:000a189b       ??$tcsnlen@PA_WH@?$__crt_char_traits@_W@@SAI$$QAPA_W$$QAH@Z 004a289b f i libucrtd:getenv.obj
 0001:000a18b9       __dupenv_s                 004a28b9 f   libucrtd:getenv.obj
 0001:000a18de       __dupenv_s_dbg             004a28de f   libucrtd:getenv.obj
 0001:000a18eb       __wdupenv_s                004a28eb f   libucrtd:getenv.obj
 0001:000a1910       __wdupenv_s_dbg            004a2910 f   libucrtd:getenv.obj
 0001:000a191d       __wgetenv                  004a291d f   libucrtd:getenv.obj
 0001:000a192a       __wgetenv_s                004a292a f   libucrtd:getenv.obj
 0001:000a1937       _getenv                    004a2937 f   libucrtd:getenv.obj
 0001:000a1944       _getenv_s                  004a2944 f   libucrtd:getenv.obj
 0001:000a1960       ___acrt_CompareStringW     004a2960 f   libucrtd:comparestringw.obj
 0001:000a1fe0       ___acrt_CompareStringA     004a2fe0 f   libucrtd:comparestringa.obj
 0001:000a2050       ___acrt_LCMapStringW       004a3050 f   libucrtd:lcmapstringw.obj
 0001:000a20d0       ___acrt_initialize_sse2    004a30d0 f   libucrtd:mathfcns.obj
 0001:000a20f0       __set_SSE2_enable          004a30f0 f   libucrtd:mathfcns.obj
 0001:000a2150       __CIlog10_pentium4         004a3150 f   libucrtd:log10_pentium4.obj
 0001:000a2168       __log10_pentium4           004a3168     libucrtd:log10_pentium4.obj
 0001:000a24a1       __fFEXP                    004a34a1     libucrtd:87tran.obj
 0001:000a24f8       __rtinfpopse               004a34f8     libucrtd:87tran.obj
 0001:000a24fa       __rtinfnpopse              004a34fa     libucrtd:87tran.obj
 0001:000a250a       __fFLN                     004a350a     libucrtd:87tran.obj
 0001:000a25bf       __rtinfpop                 004a35bf     libucrtd:87tran.obj
 0001:000a25c1       __rtinfnpop                004a35c1     libucrtd:87tran.obj
 0001:000a25de       __ffexpm1                  004a35de     libucrtd:87tran.obj
 0001:000a2710       __trandisp1                004a3710 f   libucrtd:87disp.obj
 0001:000a2777       __trandisp2                004a3777 f   libucrtd:87disp.obj
 0001:000a2803       __rttospopde               004a3803     libucrtd:87disp.obj
 0001:000a2808       __rttospop                 004a3808     libucrtd:87disp.obj
 0001:000a280a       __rtnospop                 004a380a     libucrtd:87disp.obj
 0001:000a280c       __rttosnpop                004a380c     libucrtd:87disp.obj
 0001:000a280d       __rtnospopde               004a380d     libucrtd:87disp.obj
 0001:000a2814       __rtzeropop                004a3814     libucrtd:87disp.obj
 0001:000a2816       __rtzeronpop               004a3816     libucrtd:87disp.obj
 0001:000a281b       __rtzerospop               004a381b     libucrtd:87disp.obj
 0001:000a2828       __rtonepop                 004a3828     libucrtd:87disp.obj
 0001:000a282a       __rtonenpop                004a382a     libucrtd:87disp.obj
 0001:000a282f       __tosnan1                  004a382f     libucrtd:87disp.obj
 0001:000a285a       __nosnan2                  004a385a     libucrtd:87disp.obj
 0001:000a285c       __tosnan2                  004a385c     libucrtd:87disp.obj
 0001:000a2884       __nan2                     004a3884     libucrtd:87disp.obj
 0001:000a28c3       __rtindfpop                004a38c3     libucrtd:87disp.obj
 0001:000a28c5       __rtindfnpop               004a38c5     libucrtd:87disp.obj
 0001:000a28d6       __rttosnpopde              004a38d6     libucrtd:87disp.obj
 0001:000a28e0       __rtatan2inf               004a38e0     libucrtd:87disp.obj
 0001:000a28fd       __rtchsifneg               004a38fd     libucrtd:87disp.obj
 0001:000a2990       ___setfflag                004a3990 f   libucrtd:fp_flags.obj
 0001:000a29c0       __twoToTOS                 004a39c0 f   libucrtd:common.obj
 0001:000a29d5       __load_CW                  004a39d5 f   libucrtd:common.obj
 0001:000a29ec       __convertTOStoQNaN         004a39ec f   libucrtd:common.obj
 0001:000a2a05       __fload_withFB             004a3a05 f   libucrtd:common.obj
 0001:000a2a48       __checkTOS_withFB          004a3a48 f   libucrtd:common.obj
 0001:000a2a5e       __fast_exit                004a3a5e f   libucrtd:common.obj
 0001:000a2a6b       __math_exit                004a3a6b f   libucrtd:common.obj
 0001:000a2a95       __check_overflow_exit      004a3a95 f   libucrtd:common.obj
 0001:000a2aa9       __check_range_exit         004a3aa9 f   libucrtd:common.obj
 0001:000a2bb0       __startTwoArgErrorHandling 004a3bb0 f   libucrtd:genexcep.obj
 0001:000a2bc7       __startOneArgErrorHandling 004a3bc7 f   libucrtd:genexcep.obj
 0001:000a2c20       ___libm_error_support      004a3c20 f   libucrtd:libm_error.obj
 0001:000a3360       ___libm_setusermatherr     004a4360 f   libucrtd:libm_error.obj
 0001:000a33a0       __ceil_default             004a43a0 f   libucrtd:ceil.obj
 0001:000a3500       ___acrt_fenv_get_fp_status_word_from_exception_mask 004a4500 f   libucrtd:_fenvutils.obj
 0001:000a3c80       __getfpcontrolword         004a4c80 f   libucrtd:_fenvutils.obj
 0001:000a3cf0       __getfpstatusword          004a4cf0 f   libucrtd:_fenvutils.obj
 0001:000a3d60       __setfpcontrolword         004a4d60 f   libucrtd:_fenvutils.obj
 0001:000a3e50       __setfpstatusword          004a4e50 f   libucrtd:_fenvutils.obj
 0001:000a3f40       __d_inttype                004a4f40 f   libucrtd:powhlp.obj
 0001:000a3ff0       __powhlp                   004a4ff0 f   libucrtd:powhlp.obj
 0001:000a4200       __87except                 004a5200 f   libucrtd:87except.obj
 0001:000a4470       __frnd                     004a5470 f   libucrtd:frnd.obj
 0001:000a4490       __chgsign                  004a5490 f   libucrtd:ieeemisc.obj
 0001:000a44d0       __chgsignf                 004a54d0 f   libucrtd:ieeemisc.obj
 0001:000a4520       __copysign                 004a5520 f   libucrtd:ieeemisc.obj
 0001:000a4560       __copysignf                004a5560 f   libucrtd:ieeemisc.obj
 0001:000a45c0       __finite                   004a55c0 f   libucrtd:ieeemisc.obj
 0001:000a45f0       __fpclass                  004a55f0 f   libucrtd:ieeemisc.obj
 0001:000a4720       __isnan                    004a5720 f   libucrtd:ieeemisc.obj
 0001:000a4780       __logb                     004a5780 f   libucrtd:ieeemisc.obj
 0001:000a48e0       __nextafter                004a58e0 f   libucrtd:ieeemisc.obj
 0001:000a4910       __scalb                    004a5910 f   libucrtd:ieeemisc.obj
 0001:000a4940       _ldexp                     004a5940 f   libucrtd:ldexp.obj
 0001:000a4cd0       _nextafter                 004a5cd0 f   libucrtd:nextafter.obj
 0001:000a4d00       _nexttoward                004a5d00 f   libucrtd:nexttoward.obj
 0001:000a5120       __d_int                    004a6120 f   libucrtd:_test.obj
 0001:000a5470       __dtest                    004a6470 f   libucrtd:_test.obj
 0001:000a55d0       __fd_int                   004a65d0 f   libucrtd:_test.obj
 0001:000a5820       __fdtest                   004a6820 f   libucrtd:_test.obj
 0001:000a5920       __fperrraise               004a6920 f   libucrtd:_test.obj
 0001:000a5960       __ld_int                   004a6960 f   libucrtd:_test.obj
 0001:000a5980       __ldtest                   004a6980 f   libucrtd:_test.obj
 0001:000a5ac0       _fegetexceptflag           004a6ac0 f   libucrtd:fegetexceptflag.obj
 0001:000a5b20       _fesetexceptflag           004a6b20 f   libucrtd:fesetexceptflag.obj
 0001:000a5bc0       _fetestexcept              004a6bc0 f   libucrtd:fetestexcept.obj
 0001:000a5bf0       _UnhandledExceptionFilter@4 004a6bf0 f   kernel32:KERNEL32.dll
 0001:000a5bf6       _SetUnhandledExceptionFilter@4 004a6bf6 f   kernel32:KERNEL32.dll
 0001:000a5bfc       _GetCurrentProcess@0       004a6bfc f   kernel32:KERNEL32.dll
 0001:000a5c02       _TerminateProcess@8        004a6c02 f   kernel32:KERNEL32.dll
 0001:000a5c08       _IsProcessorFeaturePresent@4 004a6c08 f   kernel32:KERNEL32.dll
 0001:000a5c0e       _QueryPerformanceCounter@4 004a6c0e f   kernel32:KERNEL32.dll
 0001:000a5c14       _GetCurrentProcessId@0     004a6c14 f   kernel32:KERNEL32.dll
 0001:000a5c1a       _GetCurrentThreadId@0      004a6c1a f   kernel32:KERNEL32.dll
 0001:000a5c20       _GetSystemTimeAsFileTime@4 004a6c20 f   kernel32:KERNEL32.dll
 0001:000a5c26       _InitializeSListHead@4     004a6c26 f   kernel32:KERNEL32.dll
 0001:000a5c2c       _IsDebuggerPresent@0       004a6c2c f   kernel32:KERNEL32.dll
 0001:000a5c32       _GetStartupInfoW@4         004a6c32 f   kernel32:KERNEL32.dll
 0001:000a5c38       _GetModuleHandleW@4        004a6c38 f   kernel32:KERNEL32.dll
 0001:000a5c3e       _InterlockedPushEntrySList@8 004a6c3e f   kernel32:KERNEL32.dll
 0001:000a5c44       _InterlockedFlushSList@4   004a6c44 f   kernel32:KERNEL32.dll
 0001:000a5c4a       _RtlUnwind@16              004a6c4a f   kernel32:KERNEL32.dll
 0001:000a5c50       _GetLastError@0            004a6c50 f   kernel32:KERNEL32.dll
 0001:000a5c56       _SetLastError@4            004a6c56 f   kernel32:KERNEL32.dll
 0001:000a5c5c       _EnterCriticalSection@4    004a6c5c f   kernel32:KERNEL32.dll
 0001:000a5c62       _LeaveCriticalSection@4    004a6c62 f   kernel32:KERNEL32.dll
 0001:000a5c68       _DeleteCriticalSection@4   004a6c68 f   kernel32:KERNEL32.dll
 0001:000a5c6e       _InitializeCriticalSectionAndSpinCount@8 004a6c6e f   kernel32:KERNEL32.dll
 0001:000a5c74       _TlsAlloc@0                004a6c74 f   kernel32:KERNEL32.dll
 0001:000a5c7a       _TlsGetValue@4             004a6c7a f   kernel32:KERNEL32.dll
 0001:000a5c80       _TlsSetValue@8             004a6c80 f   kernel32:KERNEL32.dll
 0001:000a5c86       _TlsFree@4                 004a6c86 f   kernel32:KERNEL32.dll
 0001:000a5c8c       _FreeLibrary@4             004a6c8c f   kernel32:KERNEL32.dll
 0001:000a5c92       _GetProcAddress@8          004a6c92 f   kernel32:KERNEL32.dll
 0001:000a5c98       _LoadLibraryExW@12         004a6c98 f   kernel32:KERNEL32.dll
 0001:000a5c9e       _ReadFile@20               004a6c9e f   kernel32:KERNEL32.dll
 0001:000a5ca4       _MultiByteToWideChar@24    004a6ca4 f   kernel32:KERNEL32.dll
 0001:000a5caa       _ExitProcess@4             004a6caa f   kernel32:KERNEL32.dll
 0001:000a5cb0       _GetModuleHandleExW@12     004a6cb0 f   kernel32:KERNEL32.dll
 0001:000a5cb6       _RaiseException@16         004a6cb6 f   kernel32:KERNEL32.dll
 0001:000a5cbc       _GetStdHandle@4            004a6cbc f   kernel32:KERNEL32.dll
 0001:000a5cc2       _WriteFile@20              004a6cc2 f   kernel32:KERNEL32.dll
 0001:000a5cc8       _GetModuleFileNameW@12     004a6cc8 f   kernel32:KERNEL32.dll
 0001:000a5cce       _GetModuleFileNameA@12     004a6cce f   kernel32:KERNEL32.dll
 0001:000a5cd4       _WideCharToMultiByte@32    004a6cd4 f   kernel32:KERNEL32.dll
 0001:000a5cda       _GetCommandLineA@0         004a6cda f   kernel32:KERNEL32.dll
 0001:000a5ce0       _GetCommandLineW@0         004a6ce0 f   kernel32:KERNEL32.dll
 0001:000a5ce6       _GetACP@0                  004a6ce6 f   kernel32:KERNEL32.dll
 0001:000a5cec       _HeapAlloc@12              004a6cec f   kernel32:KERNEL32.dll
 0001:000a5cf2       _HeapValidate@12           004a6cf2 f   kernel32:KERNEL32.dll
 0001:000a5cf8       _GetSystemInfo@4           004a6cf8 f   kernel32:KERNEL32.dll
 0001:000a5cfe       _GetDateFormatW@24         004a6cfe f   kernel32:KERNEL32.dll
 0001:000a5d04       _GetTimeFormatW@24         004a6d04 f   kernel32:KERNEL32.dll
 0001:000a5d0a       _CompareStringW@24         004a6d0a f   kernel32:KERNEL32.dll
 0001:000a5d10       _LCMapStringW@24           004a6d10 f   kernel32:KERNEL32.dll
 0001:000a5d16       _GetLocaleInfoW@16         004a6d16 f   kernel32:KERNEL32.dll
 0001:000a5d1c       _IsValidLocale@8           004a6d1c f   kernel32:KERNEL32.dll
 0001:000a5d22       _GetUserDefaultLCID@0      004a6d22 f   kernel32:KERNEL32.dll
 0001:000a5d28       _EnumSystemLocalesW@8      004a6d28 f   kernel32:KERNEL32.dll
 0001:000a5d2e       _GetFileType@4             004a6d2e f   kernel32:KERNEL32.dll
 0001:000a5d34       _CloseHandle@4             004a6d34 f   kernel32:KERNEL32.dll
 0001:000a5d3a       _GetConsoleMode@8          004a6d3a f   kernel32:KERNEL32.dll
 0001:000a5d40       _ReadConsoleW@20           004a6d40 f   kernel32:KERNEL32.dll
 0001:000a5d46       _SetFilePointerEx@20       004a6d46 f   kernel32:KERNEL32.dll
 0001:000a5d4c       _DeleteFileW@4             004a6d4c f   kernel32:KERNEL32.dll
 0001:000a5d52       _MoveFileExW@12            004a6d52 f   kernel32:KERNEL32.dll
 0001:000a5d58       _GetCurrentThread@0        004a6d58 f   kernel32:KERNEL32.dll
 0001:000a5d5e       _FlushFileBuffers@4        004a6d5e f   kernel32:KERNEL32.dll
 0001:000a5d64       _GetConsoleCP@0            004a6d64 f   kernel32:KERNEL32.dll
 0001:000a5d6a       _OutputDebugStringA@4      004a6d6a f   kernel32:KERNEL32.dll
 0001:000a5d70       _OutputDebugStringW@4      004a6d70 f   kernel32:KERNEL32.dll
 0001:000a5d76       _WaitForSingleObjectEx@12  004a6d76 f   kernel32:KERNEL32.dll
 0001:000a5d7c       _CreateThread@24           004a6d7c f   kernel32:KERNEL32.dll
 0001:000a5d82       _FindClose@4               004a6d82 f   kernel32:KERNEL32.dll
 0001:000a5d88       _FindFirstFileExA@24       004a6d88 f   kernel32:KERNEL32.dll
 0001:000a5d8e       _FindFirstFileExW@24       004a6d8e f   kernel32:KERNEL32.dll
 0001:000a5d94       _FindNextFileW@8           004a6d94 f   kernel32:KERNEL32.dll
 0001:000a5d9a       _IsValidCodePage@4         004a6d9a f   kernel32:KERNEL32.dll
 0001:000a5da0       _GetOEMCP@0                004a6da0 f   kernel32:KERNEL32.dll
 0001:000a5da6       _GetCPInfo@8               004a6da6 f   kernel32:KERNEL32.dll
 0001:000a5dac       _GetEnvironmentStringsW@0  004a6dac f   kernel32:KERNEL32.dll
 0001:000a5db2       _FreeEnvironmentStringsW@4 004a6db2 f   kernel32:KERNEL32.dll
 0001:000a5db8       _SetEnvironmentVariableA@8 004a6db8 f   kernel32:KERNEL32.dll
 0001:000a5dbe       _SetEnvironmentVariableW@8 004a6dbe f   kernel32:KERNEL32.dll
 0001:000a5dc4       _SetStdHandle@8            004a6dc4 f   kernel32:KERNEL32.dll
 0001:000a5dca       _GetStringTypeW@16         004a6dca f   kernel32:KERNEL32.dll
 0001:000a5dd0       _GetProcessHeap@0          004a6dd0 f   kernel32:KERNEL32.dll
 0001:000a5dd6       _SetConsoleCtrlHandler@8   004a6dd6 f   kernel32:KERNEL32.dll
 0001:000a5ddc       _HeapFree@12               004a6ddc f   kernel32:KERNEL32.dll
 0001:000a5de2       _HeapReAlloc@16            004a6de2 f   kernel32:KERNEL32.dll
 0001:000a5de8       _HeapSize@12               004a6de8 f   kernel32:KERNEL32.dll
 0001:000a5dee       _HeapQueryInformation@20   004a6dee f   kernel32:KERNEL32.dll
 0001:000a5df4       _WriteConsoleW@20          004a6df4 f   kernel32:KERNEL32.dll
 0001:000a5dfa       _CreateFileW@28            004a6dfa f   kernel32:KERNEL32.dll
 0001:000a5e00       _GetTimeZoneInformation@4  004a6e00 f   kernel32:KERNEL32.dll
 0001:000a5e06       _SetEndOfFile@4            004a6e06 f   kernel32:KERNEL32.dll
 0001:000a5e0c       _EncodePointer@4           004a6e0c f   kernel32:KERNEL32.dll
 0001:000a5e12       _DecodePointer@4           004a6e12 f   kernel32:KERNEL32.dll
 0001:000a5e20       __FindPESection            004a6e20 f   LIBCMTD:pesect.obj
 0001:000a5eb0       __IsNonwritableInCurrentImage 004a6eb0 f   LIBCMTD:pesect.obj
 0001:000a6030       __ValidateImageBase        004a7030 f   LIBCMTD:pesect.obj
 0001:000a60b0       __allshl                   004a70b0 f   LIBCMTD:llshl.obj
 0001:000a60e0       __aulldiv                  004a70e0 f   LIBCMTD:ulldiv.obj
 0001:000a6170       __aullrem                  004a7170 f   LIBCMTD:ullrem.obj
 0001:000a6210       ??1type_info@@UAE@XZ       004a7210 f   LIBCMTD:std_type_info_static.obj
 0001:000a6230       ??_Gtype_info@@UAEPAXI@Z   004a7230 f i LIBCMTD:std_type_info_static.obj
 0001:000a6230       ??_Etype_info@@UAEPAXI@Z   004a7230 f i LIBCMTD:std_type_info_static.obj
 0001:000a6270       __alldiv                   004a7270 f   LIBCMTD:lldiv.obj
 0001:000a6350       __alloca_probe             004a7350 f   LIBCMTD:chkstk.obj
 0001:000a6350       __chkstk                   004a7350 f   LIBCMTD:chkstk.obj
 0001:000a6390       __allmul                   004a7390 f   LIBCMTD:llmul.obj
 0001:000a63e0       __allrem                   004a73e0 f   LIBCMTD:llrem.obj
 0001:000a64c0       __aullshr                  004a74c0 f   LIBCMTD:ullshr.obj
 0001:000a64f0       __ftol2_sse                004a74f0 f   LIBCMTD:_ftol2_.obj
 0001:000a64f9       __ftol2_pentium4           004a74f9 f   LIBCMTD:_ftol2_.obj
 0001:000a650c       __ftol2_sse_excpt          004a750c f   LIBCMTD:_ftol2_.obj
 0001:000a6530       __ftol2                    004a7530 f   LIBCMTD:_ftol2_.obj
 0001:000a65e0       __SEH_prolog4              004a75e0 f   LIBCMTD:_sehprolg4_.obj
 0001:000a6626       __SEH_epilog4              004a7626 f   LIBCMTD:_sehprolg4_.obj
 0001:000a6660       ??3@YAXPAXI@Z              004a7660 f   LIBCMTD:delete_scalar_size.obj
 0001:000a6680       ??3@YAXPAX@Z               004a7680 f   LIBCMTD:delete_scalar.obj
 0001:000a68b0       _memcmp                    004a78b0 f   libvcruntimed:_memcmp_.obj
 0001:000a73b0       _memmove                   004a83b0 f   libvcruntimed:memmove.obj
 0001:000a7a90       _strrchr                   004a8a90 f   libvcruntimed:strrchr.obj
 0001:000a7c20       ?_CallCatchBlock2@@YAPAXPAUEHRegistrationNode@@PBU_s_FuncInfo@@PAXHK@Z 004a8c20 f   libvcruntimed:trnsctrl.obj
 0001:000a7cb0       ?_CallSETranslator@@YAHPAUEHExceptionRecord@@PAUEHRegistrationNode@@PAX2PBU_s_FuncInfo@@H1@Z 004a8cb0 f   libvcruntimed:trnsctrl.obj
 0001:000a7de0       ?_GetRangeOfTrysToCheck@@YAPBU_s_TryBlockMapEntry@@PBU_s_FuncInfo@@HHPAI1@Z 004a8de0 f   libvcruntimed:trnsctrl.obj
 0001:000a7ee0       ?_JumpToContinuation@@YGXPAXPAUEHRegistrationNode@@@Z 004a8ee0 f   libvcruntimed:trnsctrl.obj
 0001:000a7f20       ?_UnwindNestedFrames@@YGXPAUEHRegistrationNode@@PAUEHExceptionRecord@@@Z 004a8f20 f   libvcruntimed:trnsctrl.obj
 0001:000a7f90       __CatchGuardHandler        004a8f90 f   libvcruntimed:trnsctrl.obj
 0001:000a7ff0       __CreateFrameInfo          004a8ff0 f   libvcruntimed:trnsctrl.obj
 0001:000a8030       __FindAndUnlinkFrame       004a9030 f   libvcruntimed:trnsctrl.obj
 0001:000a80c0       __TranslatorGuardHandler   004a90c0 f   libvcruntimed:trnsctrl.obj
 0001:000a81a0       ___CxxFrameHandler         004a91a0 f   libvcruntimed:trnsctrl.obj
 0001:000a81f0       ___CxxFrameHandler2        004a91f0 f   libvcruntimed:trnsctrl.obj
 0001:000a8240       ___CxxFrameHandler3        004a9240 f   libvcruntimed:trnsctrl.obj
 0001:000a8290       ___CxxLongjmpUnwind@4      004a9290 f   libvcruntimed:trnsctrl.obj
 0001:000a82e0       _strchr                    004a92e0 f   libvcruntimed:strchr.obj
 0001:000a834e       ___from_strstr_to_strchr   004a934e     libvcruntimed:strchr.obj
 0001:000a8460       _wcschr                    004a9460 f   libvcruntimed:wcschr.obj
 0001:000a8620       __CallSettingFrame@12      004a9620 f   libvcruntimed:lowhelpr.obj
 0001:000a8647       __NLG_Return               004a9647     libvcruntimed:lowhelpr.obj
 0001:000a8680       ??0bad_exception@std@@QAE@ABV01@@Z 004a9680 f i libvcruntimed:frame.obj
 0001:000a86b0       ??0bad_exception@std@@QAE@XZ 004a96b0 f i libvcruntimed:frame.obj
 0001:000a86e0       ??0exception@std@@QAE@ABV01@@Z 004a96e0 f i libvcruntimed:frame.obj
 0001:000a8730       ??0exception@std@@QAE@QBDH@Z 004a9730 f i libvcruntimed:frame.obj
 0001:000a8770       ??1bad_exception@std@@UAE@XZ 004a9770 f i libvcruntimed:frame.obj
 0001:000a8790       ??1exception@std@@UAE@XZ   004a9790 f i libvcruntimed:frame.obj
 0001:000a87c0       ??8type_info@@QBE_NABV0@@Z 004a97c0 f i libvcruntimed:frame.obj
 0001:000a8810       ??_Ebad_exception@std@@UAEPAXI@Z 004a9810 f i libvcruntimed:frame.obj
 0001:000a8810       ??_Gbad_exception@std@@UAEPAXI@Z 004a9810 f i libvcruntimed:frame.obj
 0001:000a8850       ??_Eexception@std@@UAEPAXI@Z 004a9850 f i libvcruntimed:frame.obj
 0001:000a8850       ??_Gexception@std@@UAEPAXI@Z 004a9850 f i libvcruntimed:frame.obj
 0001:000a9720       ?_CallMemberFunction1@@YGXQAX00@Z 004aa720 f i libvcruntimed:frame.obj
 0001:000a9740       ?_CallMemberFunction2@@YGXQAX00H@Z 004aa740 f i libvcruntimed:frame.obj
 0001:000a9770       ?_ValidateExecute@@YA_NP6GHXZ@Z 004aa770 f i libvcruntimed:frame.obj
 0001:000a9790       ?_ValidateRead@@YA_NPBXI@Z 004aa790 f i libvcruntimed:frame.obj
 0001:000a97b0       ?_ValidateWrite@@YA_NPAXI@Z 004aa7b0 f i libvcruntimed:frame.obj
 0001:000a97d0       ?what@exception@std@@UBEPBDXZ 004aa7d0 f i libvcruntimed:frame.obj
 0001:000a9810       ___BuildCatchObject        004aa810 f   libvcruntimed:frame.obj
 0001:000a9960       ___BuildCatchObjectHelper  004aa960 f   libvcruntimed:frame.obj
 0001:000a9d50       ___FrameUnwindToState      004aad50 f   libvcruntimed:frame.obj
 0001:000a9f30       ___InternalCxxFrameHandler 004aaf30 f   libvcruntimed:frame.obj
 0001:000aa140       ___TypeMatch               004ab140 f   libvcruntimed:frame.obj
 0001:000aa250       ___vcrt_EncodePointer      004ab250 f i libvcruntimed:frame.obj
 0001:000aa2a0       __get_unexpected           004ab2a0 f   libvcruntimed:unexpected.obj
 0001:000aa2c0       _set_unexpected            004ab2c0 f   libvcruntimed:unexpected.obj
 0001:000aa300       _unexpected                004ab300 f   libvcruntimed:unexpected.obj
 0001:000aa340       ___DestructExceptionObject 004ab340 f   libvcruntimed:ehhelpers.obj
 0001:000aa4c0       ?_CallMemberFunction0@@YGXQAX0@Z 004ab4c0 f i libvcruntimed:ehhelpers.obj
 0001:000aa4e0       ?raw_name@type_info@@QBEPBDXZ 004ab4e0 f i libvcruntimed:ehhelpers.obj
 0001:000aa500       __IsExceptionObjectToBeDestroyed 004ab500 f   libvcruntimed:ehhelpers.obj
 0001:000aa550       __SetWinRTOutOfMemoryExceptionCallback 004ab550 f   libvcruntimed:ehhelpers.obj
 0001:000aa560       ___AdjustPointer           004ab560 f   libvcruntimed:ehhelpers.obj
 0001:000aa5c0       ___FrameUnwindFilter       004ab5c0 f   libvcruntimed:ehhelpers.obj
 0001:000aa650       ___GetPlatformExceptionInfo 004ab650 f   libvcruntimed:ehhelpers.obj
 0001:000aa6f0       ___current_exception       004ab6f0 f   libvcruntimed:ehhelpers.obj
 0001:000aa700       ___current_exception_context 004ab700 f   libvcruntimed:ehhelpers.obj
 0001:000aa710       ___processing_throw        004ab710 f   libvcruntimed:ehhelpers.obj
 0001:000aa720       ___std_terminate           004ab720 f   libvcruntimed:ehhelpers.obj
 0001:000aa730       ___uncaught_exception      004ab730 f   libvcruntimed:ehhelpers.obj
 0001:000aa760       ___uncaught_exceptions     004ab760 f   libvcruntimed:ehhelpers.obj
 0001:000aa7a0       __is_exception_typeof      004ab7a0 f   libvcruntimed:ehhelpers.obj
 0001:000aa8b0       ??$?RD@__crt_public_free_policy@@QBEXQBD@Z 004ab8b0 f i libvcruntimed:std_exception.obj
 0001:000aa8d0       ??0?$__crt_unique_heap_ptr@DU__crt_public_free_policy@@@@QAE@QAD@Z 004ab8d0 f i libvcruntimed:std_exception.obj
 0001:000aa8f0       ??1?$__crt_unique_heap_ptr@DU__crt_public_free_policy@@@@QAE@XZ 004ab8f0 f i libvcruntimed:std_exception.obj
 0001:000aa910       ??B?$__crt_unique_heap_ptr@DU__crt_public_free_policy@@@@QBE_NXZ 004ab910 f i libvcruntimed:std_exception.obj
 0001:000aa930       ?detach@?$__crt_unique_heap_ptr@DU__crt_public_free_policy@@@@QAEPADXZ 004ab930 f i libvcruntimed:std_exception.obj
 0001:000aa960       ?get@?$__crt_unique_heap_ptr@DU__crt_public_free_policy@@@@QBEPADXZ 004ab960 f i libvcruntimed:std_exception.obj
 0001:000aa980       ?is_valid@?$__crt_unique_heap_ptr@DU__crt_public_free_policy@@@@QBE_NXZ 004ab980 f i libvcruntimed:std_exception.obj
 0001:000aa9c0       ?release@?$__crt_unique_heap_ptr@DU__crt_public_free_policy@@@@QAEXXZ 004ab9c0 f i libvcruntimed:std_exception.obj
 0001:000aa9f0       ___std_exception_copy      004ab9f0 f   libvcruntimed:std_exception.obj
 0001:000aab10       ___std_exception_destroy   004abb10 f   libvcruntimed:std_exception.obj
 0001:000aab50       __CxxThrowException@8      004abb50 f   libvcruntimed:throw.obj
 0002:00000000       ___xc_a                    004b2000     LIBCMTD:initializers.obj
 0002:00000208       ___xc_z                    004b2208     LIBCMTD:initializers.obj
 0002:0000030c       ___xi_a                    004b230c     LIBCMTD:initializers.obj
 0002:00000618       ___acrt_stdio_initializer  004b2618     libucrtd:stdio_initializer.obj
 0002:0000061c       ___acrt_multibyte_initializer 004b261c     libucrtd:multibyte_initializer.obj
 0002:00000620       ___acrt_timeset_initializer 004b2620     libucrtd:timeset_initializer.obj
 0002:00000624       ___acrt_tran_sse2_initializer 004b2624     libucrtd:sse2_initializer.obj
 0002:0000072c       ___xi_z                    004b272c     LIBCMTD:initializers.obj
 0002:00000830       ___xp_a                    004b2830     LIBCMTD:initializers.obj
 0002:00000934       ___acrt_locale_terminator  004b2934     libucrtd:locale_initializer.obj
 0002:00000938       ___dcrt_console_output_terminator 004b2938     libucrtd:console_output_initializer.obj
 0002:00000a40       ___acrt_stdio_terminator   004b2a40     libucrtd:stdio_initializer.obj
 0002:00000b44       ___xp_z                    004b2b44     LIBCMTD:initializers.obj
 0002:00000c48       ___xt_a                    004b2c48     LIBCMTD:initializers.obj
 0002:00000d4c       ___xt_z                    004b2d4c     LIBCMTD:initializers.obj
 0002:00000e50       ??_C@_09CAGALGBH@g_funcs?4h?$AA@ 004b2e50     extractfuncs.obj
 0002:00000e5c       ??_C@_0O@JIFNGALB@g_func_decs?4h?$AA@ 004b2e5c     extractfuncs.obj
 0002:00000e6c       ??_C@_01LFCBOECM@?4?$AA@   004b2e6c     extractfuncs.obj
 0002:00000e70       ??_C@_01KICIPPFI@?2?$AA@   004b2e70     extractfuncs.obj
 0002:00000e74       ??_C@_0M@FCHOHLON@g_funcs?4tmp?$AA@ 004b2e74     extractfuncs.obj
 0002:00000e84       ??_C@_0BF@LKJHJGEN@?$HL?$CC?$CFs?$CC?0?5?$CIbyte?5?$CK?$CJ?$CFs?$HN?0?6?$AA@ 004b2e84     extractfuncs.obj
 0002:00000ea0       ??_C@_07CEMGAJGD@?$HL0?0?50?$HN?6?$AA@ 004b2ea0     extractfuncs.obj
 0002:00000eac       ??_C@_02JDPG@rb?$AA@       004b2eac     extractfuncs.obj
 0002:00000eb0       ??_C@_0BB@EBILFMCD@debug?2g_save?4obj?$AA@ 004b2eb0     extractfuncs.obj
 0002:00000ec4       ??_C@_0BB@NJFPCMFN@debug?2g_save?4sbr?$AA@ 004b2ec4     extractfuncs.obj
 0002:00000ed8       ??_C@_0BD@DCNELBJL@release?2g_save?4obj?$AA@ 004b2ed8     extractfuncs.obj
 0002:00000ef0       ??_C@_0BD@KKAAMBOF@release?2g_save?4sbr?$AA@ 004b2ef0     extractfuncs.obj
 0002:00000f08       ??_C@_0BA@MFJDKPFO@g_func_decs?4tmp?$AA@ 004b2f08     extractfuncs.obj
 0002:00000f1c       ??_C@_0M@JEGJJKJ@extern?5?$CFs?$DL?6?$AA@ 004b2f1c     extractfuncs.obj
 0002:00000f2c       ??_C@_0DB@CLKPMKME@Updated?5the?5function?5table?0?5reco@ 004b2f2c     extractfuncs.obj
 0002:00000f68       ??_C@_09BGDGKKKF@GetBotAPI?$AA@ 004b2f68     extractfuncs.obj
 0002:00000f74       ??_C@_04GHJNJNPO@main?$AA@ 004b2f74     extractfuncs.obj
 0002:00000f7c       ??_C@_07HGGPAHEN@WinMain?$AA@ 004b2f7c     extractfuncs.obj
 0002:00000f88       ??_C@_01CLKCMJKC@?5?$AA@   004b2f88     extractfuncs.obj
 0002:00000f8c       ??_C@_04JKNALMKK@qmax?$AA@ 004b2f8c     extractfuncs.obj
 0002:00000f94       ??_C@_04IIFLFIMF@qmin?$AA@ 004b2f94     extractfuncs.obj
 0002:00000f9c       ??_C@_03FPNDANKK@F?$CFd?$AA@ 004b2f9c     extractfuncs.obj
 0002:00000fa0       ??_C@_08GCOIMEJE@bg_lib?4c?$AA@ 004b2fa0     extractfuncs.obj
 0002:00000fac       ??_C@_0BB@CEADDNCK@error?5opening?5?$CFs?$AA@ 004b2fac     extractfuncs.obj
 0002:00000fc0       ??_C@_06GGHJAEBN@static?$AA@ 004b2fc0     extractfuncs.obj
 0002:00000fc8       ??_C@_0BF@DEOAGBJE@screwing?5up?5file?5?$CFs?6?$AA@ 004b2fc8     extractfuncs.obj
 0002:00000fe4       ??_C@_0BC@CBHACCGB@error?5opening?5?$CFs?6?$AA@ 004b2fe4     extractfuncs.obj
 0002:00000ffc       ??_C@_02GMLFBBN@wb?$AA@    004b2ffc     extractfuncs.obj
 0002:00001000       ??_C@_0BO@FAHNIHBH@USAGE?3?5screwup?5?$DMfile?5filter?$DO?6?$AA@ 004b3000     extractfuncs.obj
 0002:00001024       ??_C@_0BE@DPLJFOML@openlog?5?$DMfilename?$DO?6?$AA@ 004b3024     l_log.obj
 0002:0000103c       ??_C@_0BP@DENECPGL@log?5file?5?$CFs?5is?5already?5opened?6?$AA@ 004b303c     l_log.obj
 0002:00001064       ??_C@_0BM@MCGFOLNG@can?8t?5open?5the?5log?5file?5?$CFs?6?$AA@ 004b3064     l_log.obj
 0002:00001088       ??_C@_0BG@EDNKAKOJ@no?5log?5file?5to?5close?6?$AA@ 004b3088     l_log.obj
 0002:000010a4       ??_C@_0BJ@GMGFLNFJ@can?8t?5close?5log?5file?5?$CFs?6?$AA@ 004b30a4     l_log.obj
 0002:000010c4       ??_C@_02HEBPBKGD@if?$AA@   004b30c4     l_precomp.obj
 0002:000010c8       ??_C@_05LOELCHJN@ifdef?$AA@ 004b30c8     l_precomp.obj
 0002:000010d0       ??_C@_06ENONKJGC@ifndef?$AA@ 004b30d0     l_precomp.obj
 0002:000010d8       ??_C@_04GNFOIEOK@elif?$AA@ 004b30d8     l_precomp.obj
 0002:000010e0       ??_C@_04FHMCPBIP@else?$AA@ 004b30e0     l_precomp.obj
 0002:000010e8       ??_C@_05PAODFFED@endif?$AA@ 004b30e8     l_precomp.obj
 0002:000010f0       ??_C@_07FHOHOHLG@include?$AA@ 004b30f0     l_precomp.obj
 0002:000010fc       ??_C@_06EPMMJFDC@define?$AA@ 004b30fc     l_precomp.obj
 0002:00001104       ??_C@_05PKCPKOLM@undef?$AA@ 004b3104     l_precomp.obj
 0002:0000110c       ??_C@_04HJPCFDOP@line?$AA@ 004b310c     l_precomp.obj
 0002:00001114       ??_C@_05KKCIMGE@error?$AA@ 004b3114     l_precomp.obj
 0002:0000111c       ??_C@_06PGFLMPLC@pragma?$AA@ 004b311c     l_precomp.obj
 0002:00001124       ??_C@_04KGAGIKCD@eval?$AA@ 004b3124     l_precomp.obj
 0002:0000112c       ??_C@_09BLDJOION@evalfloat?$AA@ 004b312c     l_precomp.obj
 0002:00001138       ??_C@_07FNDAMPLK@evalint?$AA@ 004b3138     l_precomp.obj
 0002:00001144       ??_C@_0BF@BJHHBLMD@Q_strncpyz?3?5NULL?5src?$AA@ 004b3144     l_precomp.obj
 0002:00001160       ??_C@_0BJ@OLBOPICM@Q_strncpyz?3?5destsize?5?$DM?51?$AA@ 004b3160     l_precomp.obj
 0002:00001180       ??_C@_0BI@DBGANKKJ@?$CFs?5recursively?5included?$AA@ 004b3180     l_precomp.obj
 0002:0000119c       ??_C@_0BE@PFGKJJGH@out?5of?5token?5space?6?$AA@ 004b319c     l_precomp.obj
 0002:000011b4       ??_C@_0P@IFDFMCIL@missing?5?$CDendif?$AA@ 004b31b4     l_precomp.obj
 0002:000011c8       ??_C@_0BI@CAHOPMH@define?5?$CFs?5missing?5parms?$AA@ 004b31c8     l_precomp.obj
 0002:000011e4       ??_C@_0CE@LBMAFIHE@define?5with?5more?5than?5?$CFd?5paramet@ 004b31e4     l_precomp.obj
 0002:00001210       ??_C@_01ODHLEDKK@?$CI?$AA@ 004b3210     l_precomp.obj
 0002:00001214       ??_C@_0BO@CIDPMME@define?5?$CFs?5with?5too?5many?5parms?$AA@ 004b3214     l_precomp.obj
 0002:00001238       ??_C@_0BN@LKHLCMOF@define?5?$CFs?5has?5too?5many?5parms?$AA@ 004b3238     l_precomp.obj
 0002:0000125c       ??_C@_0BF@PPHAFKBJ@define?5?$CFs?5incomplete?$AA@ 004b325c     l_precomp.obj
 0002:00001278       ??_C@_01IHBHIGKO@?0?$AA@   004b3278     l_precomp.obj
 0002:0000127c       ??_C@_0BB@HBCKCGHH@too?5many?5comma?8s?$AA@ 004b327c     l_precomp.obj
 0002:00001290       ??_C@_01PKGAHCOL@?$CJ?$AA@ 004b3290     l_precomp.obj
 0002:00001294       ??_C@_0BF@GHJFDBAE@too?5few?5define?5parms?$AA@ 004b3294     l_precomp.obj
 0002:000012b0       ??_C@_01BJJEKLCA@?$CC?$AA@ 004b32b0     l_precomp.obj
 0002:000012b4       ??_C@_04CFMCHKOF@?$CF4d?3?$AA@ 004b32b4     l_precomp.obj
 0002:000012bc       ??_C@_03EEBNCBOD@?5?$CFs?$AA@ 004b32bc     l_precomp.obj
 0002:000012c0       ??_C@_01EEMJAFIK@?6?$AA@   004b32c0     l_precomp.obj
 0002:000012c4       ??_C@_08ICCNKGAE@__LINE__?$AA@ 004b32c4     l_precomp.obj
 0002:000012d0       ??_C@_08FMJNKKCK@__FILE__?$AA@ 004b32d0     l_precomp.obj
 0002:000012dc       ??_C@_08HHMBOFCN@__DATE__?$AA@ 004b32dc     l_precomp.obj
 0002:000012e8       ??_C@_08JBLMAOHN@__TIME__?$AA@ 004b32e8     l_precomp.obj
 0002:000012f4       ??_C@_02DPKJAMEF@?$CFd?$AA@ 004b32f4     l_precomp.obj
 0002:000012f8       ??_C@_0BH@FGJBFJMP@can?8t?5stringize?5tokens?$AA@ 004b32f8     l_precomp.obj
 0002:00001314       ??_C@_0CO@FIAHGJJO@stringizing?5operator?5without?5def@ 004b3314     l_precomp.obj
 0002:0000134c       ??_C@_0BH@DDBOIAKK@can?8t?5merge?5?$CFs?5with?5?$CFs?$AA@ 004b334c     l_precomp.obj
 0002:00001368       ??_C@_0BL@MDEODINB@?$CDinclude?5without?5file?5name?$AA@ 004b3368     l_precomp.obj
 0002:00001388       ??_C@_0BM@MKHAAFFA@?$CDinclude?5missing?5trailing?5?$DO?$AA@ 004b3388     l_precomp.obj
 0002:000013ac       ??_C@_0CH@BILCEFJF@?$CDinclude?5without?5file?5name?5betwe@ 004b33ac     l_precomp.obj
 0002:000013dc       ??_C@_0BC@ELACKGMC@file?5?$CFs?5not?5found?$AA@ 004b33dc     l_precomp.obj
 0002:000013f4       ??_C@_0BD@IELPOLI@undef?5without?5name?$AA@ 004b33f4     l_precomp.obj
 0002:0000140c       ??_C@_0BI@LCFFDKMI@expected?5name?0?5found?5?$CFs?$AA@ 004b340c     l_precomp.obj
 0002:00001428       ??_C@_0P@CHOGDKAE@can?8t?5undef?5?$CFs?$AA@ 004b3428     l_precomp.obj
 0002:0000143c       ??_C@_0BF@EDHDDJPD@?$CDdefine?5without?5name?$AA@ 004b343c     l_precomp.obj
 0002:00001458       ??_C@_0CG@PGNFJILG@expected?5name?5after?5?$CDdefine?0?5fou@ 004b3458     l_precomp.obj
 0002:00001488       ??_C@_0BC@PNHKPGCD@can?8t?5redefine?5?$CFs?$AA@ 004b3488     l_precomp.obj
 0002:000014a0       ??_C@_0BD@PFJBIMHG@redefinition?5of?5?$CFs?$AA@ 004b34a0     l_precomp.obj
 0002:000014b8       ??_C@_0BK@OHINAMCG@expected?5define?5parameter?$AA@ 004b34b8     l_precomp.obj
 0002:000014d8       ??_C@_0BJ@CDAIKNHD@invalid?5define?5parameter?$AA@ 004b34d8     l_precomp.obj
 0002:000014f8       ??_C@_0BP@HPJAJOKD@two?5the?5same?5define?5parameters?$AA@ 004b34f8     l_precomp.obj
 0002:00001520       ??_C@_0CB@JHGJFPBB@define?5parameters?5not?5terminated@ 004b3520     l_precomp.obj
 0002:00001548       ??_C@_0BG@PHCEBIF@define?5not?5terminated?$AA@ 004b3548     l_precomp.obj
 0002:00001564       ??_C@_0CF@FNOAJAKF@recursive?5define?5?$CIremoved?5recurs@ 004b3564     l_precomp.obj
 0002:00001590       ??_C@_02IEBMKJDF@?$CD?$CD?$AA@ 004b3590     l_precomp.obj
 0002:00001594       ??_C@_0BJ@FCHLMCOB@define?5with?5misplaced?5?$CD?$CD?$AA@ 004b3594     l_precomp.obj
 0002:000015b4       ??_C@_07GADFAJMP@?$CKextern?$AA@ 004b35b4     l_precomp.obj
 0002:000015c0       ??_C@_0BE@IMBJDEPK@?$CDifdef?5without?5name?$AA@ 004b35c0     l_precomp.obj
 0002:000015d8       ??_C@_0CF@NLPAJGLD@expected?5name?5after?5?$CDifdef?0?5foun@ 004b35d8     l_precomp.obj
 0002:00001604       ??_C@_0BA@NPOEMJCD@misplaced?5?$CDelse?$AA@ 004b3604     l_precomp.obj
 0002:00001618       ??_C@_0BC@LGACBGNI@?$CDelse?5after?5?$CDelse?$AA@ 004b3618     l_precomp.obj
 0002:00001630       ??_C@_0BB@CPALJMLI@misplaced?5?$CDendif?$AA@ 004b3630     l_precomp.obj
 0002:00001644       ??_C@_0BK@PKFCEECE@syntax?5error?5in?5?$CDif?1?$CDelif?$AA@ 004b3644     l_precomp.obj
 0002:00001664       ??_C@_07MJAJDDLG@defined?$AA@ 004b3664     l_precomp.obj
 0002:00001670       ??_C@_0BP@FCIAONAD@undefined?5name?5?$CFs?5in?5?$CDif?1?$CDelif?$AA@ 004b3670     l_precomp.obj
 0002:00001698       ??_C@_0CC@OHHFNCNF@defined?5without?5name?5in?5?$CDif?1?$CDeli@ 004b3698     l_precomp.obj
 0002:000016c0       ??_C@_0BB@IEFGIMAH@out?5value?5space?6?$AA@ 004b36c0     l_precomp.obj
 0002:000016d4       ??_C@_0BP@FNAPCIDI@defined?5without?5?$CJ?5in?5?$CDif?1?$CDelif?$AA@ 004b36d4     l_precomp.obj
 0002:000016fc       ??_C@_0CC@DNHHPAPI@misplaced?5minus?5sign?5in?5?$CDif?1?$CDeli@ 004b36fc     l_precomp.obj
 0002:00001724       ??_C@_0BJ@FLJMGJFD@too?5many?5?$CJ?5in?5?$CDif?1?$CDelsif?$AA@ 004b3724     l_precomp.obj
 0002:00001744       ??_C@_0DA@OGPMIBNF@illigal?5operator?5?$CFs?5on?5floating?5@ 004b3744     l_precomp.obj
 0002:00001780       ??_C@_0CA@FEDLLKBK@?$CB?5or?5?$HO?5after?5value?5in?5?$CDif?1?$CDelif?$AA@ 004b3780     l_precomp.obj
 0002:000017a8       ??_C@_0CI@GGOHGOKI@operator?5?$CFs?5after?5operator?5in?5?$CDi@ 004b37a8     l_precomp.obj
 0002:000017d8       ??_C@_0CB@PFAFLJI@invalid?5operator?5?$CFs?5in?5?$CDif?1?$CDelif@ 004b37d8     l_precomp.obj
 0002:00001800       ??_C@_0BE@HPOEFGCE@out?5operator?5space?6?$AA@ 004b3800     l_precomp.obj
 0002:00001818       ??_C@_0BI@ONNIJHPK@unknown?5?$CFs?5in?5?$CDif?1?$CDelif?$AA@ 004b3818     l_precomp.obj
 0002:00001834       ??_C@_0BP@NIBGGAAE@trailing?5operator?5in?5?$CDif?1?$CDelif?$AA@ 004b3834     l_precomp.obj
 0002:0000185c       ??_C@_0BI@MJMEGLFD@too?5many?5?$CI?5in?5?$CDif?1?$CDelif?$AA@ 004b385c     l_precomp.obj
 0002:00001878       ??_C@_0BL@BNPPJONA@mising?5values?5in?5?$CDif?1?$CDelif?$AA@ 004b3878     l_precomp.obj
 0002:00001898       ??_C@_0BJ@JILHHGIH@?3?5without?5?$DP?5in?5?$CDif?1?$CDelif?$AA@ 004b3898     l_precomp.obj
 0002:000018b8       ??_C@_0BH@CHBBNAOH@?$DP?5after?5?$DP?5in?5?$CDif?1?$CDelif?$AA@ 004b38b8     l_precomp.obj
 0002:000018d4       ??_C@_0BJ@GGKGDEMC@no?5value?5after?5?$CDif?1?$CDelif?$AA@ 004b38d4     l_precomp.obj
 0002:000018f4       ??_C@_0BP@GDBMMIIP@can?8t?5evaluate?5?$CFs?0?5not?5defined?$AA@ 004b38f4     l_precomp.obj
 0002:0000191c       ??_C@_0BC@JLPCHENH@can?8t?5evaluate?5?$CFs?$AA@ 004b391c     l_precomp.obj
 0002:00001934       ??_C@_0CH@DDGJDDBD@no?5leading?5?$CI?5after?5$evalint?1$eva@ 004b3934     l_precomp.obj
 0002:00001964       ??_C@_0BE@NEDCJHGJ@nothing?5to?5evaluate?$AA@ 004b3964     l_precomp.obj
 0002:0000197c       ??_C@_0BA@OFHILMEG@misplaced?5?$CDelif?$AA@ 004b397c     l_precomp.obj
 0002:00001990       ??_C@_0BO@PLIOJNDH@?$CDline?5directive?5not?5supported?$AA@ 004b3990     l_precomp.obj
 0002:000019b4       ??_C@_00CNPNBAHC@?$AA@     004b39b4     l_precomp.obj
 0002:000019b8       ??_C@_0BF@PIGJJAAO@?$CDerror?5directive?3?5?$CFs?$AA@ 004b39b8     l_precomp.obj
 0002:000019d4       ??_C@_0CA@KICMIAFO@?$CDpragma?5directive?5not?5supported?$AA@ 004b39d4     l_precomp.obj
 0002:000019fc       ??_C@_01JOAMLHOP@?9?$AA@   004b39fc     l_precomp.obj
 0002:00001a00       ??_C@_05NBLIHODN@?$CF1?42f?$AA@ 004b3a00     l_precomp.obj
 0002:00001a08       ??_C@_0BF@PIJDPBJF@found?5?$CD?5without?5name?$AA@ 004b3a08     l_precomp.obj
 0002:00001a24       ??_C@_0BH@CKLPJCIG@found?5?$CD?5at?5end?5of?5line?$AA@ 004b3a24     l_precomp.obj
 0002:00001a40       ??_C@_0CB@OMHFNJIL@unknown?5precompiler?5directive?5?$CFs@ 004b3a40     l_precomp.obj
 0002:00001a68       ??_C@_0BF@GDJCPOIP@found?5$?5without?5name?$AA@ 004b3a68     l_precomp.obj
 0002:00001a84       ??_C@_0BH@KCNOOMN@found?5$?5at?5end?5of?5line?$AA@ 004b3a84     l_precomp.obj
 0002:00001aa0       ??_C@_0BK@JEDPJDDM@couldn?8t?5find?5expected?5?$CFs?$AA@ 004b3aa0     l_precomp.obj
 0002:00001ac0       ??_C@_0BG@PHOMHNKB@expected?5?$CFs?0?5found?5?$CFs?$AA@ 004b3ac0     l_precomp.obj
 0002:00001adc       ??_C@_0BN@ECGBICMG@couldn?8t?5read?5expected?5token?$AA@ 004b3adc     l_precomp.obj
 0002:00001b00       ??_C@_06ICGJLFIM@string?$AA@ 004b3b00     l_precomp.obj
 0002:00001b08       ??_C@_07IDLNMGBF@literal?$AA@ 004b3b08     l_precomp.obj
 0002:00001b14       ??_C@_06EBGNBFIA@number?$AA@ 004b3b14     l_precomp.obj
 0002:00001b1c       ??_C@_04MEMAJGDJ@name?$AA@ 004b3b1c     l_precomp.obj
 0002:00001b24       ??_C@_0M@CCLOEHNM@punctuation?$AA@ 004b3b24     l_precomp.obj
 0002:00001b34       ??_C@_0BI@DOMAOFAI@expected?5a?5?$CFs?0?5found?5?$CFs?$AA@ 004b3b34     l_precomp.obj
 0002:00001b50       ??_C@_07EEKBCPDP@decimal?$AA@ 004b3b50     l_precomp.obj
 0002:00001b5c       ??_C@_03IJNDAFDK@hex?$AA@  004b3b5c     l_precomp.obj
 0002:00001b60       ??_C@_05NANFMDJ@octal?$AA@ 004b3b60     l_precomp.obj
 0002:00001b68       ??_C@_06FNFBAEBE@binary?$AA@ 004b3b68     l_precomp.obj
 0002:00001b70       ??_C@_05BOODDNDJ@?5long?$AA@ 004b3b70     l_precomp.obj
 0002:00001b78       ??_C@_09GBGALIGL@?5unsigned?$AA@ 004b3b78     l_precomp.obj
 0002:00001b84       ??_C@_06EOECJFKG@?5float?$AA@ 004b3b84     l_precomp.obj
 0002:00001b8c       ??_C@_08LLKPIPDF@?5integer?$AA@ 004b3b8c     l_precomp.obj
 0002:00001b98       ??_C@_08EFPOOAED@found?5?$CFs?$AA@ 004b3b98     l_precomp.obj
 0002:00001ba8       __real@0000000000000000    004b3ba8     l_precomp.obj
 0002:00001bb8       __real@3ff0000000000000    004b3bb8     l_precomp.obj
 0002:00001bd0       __xmm@80000000000000008000000000000000 004b3bd0     l_precomp.obj
 0002:00001be4       ??_C@_03IKFCCPFF@?$DO?$DO?$DN?$AA@ 004b3be4     l_script.obj
 0002:00001be8       ??_C@_03CDNPDDLA@?$DM?$DM?$DN?$AA@ 004b3be8     l_script.obj
 0002:00001bec       ??_C@_03KHICJKCI@?4?4?4?$AA@ 004b3bec     l_script.obj
 0002:00001bf0       ??_C@_02PPKAJPJL@?$CG?$CG?$AA@ 004b3bf0     l_script.obj
 0002:00001bf4       ??_C@_02NONPIBCD@?$HM?$HM?$AA@ 004b3bf4     l_script.obj
 0002:00001bf8       ??_C@_02EEKDKGMJ@?$DO?$DN?$AA@ 004b3bf8     l_script.obj
 0002:00001bfc       ??_C@_02EHCHHCKH@?$DM?$DN?$AA@ 004b3bfc     l_script.obj
 0002:00001c00       ??_C@_02EGOFBIJA@?$DN?$DN?$AA@ 004b3c00     l_script.obj
 0002:00001c04       ??_C@_02FDNJECIE@?$CB?$DN?$AA@ 004b3c04     l_script.obj
 0002:00001c08       ??_C@_02FPIMKNGF@?$CK?$DN?$AA@ 004b3c08     l_script.obj
 0002:00001c0c       ??_C@_02FJEHGPIO@?1?$DN?$AA@ 004b3c0c     l_script.obj
 0002:00001c10       ??_C@_02FENAOKFI@?$CF?$DN?$AA@ 004b3c10     l_script.obj
 0002:00001c14       ??_C@_02FOEOMHFC@?$CL?$DN?$AA@ 004b3c14     l_script.obj
 0002:00001c18       ??_C@_02FKMDLLOA@?9?$DN?$AA@ 004b3c18     l_script.obj
 0002:00001c1c       ??_C@_02ECNGHCIF@?$CL?$CL?$AA@ 004b3c1c     l_script.obj
 0002:00001c20       ??_C@_02BAABKJLB@?9?9?$AA@ 004b3c20     l_script.obj
 0002:00001c24       ??_C@_02FGJGFEAB@?$CG?$DN?$AA@ 004b3c24     l_script.obj
 0002:00001c28       ??_C@_02DHLNPPGH@?$HM?$DN?$AA@ 004b3c28     l_script.obj
 0002:00001c2c       ??_C@_02MHEGNOJ@?$FO?$DN?$AA@ 004b3c2c     l_script.obj
 0002:00001c30       ??_C@_02GPIOPFAK@?$DO?$DO?$AA@ 004b3c30     l_script.obj
 0002:00001c34       ??_C@_02FODMEDOG@?$DM?$DM?$AA@ 004b3c34     l_script.obj
 0002:00001c38       ??_C@_02HBOOOICD@?9?$DO?$AA@ 004b3c38     l_script.obj
 0002:00001c3c       ??_C@_02MOLJINC@?3?3?$AA@  004b3c3c     l_script.obj
 0002:00001c40       ??_C@_02FNAGIBCP@?4?$CK?$AA@ 004b3c40     l_script.obj
 0002:00001c44       ??_C@_01NBENCBCI@?$CK?$AA@ 004b3c44     l_script.obj
 0002:00001c48       ??_C@_01KMDKNFGN@?1?$AA@   004b3c48     l_script.obj
 0002:00001c4c       ??_C@_01FGNFDNOH@?$CF?$AA@ 004b3c4c     l_script.obj
 0002:00001c50       ??_C@_01MIFGBAGJ@?$CL?$AA@ 004b3c50     l_script.obj
 0002:00001c54       ??_C@_01NEMOKFLO@?$DN?$AA@ 004b3c54     l_script.obj
 0002:00001c58       ??_C@_01HNPIGOCE@?$CG?$AA@ 004b3c58     l_script.obj
 0002:00001c5c       ??_C@_01DNKMNLPK@?$HM?$AA@ 004b3c5c     l_script.obj
 0002:00001c60       ??_C@_01JKBOJNNK@?$FO?$AA@ 004b3c60     l_script.obj
 0002:00001c64       ??_C@_01PJKLJHI@?$HO?$AA@  004b3c64     l_script.obj
 0002:00001c68       ??_C@_01DCLJPIOD@?$CB?$AA@ 004b3c68     l_script.obj
 0002:00001c6c       ??_C@_01PPODPGHN@?$DO?$AA@ 004b3c6c     l_script.obj
 0002:00001c70       ??_C@_01MNNFJEPP@?$DM?$AA@ 004b3c70     l_script.obj
 0002:00001c74       ??_C@_01ICJEACDI@?$DL?$AA@ 004b3c74     l_script.obj
 0002:00001c78       ??_C@_01JLIPDDHJ@?3?$AA@   004b3c78     l_script.obj
 0002:00001c7c       ??_C@_01OGPIMHDM@?$DP?$AA@ 004b3c7c     l_script.obj
 0002:00001c80       ??_C@_01HCONENDN@?$HL?$AA@ 004b3c80     l_script.obj
 0002:00001c84       ??_C@_01CELHOKLL@?$HN?$AA@ 004b3c84     l_script.obj
 0002:00001c88       ??_C@_01OHGJGJJP@?$FL?$AA@ 004b3c88     l_script.obj
 0002:00001c8c       ??_C@_01LBDDMOBJ@?$FN?$AA@ 004b3c8c     l_script.obj
 0002:00001c90       ??_C@_01IPJKGB@?$CD?$AA@   004b3c90     l_script.obj
 0002:00001c94       ??_C@_01EPMOAMKG@$?$AA@    004b3c94     l_script.obj
 0002:00001c98       ??_C@_0BD@CDGAFDMK@unkown?5punctuation?$AA@ 004b3c98     l_script.obj
 0002:00001cb0       ??_C@_0CE@DDEEFDJP@too?5large?5value?5in?5escape?5charac@ 004b3cb0     l_script.obj
 0002:00001cdc       ??_C@_0BE@LNBHEDIG@unknown?5escape?5char?$AA@ 004b3cdc     l_script.obj
 0002:00001cf4       ??_C@_0CC@MBLDNBAM@string?5longer?5than?5MAX_TOKEN?5?$DN?5?$CF@ 004b3cf4     l_script.obj
 0002:00001d1c       ??_C@_0BH@PEPCDKK@missing?5trailing?5quote?$AA@ 004b3d1c     l_script.obj
 0002:00001d38       ??_C@_0BJ@FPJNGGBK@newline?5inside?5string?5?$CFs?$AA@ 004b3d38     l_script.obj
 0002:00001d58       ??_C@_0CA@MNDCIFOG@name?5longer?5than?5MAX_TOKEN?5?$DN?5?$CFd?$AA@ 004b3d58     l_script.obj
 0002:00001d80       ??_C@_0CO@IEAAEMOC@hexadecimal?5number?5longer?5than?5M@ 004b3d80     l_script.obj
 0002:00001db8       ??_C@_0CJ@GOJFKF@binary?5number?5longer?5than?5MAX_TO@ 004b3db8     l_script.obj
 0002:00001dec       ??_C@_0CC@HHKGPIHJ@number?5longer?5than?5MAX_TOKEN?5?$DN?5?$CF@ 004b3dec     l_script.obj
 0002:00001e14       ??_C@_0BO@LNDMFPAB@end?5of?5file?5before?5trailing?5?8?$AA@ 004b3e14     l_script.obj
 0002:00001e38       ??_C@_0CI@KHNHEENA@too?5many?5characters?5in?5literal?0?5@ 004b3e38     l_script.obj
 0002:00001e68       ??_C@_0CL@IOHHDOB@primitive?5token?5longer?5than?5MAX_@ 004b3e68     l_script.obj
 0002:00001e9c       ??_C@_0BB@HHMOOKCN@can?8t?5read?5token?$AA@ 004b3e9c     l_script.obj
 0002:00001eb0       ??_C@_0BP@BHDDOFIL@BUG?3?5wrong?5punctuation?5subtype?$AA@ 004b3eb0     l_script.obj
 0002:00001ed8       ??_C@_0CA@NFDKBKI@expected?5float?5value?0?5found?5?$CFs?6?$AA@ 004b3ed8     l_script.obj
 0002:00001f00       ??_C@_0CC@CKEDEGB@expected?5integer?5value?0?5found?5?$CFs@ 004b3f00     l_script.obj
 0002:00001f28       __real@4024000000000000    004b3f28     l_script.obj
 0002:00001f38       __real@bff0000000000000    004b3f38     l_script.obj
 0002:00001f50       __xmm@41f00000000000000000000000000000 004b3f50     l_script.obj
 0002:00002018       ??_C@_0DF@NOINFFIM@f?3?2dd?2vctools?2crt?2vcruntime?2src?2@ 004b4018     libvcruntimed:std_type_info.obj
 0002:00002058       ??_C@_0DN@JAECLCAP@f?3?2dd?2vctools?2crt?2vcruntime?2src?2@ 004b4058     libvcruntimed:per_thread_data.obj
 0002:000020b4       ??_C@_1DM@KHCHBNEB@?$AAa?$AAp?$AAi?$AA?9?$AAm?$AAs?$AA?9?$AAw?$AAi?$AAn?$AA?9?$AAc?$AAo?$AAr?$AAe?$AA?9?$AAf?$AAi?$AAb?$AAe?$AAr?$AAs?$AA?9?$AAl?$AA1?$AA?9?$AA1?$AA?9?$AA1?$AA?$AA@ 004b40b4     libvcruntimed:winapi_downlevel.obj
 0002:000020fc       ??_C@_1DK@LPPGFMPP@?$AAa?$AAp?$AAi?$AA?9?$AAm?$AAs?$AA?9?$AAw?$AAi?$AAn?$AA?9?$AAc?$AAo?$AAr?$AAe?$AA?9?$AAs?$AAy?$AAn?$AAc?$AAh?$AA?9?$AAl?$AA1?$AA?9?$AA2?$AA?9?$AA0?$AA?$AA@ 004b40fc     libvcruntimed:winapi_downlevel.obj
 0002:00002144       ??_C@_1BC@GDMECMAK@?$AAk?$AAe?$AAr?$AAn?$AAe?$AAl?$AA3?$AA2?$AA?$AA@ 004b4144     libvcruntimed:winapi_downlevel.obj
 0002:0000215c       ??_C@_17CNPHIMPH@?$AA?$CF?$AAl?$AAs?$AA?$AA@ 004b415c     libvcruntimed:winapi_downlevel.obj
 0002:00002168       ??_C@_1BA@PFFKHIOG@?$AAa?$AAp?$AAi?$AA?9?$AAm?$AAs?$AA?9?$AA?$AA@ 004b4168     libvcruntimed:winapi_downlevel.obj
 0002:0000217c       ??_C@_1BA@IAIFMGEF@?$AAe?$AAx?$AAt?$AA?9?$AAm?$AAs?$AA?9?$AA?$AA@ 004b417c     libvcruntimed:winapi_downlevel.obj
 0002:00002190       ??_C@_1EM@LBIFGLGH@?$AAc?$AAa?$AAc?$AAh?$AAe?$AAd?$AA_?$AAh?$AAa?$AAn?$AAd?$AAl?$AAe?$AA?5?$AA?$DN?$AA?$DN?$AA?5?$AAI?$AAN?$AAV?$AAA?$AAL?$AAI?$AAD?$AA_?$AAH?$AAA?$AAN?$AAD?$AAL?$AAE?$AA_@ 004b4190     libvcruntimed:winapi_downlevel.obj
 0002:000021f0       ??_C@_1HM@FGPKDEPG@?$AAf?$AA?3?$AA?2?$AAd?$AAd?$AA?2?$AAv?$AAc?$AAt?$AAo?$AAo?$AAl?$AAs?$AA?2?$AAc?$AAr?$AAt?$AA?2?$AAv?$AAc?$AAr?$AAu?$AAn?$AAt?$AAi?$AAm?$AAe?$AA?2?$AAs?$AAr?$AAc?$AA?2@ 004b41f0     libvcruntimed:winapi_downlevel.obj
 0002:00002284       ??_C@_1DI@MAHEDLDB@?$AAc?$AAa?$AAc?$AAh?$AAe?$AAd?$AA_?$AAh?$AAa?$AAn?$AAd?$AAl?$AAe?$AA?5?$AA?$DN?$AA?$DN?$AA?5?$AAn?$AAe?$AAw?$AA_?$AAh?$AAa?$AAn?$AAd?$AAl?$AAe?$AA?$AA@ 004b4284     libvcruntimed:winapi_downlevel.obj
 0002:000022c8       ??_C@_1FC@IBNCGNKL@?$AAc?$AAa?$AAc?$AAh?$AAe?$AAd?$AA_?$AAf?$AAp?$AA?5?$AA?$DN?$AA?$DN?$AA?5?$AAi?$AAn?$AAv?$AAa?$AAl?$AAi?$AAd?$AA_?$AAf?$AAu?$AAn?$AAc?$AAt?$AAi?$AAo?$AAn?$AA_?$AAs?$AAe@ 004b42c8     libvcruntimed:winapi_downlevel.obj
 0002:0000232c       ??_C@_1CI@GDJBAGLP@?$AAc?$AAa?$AAc?$AAh?$AAe?$AAd?$AA_?$AAf?$AAp?$AA?5?$AA?$DN?$AA?$DN?$AA?5?$AAn?$AAe?$AAw?$AA_?$AAf?$AAp?$AA?$AA@ 004b432c     libvcruntimed:winapi_downlevel.obj
 0002:00002368       ??_C@_08KNHFBNJ@FlsAlloc?$AA@ 004b4368     libvcruntimed:winapi_downlevel.obj
 0002:00002380       ??_C@_07PEJMOBNF@FlsFree?$AA@ 004b4380     libvcruntimed:winapi_downlevel.obj
 0002:00002398       ??_C@_0M@GDNOONDI@FlsGetValue?$AA@ 004b4398     libvcruntimed:winapi_downlevel.obj
 0002:000023b4       ??_C@_0M@JCPCPOEF@FlsSetValue?$AA@ 004b43b4     libvcruntimed:winapi_downlevel.obj
 0002:000023d0       ??_C@_0BM@HCFOFFN@InitializeCriticalSectionEx?$AA@ 004b43d0     libvcruntimed:winapi_downlevel.obj
 0002:000025dc       ??_C@_08EHJDFFNH@__based?$CI?$AA@ 004b45dc     libvcruntimed:undname.obj
 0002:000025e8       ??_C@_07KOLFKCDI@__cdecl?$AA@ 004b45e8     libvcruntimed:undname.obj
 0002:000025f4       ??_C@_08GHMPAG@__pascal?$AA@ 004b45f4     libvcruntimed:undname.obj
 0002:00002600       ??_C@_09IFJBGAPI@__stdcall?$AA@ 004b4600     libvcruntimed:undname.obj
 0002:0000260c       ??_C@_0L@NPHFGOKO@__thiscall?$AA@ 004b460c     libvcruntimed:undname.obj
 0002:0000261c       ??_C@_0L@JMKHOMEK@__fastcall?$AA@ 004b461c     libvcruntimed:undname.obj
 0002:0000262c       ??_C@_0N@BCKKPABJ@__vectorcall?$AA@ 004b462c     libvcruntimed:undname.obj
 0002:0000263c       ??_C@_09HIJEGCPM@__clrcall?$AA@ 004b463c     libvcruntimed:undname.obj
 0002:00002648       ??_C@_06GHPCKEAG@__eabi?$AA@ 004b4648     libvcruntimed:undname.obj
 0002:00002650       ??_C@_07JOMMBBKO@__ptr64?$AA@ 004b4650     libvcruntimed:undname.obj
 0002:0000265c       ??_C@_0L@PILCLIHE@__restrict?$AA@ 004b465c     libvcruntimed:undname.obj
 0002:0000266c       ??_C@_0M@GFIIJFMG@__unaligned?$AA@ 004b466c     libvcruntimed:undname.obj
 0002:0000267c       ??_C@_09DHDLOLLB@restrict?$CI?$AA@ 004b467c     libvcruntimed:undname.obj
 0002:00002688       ??_C@_04NIHEBCM@?5new?$AA@ 004b4688     libvcruntimed:undname.obj
 0002:00002690       ??_C@_07FPCDHGMM@?5delete?$AA@ 004b4690     libvcruntimed:undname.obj
 0002:0000269c       ??_C@_02GPECMEKF@?$FL?$FN?$AA@ 004b469c     libvcruntimed:undname.obj
 0002:000026a0       ??_C@_08LHJFAFGD@operator?$AA@ 004b46a0     libvcruntimed:undname.obj
 0002:000026ac       ??_C@_03MNHNFDLC@?9?$DO?$CK?$AA@ 004b46ac     libvcruntimed:undname.obj
 0002:000026b0       ??_C@_02HCKGKOFO@?$CI?$CJ?$AA@ 004b46b0     libvcruntimed:undname.obj
 0002:000026b4       ??_C@_09IFPLHPGF@?$GAvftable?8?$AA@ 004b46b4     libvcruntimed:undname.obj
 0002:000026c0       ??_C@_09BLBHBJP@?$GAvbtable?8?$AA@ 004b46c0     libvcruntimed:undname.obj
 0002:000026cc       ??_C@_07FEEIOKP@?$GAvcall?8?$AA@ 004b46cc     libvcruntimed:undname.obj
 0002:000026d8       ??_C@_08LLFFHHDJ@?$GAtypeof?8?$AA@ 004b46d8     libvcruntimed:undname.obj
 0002:000026e4       ??_C@_0BF@KDPPACIK@?$GAlocal?5static?5guard?8?$AA@ 004b46e4     libvcruntimed:undname.obj
 0002:00002700       ??_C@_08OBABFOLI@?$GAstring?8?$AA@ 004b4700     libvcruntimed:undname.obj
 0002:0000270c       ??_C@_0BD@JDLKDPAB@?$GAvbase?5destructor?8?$AA@ 004b470c     libvcruntimed:undname.obj
 0002:00002724       ??_C@_0BN@DEGPLNFK@?$GAvector?5deleting?5destructor?8?$AA@ 004b4724     libvcruntimed:undname.obj
 0002:00002748       ??_C@_0BO@OBMKPJIG@?$GAdefault?5constructor?5closure?8?$AA@ 004b4748     libvcruntimed:undname.obj
 0002:0000276c       ??_C@_0BN@IMDCHIKM@?$GAscalar?5deleting?5destructor?8?$AA@ 004b476c     libvcruntimed:undname.obj
 0002:00002790       ??_C@_0BO@PFGOCPJJ@?$GAvector?5constructor?5iterator?8?$AA@ 004b4790     libvcruntimed:undname.obj
 0002:000027b4       ??_C@_0BN@LFPFMEDL@?$GAvector?5destructor?5iterator?8?$AA@ 004b47b4     libvcruntimed:undname.obj
 0002:000027d8       ??_C@_0CE@IKBNEHA@?$GAvector?5vbase?5constructor?5iterat@ 004b47d8     libvcruntimed:undname.obj
 0002:00002804       ??_C@_0BL@NILFHHPC@?$GAvirtual?5displacement?5map?8?$AA@ 004b4804     libvcruntimed:undname.obj
 0002:00002824       ??_C@_0CB@JONCMFFK@?$GAeh?5vector?5constructor?5iterator?8@ 004b4824     libvcruntimed:undname.obj
 0002:0000284c       ??_C@_0CA@GCEOPDGL@?$GAeh?5vector?5destructor?5iterator?8?$AA@ 004b484c     libvcruntimed:undname.obj
 0002:00002874       ??_C@_0CH@OOJPLCPH@?$GAeh?5vector?5vbase?5constructor?5ite@ 004b4874     libvcruntimed:undname.obj
 0002:000028a4       ??_C@_0BL@LLKPOHJI@?$GAcopy?5constructor?5closure?8?$AA@ 004b48a4     libvcruntimed:undname.obj
 0002:000028c4       ??_C@_0BA@KBCDOMBN@?$GAudt?5returning?8?$AA@ 004b48c4     libvcruntimed:undname.obj
 0002:000028d8       ??_C@_03KLGMFNMG@?$GAEH?$AA@ 004b48d8     libvcruntimed:undname.obj
 0002:000028dc       ??_C@_05KHLCHHI@?$GARTTI?$AA@ 004b48dc     libvcruntimed:undname.obj
 0002:000028e4       ??_C@_0BA@KKLDJDLB@?$GAlocal?5vftable?8?$AA@ 004b48e4     libvcruntimed:undname.obj
 0002:000028f8       ??_C@_0CE@IIHCMGGL@?$GAlocal?5vftable?5constructor?5closu@ 004b48f8     libvcruntimed:undname.obj
 0002:00002924       ??_C@_06FHBGPFGH@?5new?$FL?$FN?$AA@ 004b4924     libvcruntimed:undname.obj
 0002:0000292c       ??_C@_09LBNFPBCA@?5delete?$FL?$FN?$AA@ 004b492c     libvcruntimed:undname.obj
 0002:00002938       ??_C@_0P@HJKNJFNN@?$GAomni?5callsig?8?$AA@ 004b4938     libvcruntimed:undname.obj
 0002:0000294c       ??_C@_0BL@CNOONJFP@?$GAplacement?5delete?5closure?8?$AA@ 004b494c     libvcruntimed:undname.obj
 0002:0000296c       ??_C@_0BN@CKNJLHMB@?$GAplacement?5delete?$FL?$FN?5closure?8?$AA@ 004b496c     libvcruntimed:undname.obj
 0002:00002990       ??_C@_0CG@CFDHKGGD@?$GAmanaged?5vector?5constructor?5iter@ 004b4990     libvcruntimed:undname.obj
 0002:000029c0       ??_C@_0CF@IMGKMJNO@?$GAmanaged?5vector?5destructor?5itera@ 004b49c0     libvcruntimed:undname.obj
 0002:000029ec       ??_C@_0CG@HLDDJMAG@?$GAeh?5vector?5copy?5constructor?5iter@ 004b49ec     libvcruntimed:undname.obj
 0002:00002a1c       ??_C@_0CM@FCBBDIGB@?$GAeh?5vector?5vbase?5copy?5constructo@ 004b4a1c     libvcruntimed:undname.obj
 0002:00002a50       ??_C@_0BL@CLIPGLGB@?$GAdynamic?5initializer?5for?5?8?$AA@ 004b4a50     libvcruntimed:undname.obj
 0002:00002a70       ??_C@_0CB@PDBIFEP@?$GAdynamic?5atexit?5destructor?5for?5?8@ 004b4a70     libvcruntimed:undname.obj
 0002:00002a98       ??_C@_0CD@CGAJBKEJ@?$GAvector?5copy?5constructor?5iterato@ 004b4a98     libvcruntimed:undname.obj
 0002:00002ac4       ??_C@_0CJ@GJELGAMM@?$GAvector?5vbase?5copy?5constructor?5i@ 004b4ac4     libvcruntimed:undname.obj
 0002:00002af8       ??_C@_0CL@FGIJHLCE@?$GAmanaged?5vector?5copy?5constructor@ 004b4af8     libvcruntimed:undname.obj
 0002:00002b2c       ??_C@_0BM@PMGGMLDN@?$GAlocal?5static?5thread?5guard?8?$AA@ 004b4b2c     libvcruntimed:undname.obj
 0002:00002b50       ??_C@_0N@BDNMDMOL@operator?5?$CC?$CC?5?$AA@ 004b4b50     libvcruntimed:undname.obj
 0002:00002b60       ??_C@_0BC@GGEBGALA@operator?5co_await?$AA@ 004b4b60     libvcruntimed:undname.obj
 0002:00002b78       ??_C@_0BC@DAFEJGAK@?5Type?5Descriptor?8?$AA@ 004b4b78     libvcruntimed:undname.obj
 0002:00002b90       ??_C@_0BM@LDKODKLH@?5Base?5Class?5Descriptor?5at?5?$CI?$AA@ 004b4b90     libvcruntimed:undname.obj
 0002:00002bb4       ??_C@_0BD@LGICGFMM@?5Base?5Class?5Array?8?$AA@ 004b4bb4     libvcruntimed:undname.obj
 0002:00002bcc       ??_C@_0BN@MECKDCOJ@?5Class?5Hierarchy?5Descriptor?8?$AA@ 004b4bcc     libvcruntimed:undname.obj
 0002:00002bf0       ??_C@_0BK@CFCOFLF@?5Complete?5Object?5Locator?8?$AA@ 004b4bf0     libvcruntimed:undname.obj
 0002:00002c10       ??_C@_04HEJADOOB@CV?3?5?$AA@ 004b4c10     libvcruntimed:undname.obj
 0002:00002c18       ??_C@_0BE@JAEOCHPE@template?9parameter?9?$AA@ 004b4c18     libvcruntimed:undname.obj
 0002:00002c30       ??_C@_0O@KHGCOMHP@generic?9type?9?$AA@ 004b4c30     libvcruntimed:undname.obj
 0002:00002c40       ??_C@_01NLNLIGKH@?$GA?$AA@ 004b4c40     libvcruntimed:undname.obj
 0002:00002c44       ??_C@_01GEODFPGF@?8?$AA@   004b4c44     libvcruntimed:undname.obj
 0002:00002c48       ??_C@_0BG@JNJLAMPM@?$GAanonymous?5namespace?8?$AA@ 004b4c48     libvcruntimed:undname.obj
 0002:00002c64       ??_C@_02OHHJMEON@?8?8?$AA@ 004b4c64     libvcruntimed:undname.obj
 0002:00002c68       ??_C@_0BN@IBLMMFAP@?$GAnon?9type?9template?9parameter?$AA@ 004b4c68     libvcruntimed:undname.obj
 0002:00002c8c       ??_C@_04GKJNKENE@void?$AA@ 004b4c8c     libvcruntimed:undname.obj
 0002:00002c94       ??_C@_0BE@EODMJLIF@?$GAtemplate?9parameter?$AA@ 004b4c94     libvcruntimed:undname.obj
 0002:00002cac       ??_C@_04HIBGFPH@NULL?$AA@  004b4cac     libvcruntimed:undname.obj
 0002:00002cb4       ??_C@_0BK@IHCCFNEL@?$GAtemplate?9type?9parameter?9?$AA@ 004b4cb4     libvcruntimed:undname.obj
 0002:00002cd4       ??_C@_0BK@OFCNNNKO@?$GAgeneric?9class?9parameter?9?$AA@ 004b4cd4     libvcruntimed:undname.obj
 0002:00002cf4       ??_C@_0BL@NGJBLFIL@?$GAgeneric?9method?9parameter?9?$AA@ 004b4cf4     libvcruntimed:undname.obj
 0002:00002d14       ??_C@_03OPGICMGF@?$HN?8?5?$AA@ 004b4d14     libvcruntimed:undname.obj
 0002:00002d18       ??_C@_02IGFCGPIL@?$HN?8?$AA@ 004b4d18     libvcruntimed:undname.obj
 0002:00002d1c       ??_C@_0N@CBHHHENL@?$GAvtordispex?$HL?$AA@ 004b4d1c     libvcruntimed:undname.obj
 0002:00002d2c       ??_C@_0L@GHPFDFH@?$GAvtordisp?$HL?$AA@ 004b4d2c     libvcruntimed:undname.obj
 0002:00002d3c       ??_C@_0L@HNGCOGAE@?$GAadjustor?$HL?$AA@ 004b4d3c     libvcruntimed:undname.obj
 0002:00002d4c       ??_C@_0CB@KJDOOODE@?$GAlocal?5static?5destructor?5helper?8@ 004b4d4c     libvcruntimed:undname.obj
 0002:00002d74       ??_C@_0DB@ILEFOCIJ@?$GAtemplate?5static?5data?5member?5con@ 004b4d74     libvcruntimed:undname.obj
 0002:00002db0       ??_C@_0DA@HGFJFBBE@?$GAtemplate?5static?5data?5member?5des@ 004b4db0     libvcruntimed:undname.obj
 0002:00002dec       ??_C@_07PGOEDBHP@static?5?$AA@ 004b4dec     libvcruntimed:undname.obj
 0002:00002df8       ??_C@_08NIEOINHE@virtual?5?$AA@ 004b4df8     libvcruntimed:undname.obj
 0002:00002e04       ??_C@_09LAPHOOG@private?3?5?$AA@ 004b4e04     libvcruntimed:undname.obj
 0002:00002e10       ??_C@_0M@GAIFPFIP@protected?3?5?$AA@ 004b4e10     libvcruntimed:undname.obj
 0002:00002e20       ??_C@_08GPDDCMKI@public?3?5?$AA@ 004b4e20     libvcruntimed:undname.obj
 0002:00002e2c       ??_C@_08KJLFOPNE@?$FLthunk?$FN?3?$AA@ 004b4e2c     libvcruntimed:undname.obj
 0002:00002e38       ??_C@_0M@DHNBOJMP@extern?5?$CCC?$CC?5?$AA@ 004b4e38     libvcruntimed:undname.obj
 0002:00002e48       ??_C@_02KCKGHPCA@?$CJ?5?$AA@ 004b4e48     libvcruntimed:undname.obj
 0002:00002e4c       ??_C@_05CIHEBHNO@char?5?$AA@ 004b4e4c     libvcruntimed:undname.obj
 0002:00002e54       ??_C@_06EHJMALKF@short?5?$AA@ 004b4e54     libvcruntimed:undname.obj
 0002:00002e5c       ??_C@_04LAHKHJMA@int?5?$AA@ 004b4e5c     libvcruntimed:undname.obj
 0002:00002e64       ??_C@_05CJIMAING@long?5?$AA@ 004b4e64     libvcruntimed:undname.obj
 0002:00002e6c       ??_C@_09EBBEKKIH@unsigned?5?$AA@ 004b4e6c     libvcruntimed:undname.obj
 0002:00002e78       ??_C@_05BEFAKPML@void?5?$AA@ 004b4e78     libvcruntimed:undname.obj
 0002:00002e80       ??_C@_08PABEKFH@volatile?$AA@ 004b4e80     libvcruntimed:undname.obj
 0002:00002e8c       ??_C@_0BA@LKIJLKPP@std?3?3nullptr_t?5?$AA@ 004b4e8c     libvcruntimed:undname.obj
 0002:00002ea0       ??_C@_0P@GCOCNKDM@std?3?3nullptr_t?$AA@ 004b4ea0     libvcruntimed:undname.obj
 0002:00002eb4       ??_C@_0L@EGPHHEKN@?$DMellipsis?$DO?$AA@ 004b4eb4     libvcruntimed:undname.obj
 0002:00002ec4       ??_C@_04EENFHACM@?0?4?4?4?$AA@ 004b4ec4     libvcruntimed:undname.obj
 0002:00002ecc       ??_C@_0M@ELJOJFFH@?0?$DMellipsis?$DO?$AA@ 004b4ecc     libvcruntimed:undname.obj
 0002:00002edc       ??_C@_09DNHFEOJI@?5noexcept?$AA@ 004b4edc     libvcruntimed:undname.obj
 0002:00002ee8       ??_C@_03PBJBJNON@cpu?$AA@  004b4ee8     libvcruntimed:undname.obj
 0002:00002eec       ??_C@_03DCBBJBAA@amp?$AA@  004b4eec     libvcruntimed:undname.obj
 0002:00002ef0       ??_C@_02KEGNLNML@?0?5?$AA@ 004b4ef0     libvcruntimed:undname.obj
 0002:00002ef4       ??_C@_04ENMBGAPA@char?$AA@ 004b4ef4     libvcruntimed:undname.obj
 0002:00002efc       ??_C@_05BFKKPKCG@short?$AA@ 004b4efc     libvcruntimed:undname.obj
 0002:00002f04       ??_C@_03JBIPMCLC@int?$AA@  004b4f04     libvcruntimed:undname.obj
 0002:00002f08       ??_C@_04GOKPGOLB@long?$AA@ 004b4f08     libvcruntimed:undname.obj
 0002:00002f10       ??_C@_05KNFBNCOH@float?$AA@ 004b4f10     libvcruntimed:undname.obj
 0002:00002f18       ??_C@_06BNJCAIGJ@double?$AA@ 004b4f18     libvcruntimed:undname.obj
 0002:00002f20       ??_C@_04DDKJGDCM@bool?$AA@ 004b4f20     libvcruntimed:undname.obj
 0002:00002f28       ??_C@_06EBGKOKIG@__int8?$AA@ 004b4f28     libvcruntimed:undname.obj
 0002:00002f30       ??_C@_07ICFHOGAF@__int16?$AA@ 004b4f30     libvcruntimed:undname.obj
 0002:00002f3c       ??_C@_07OFLPPHGP@__int32?$AA@ 004b4f3c     libvcruntimed:undname.obj
 0002:00002f48       ??_C@_07LFCOJCAC@__int64?$AA@ 004b4f48     libvcruntimed:undname.obj
 0002:00002f54       ??_C@_08GAHOLHEO@__int128?$AA@ 004b4f54     libvcruntimed:undname.obj
 0002:00002f60       ??_C@_09EEKGDCPH@?$DMunknown?$DO?$AA@ 004b4f60     libvcruntimed:undname.obj
 0002:00002f6c       ??_C@_08HBIPOFJB@char16_t?$AA@ 004b4f6c     libvcruntimed:undname.obj
 0002:00002f78       ??_C@_08IECNCBKG@char32_t?$AA@ 004b4f78     libvcruntimed:undname.obj
 0002:00002f84       ??_C@_07CLGGIAMF@wchar_t?$AA@ 004b4f84     libvcruntimed:undname.obj
 0002:00002f90       ??_C@_06GCICPBLB@__w64?5?$AA@ 004b4f90     libvcruntimed:undname.obj
 0002:00002f98       ??_C@_07NFANNNEC@UNKNOWN?$AA@ 004b4f98     libvcruntimed:undname.obj
 0002:00002fa4       ??_C@_07EDHNAJHC@signed?5?$AA@ 004b4fa4     libvcruntimed:undname.obj
 0002:00002fb0       ??_C@_05BNCCCJPP@const?$AA@ 004b4fb0     libvcruntimed:undname.obj
 0002:00002fb8       ??_C@_09EFNPDFFP@?5volatile?$AA@ 004b4fb8     libvcruntimed:undname.obj
 0002:00002fc4       ??_C@_0P@GCIFDJCJ@?$GAunknown?5ecsu?8?$AA@ 004b4fc4     libvcruntimed:undname.obj
 0002:00002fd8       ??_C@_06MOJHIBMG@union?5?$AA@ 004b4fd8     libvcruntimed:undname.obj
 0002:00002fe0       ??_C@_07DIBCDNGL@struct?5?$AA@ 004b4fe0     libvcruntimed:undname.obj
 0002:00002fec       ??_C@_06LJBABKPM@class?5?$AA@ 004b4fec     libvcruntimed:undname.obj
 0002:00002ff4       ??_C@_08KOFANOFK@coclass?5?$AA@ 004b4ff4     libvcruntimed:undname.obj
 0002:00003000       ??_C@_0N@DLIEFKNA@cointerface?5?$AA@ 004b5000     libvcruntimed:undname.obj
 0002:00003010       ??_C@_05LJGMCFOG@enum?5?$AA@ 004b5010     libvcruntimed:undname.obj
 0002:00003018       ??_C@_09GAIEOBLP@volatile?5?$AA@ 004b5018     libvcruntimed:undname.obj
 0002:00003024       ??_C@_06LIJLOJAG@const?5?$AA@ 004b5024     libvcruntimed:undname.obj
 0002:0000302c       ??_C@_02KJPKDIBN@?$CG?5?$AA@ 004b502c     libvcruntimed:undname.obj
 0002:00003030       ??_C@_03PCKGMOPB@?$CG?$CG?5?$AA@ 004b5030     libvcruntimed:undname.obj
 0002:00003034       ??_C@_0M@EALIELKG@cli?3?3array?$DM?$AA@ 004b5034     libvcruntimed:undname.obj
 0002:00003044       ??_C@_0O@GKABPPIF@cli?3?3pin_ptr?$DM?$AA@ 004b5044     libvcruntimed:undname.obj
 0002:00003054       ??_C@_02GOGNNPBN@?$CJ?$FL?$AA@ 004b5054     libvcruntimed:undname.obj
 0002:00003058       ??_C@_06EEGAIFAK@?$HLflat?$HN?$AA@ 004b5058     libvcruntimed:undname.obj
 0002:00003060       ??_C@_05JIBOFOHK@?$HLfor?5?$AA@ 004b5060     libvcruntimed:undname.obj
 0002:00003068       ??_C@_02MDINNEEG@s?5?$AA@  004b5068     libvcruntimed:undname.obj
 0002:00003070       ??_7DNameNode@@6B@         004b5070     libvcruntimed:undname.obj
 0002:00003084       ??_7charNode@@6B@          004b5084     libvcruntimed:undname.obj
 0002:00003098       ??_7pcharNode@@6B@         004b5098     libvcruntimed:undname.obj
 0002:000030ac       ??_7pDNameNode@@6B@        004b50ac     libvcruntimed:undname.obj
 0002:000030c0       ??_7DNameStatusNode@@6B@   004b50c0     libvcruntimed:undname.obj
 0002:000030d4       ??_7pairNode@@6B@          004b50d4     libvcruntimed:undname.obj
 0002:000030e4       ??_C@_04OKOHEJBO@?5?$DP?$DP?5?$AA@ 004b50e4     libvcruntimed:undname.obj
 0002:000030ec       ?nodes@?1??make@DNameStatusNode@@SAPBV2@W4DNameStatus@@@Z@4QBV2@B 004b50ec     libvcruntimed:undname.obj
 0002:00003128       ??_C@_0CP@GDJHIDC@minkernel?2crts?2ucrt?2src?2appcrt?2s@ 004b5128     libucrtd:_file.obj
 0002:00003160       ??_C@_1DC@OGOLMDEL@?$AAp?$AAu?$AAb?$AAl?$AAi?$AAc?$AA_?$AAs?$AAt?$AAr?$AAe?$AAa?$AAm?$AA?5?$AA?$CB?$AA?$DN?$AA?5?$AAn?$AAu?$AAl?$AAl?$AAp?$AAt?$AAr?$AA?$AA@ 004b5160     libucrtd:_file.obj
 0002:000031a0       ??_C@_1FO@IEGKHABE@?$AAm?$AAi?$AAn?$AAk?$AAe?$AAr?$AAn?$AAe?$AAl?$AA?2?$AAc?$AAr?$AAt?$AAs?$AA?2?$AAu?$AAc?$AAr?$AAt?$AA?2?$AAs?$AAr?$AAc?$AA?2?$AAa?$AAp?$AAp?$AAc?$AAr?$AAt?$AA?2?$AAs@ 004b51a0     libucrtd:_file.obj
 0002:00003210       ??_C@_1DI@PJGMCDLC@?$AA_?$AAg?$AAe?$AAt?$AA_?$AAs?$AAt?$AAr?$AAe?$AAa?$AAm?$AA_?$AAb?$AAu?$AAf?$AAf?$AAe?$AAr?$AA_?$AAp?$AAo?$AAi?$AAn?$AAt?$AAe?$AAr?$AAs?$AA?$AA@ 004b5210     libucrtd:_file.obj
 0002:00003254       ??_C@_1BO@MHPFFFJJ@?$AAs?$AAt?$AAr?$AAe?$AAa?$AAm?$AA?4?$AAv?$AAa?$AAl?$AAi?$AAd?$AA?$CI?$AA?$CJ?$AA?$AA@ 004b5254     libucrtd:fclose.obj
 0002:00003278       ??_C@_1GA@DKNOMDCL@?$AAm?$AAi?$AAn?$AAk?$AAe?$AAr?$AAn?$AAe?$AAl?$AA?2?$AAc?$AAr?$AAt?$AAs?$AA?2?$AAu?$AAc?$AAr?$AAt?$AA?2?$AAs?$AAr?$AAc?$AA?2?$AAa?$AAp?$AAp?$AAc?$AAr?$AAt?$AA?2?$AAs@ 004b5278     libucrtd:fclose.obj
 0002:000032ec       ??_C@_1O@EGMJNCOI@?$AAf?$AAc?$AAl?$AAo?$AAs?$AAe?$AA?$AA@ 004b52ec     libucrtd:fclose.obj
 0002:000032fc       ??_C@_1BO@JINCABEC@?$AA_?$AAf?$AAc?$AAl?$AAo?$AAs?$AAe?$AA_?$AAn?$AAo?$AAl?$AAo?$AAc?$AAk?$AA?$AA@ 004b52fc     libucrtd:fclose.obj
 0002:00003320       ??_C@_1CK@LLOEFJJG@?$AAf?$AAi?$AAl?$AAe?$AA_?$AAn?$AAa?$AAm?$AAe?$AA?5?$AA?$CB?$AA?$DN?$AA?5?$AAn?$AAu?$AAl?$AAl?$AAp?$AAt?$AAr?$AA?$AA@ 004b5320     libucrtd:fopen.obj
 0002:00003358       ??_C@_1FO@JKHHBFCN@?$AAm?$AAi?$AAn?$AAk?$AAe?$AAr?$AAn?$AAe?$AAl?$AA?2?$AAc?$AAr?$AAt?$AAs?$AA?2?$AAu?$AAc?$AAr?$AAt?$AA?2?$AAs?$AAr?$AAc?$AA?2?$AAa?$AAp?$AAp?$AAc?$AAr?$AAt?$AA?2?$AAs@ 004b5358     libucrtd:fopen.obj
 0002:000033c8       ??_C@_1BM@HBDCPLIA@?$AAc?$AAo?$AAm?$AAm?$AAo?$AAn?$AA_?$AAf?$AAs?$AAo?$AAp?$AAe?$AAn?$AA?$AA@ 004b53c8     libucrtd:fopen.obj
 0002:000033ec       ??_C@_1CA@HJKPLBCC@?$AAm?$AAo?$AAd?$AAe?$AA?5?$AA?$CB?$AA?$DN?$AA?5?$AAn?$AAu?$AAl?$AAl?$AAp?$AAt?$AAr?$AA?$AA@ 004b53ec     libucrtd:fopen.obj
 0002:00003414       ??_C@_1BG@HEFEIBLN@?$AA?$CK?$AAm?$AAo?$AAd?$AAe?$AA?5?$AA?$CB?$AA?$DN?$AA?5?$AA0?$AA?$AA@ 004b5414     libucrtd:fopen.obj
 0002:00003430       ??_C@_1CE@JMFACANE@?$AAr?$AAe?$AAs?$AAu?$AAl?$AAt?$AA?5?$AA?$CB?$AA?$DN?$AA?5?$AAn?$AAu?$AAl?$AAl?$AAp?$AAt?$AAr?$AA?$AA@ 004b5430     libucrtd:fopen.obj
 0002:0000345c       ??_C@_1BO@JGGJAKB@?$AAc?$AAo?$AAm?$AAm?$AAo?$AAn?$AA_?$AAf?$AAo?$AAp?$AAe?$AAn?$AA_?$AAs?$AA?$AA@ 004b545c     libucrtd:fopen.obj
 0002:00003480       ??_C@_1BDG@MKBKGHOH@?$AA?$CI?$AA?5?$AA?$CI?$AA_?$AAS?$AAt?$AAr?$AAe?$AAa?$AAm?$AA?4?$AAi?$AAs?$AA_?$AAs?$AAt?$AAr?$AAi?$AAn?$AAg?$AA_?$AAb?$AAa?$AAc?$AAk?$AAe?$AAd?$AA?$CI?$AA?$CJ?$AA?$CJ?$AA?5?$AA?$HM@ 004b5480     libucrtd:fputc.obj
 0002:000035f4       ??_C@_1CE@JLIJLEKO@?$AAs?$AAt?$AAr?$AAe?$AAa?$AAm?$AA?5?$AA?$CB?$AA?$DN?$AA?5?$AAn?$AAu?$AAl?$AAl?$AAp?$AAt?$AAr?$AA?$AA@ 004b55f4     libucrtd:fputc.obj
 0002:00003620       ??_C@_1FO@FNOAOMLP@?$AAm?$AAi?$AAn?$AAk?$AAe?$AAr?$AAn?$AAe?$AAl?$AA?2?$AAc?$AAr?$AAt?$AAs?$AA?2?$AAu?$AAc?$AAr?$AAt?$AA?2?$AAs?$AAr?$AAc?$AA?2?$AAa?$AAp?$AAp?$AAc?$AAr?$AAt?$AA?2?$AAs@ 004b5620     libucrtd:fputc.obj
 0002:00003690       ??_C@_1M@OIJMPNCO@?$AAf?$AAp?$AAu?$AAt?$AAc?$AA?$AA@ 004b5690     libucrtd:fputc.obj
 0002:000036a0       ??_C@_1FO@CIJKACCM@?$AAm?$AAi?$AAn?$AAk?$AAe?$AAr?$AAn?$AAe?$AAl?$AA?2?$AAc?$AAr?$AAt?$AAs?$AA?2?$AAu?$AAc?$AAr?$AAt?$AA?2?$AAs?$AAr?$AAc?$AA?2?$AAa?$AAp?$AAp?$AAc?$AAr?$AAt?$AA?2?$AAs@ 004b56a0     libucrtd:fread.obj
 0002:00003710       ??_C@_1BA@CMLCEIGG@?$AAf?$AAr?$AAe?$AAa?$AAd?$AA_?$AAs?$AA?$AA@ 004b5710     libucrtd:fread.obj
 0002:00003724       ??_C@_1CE@MCCHPLBM@?$AAb?$AAu?$AAf?$AAf?$AAe?$AAr?$AA?5?$AA?$CB?$AA?$DN?$AA?5?$AAn?$AAu?$AAl?$AAl?$AAp?$AAt?$AAr?$AA?$AA@ 004b5724     libucrtd:fread.obj
 0002:00003750       ??_C@_1CA@IDPOGFL@?$AA_?$AAf?$AAr?$AAe?$AAa?$AAd?$AA_?$AAn?$AAo?$AAl?$AAo?$AAc?$AAk?$AA_?$AAs?$AA?$AA@ 004b5750     libucrtd:fread.obj
 0002:00003778       ??_C@_1FG@KLKDPCLL@?$AAe?$AAl?$AAe?$AAm?$AAe?$AAn?$AAt?$AA_?$AAc?$AAo?$AAu?$AAn?$AAt?$AA?5?$AA?$DM?$AA?$DN?$AA?5?$AA?$CI?$AAS?$AAI?$AAZ?$AAE?$AA_?$AAM?$AAA?$AAX?$AA?5?$AA?1?$AA?5?$AAe?$AAl?$AAe@ 004b5778     libucrtd:fread.obj
 0002:000037e0       ??_C@_1LG@DCNDJCHK@?$AA?$CI?$AA?$CC?$AAI?$AAn?$AAc?$AAo?$AAn?$AAs?$AAi?$AAs?$AAt?$AAe?$AAn?$AAt?$AA?5?$AAS?$AAt?$AAr?$AAe?$AAa?$AAm?$AA?5?$AAC?$AAo?$AAu?$AAn?$AAt?$AA?4?$AA?5?$AAF?$AAl?$AAu@ 004b57e0     libucrtd:fread.obj
 0002:000038bc       ??_C@_1DA@DKEFLDMG@?$AA?$CI?$AA?$CC?$AAb?$AAu?$AAf?$AAf?$AAe?$AAr?$AA?5?$AAt?$AAo?$AAo?$AA?5?$AAs?$AAm?$AAa?$AAl?$AAl?$AA?$CC?$AA?0?$AA?5?$AA0?$AA?$CJ?$AA?$AA@ 004b58bc     libucrtd:fread.obj
 0002:000038f8       ??_C@_1FO@KMPAKEKH@?$AAm?$AAi?$AAn?$AAk?$AAe?$AAr?$AAn?$AAe?$AAl?$AA?2?$AAc?$AAr?$AAt?$AAs?$AA?2?$AAu?$AAc?$AAr?$AAt?$AA?2?$AAs?$AAr?$AAc?$AA?2?$AAa?$AAp?$AAp?$AAc?$AAr?$AAt?$AA?2?$AAs@ 004b58f8     libucrtd:fseek.obj
 0002:00003968       ??_C@_1BK@HEPGDNON@?$AAc?$AAo?$AAm?$AAm?$AAo?$AAn?$AA_?$AAf?$AAs?$AAe?$AAe?$AAk?$AA?$AA@ 004b5968     libucrtd:fseek.obj
 0002:00003988       ??_C@_1HO@BJGCGJL@?$AAw?$AAh?$AAe?$AAn?$AAc?$AAe?$AA?5?$AA?$DN?$AA?$DN?$AA?5?$AAS?$AAE?$AAE?$AAK?$AA_?$AAS?$AAE?$AAT?$AA?5?$AA?$HM?$AA?$HM?$AA?5?$AAw?$AAh?$AAe?$AAn?$AAc?$AAe?$AA?5?$AA?$DN?$AA?$DN?$AA?5@ 004b5988     libucrtd:fseek.obj
 0002:00003a20       ??_C@_1CO@LBNDLIPC@?$AAs?$AAt?$AAr?$AAe?$AAa?$AAm?$AA?4?$AAp?$AAu?$AAb?$AAl?$AAi?$AAc?$AA_?$AAs?$AAt?$AAr?$AAe?$AAa?$AAm?$AA?$CI?$AA?$CJ?$AA?$AA@ 004b5a20     libucrtd:ftell.obj
 0002:00003a58       ??_C@_1FO@JHBALIAM@?$AAm?$AAi?$AAn?$AAk?$AAe?$AAr?$AAn?$AAe?$AAl?$AA?2?$AAc?$AAr?$AAt?$AAs?$AA?2?$AAu?$AAc?$AAr?$AAt?$AA?2?$AAs?$AAr?$AAc?$AA?2?$AAa?$AAp?$AAp?$AAc?$AAr?$AAt?$AA?2?$AAs@ 004b5a58     libucrtd:ftell.obj
 0002:00003ac8       ??_C@_1CI@MOKEPKDC@?$AAc?$AAo?$AAm?$AAm?$AAo?$AAn?$AA_?$AAf?$AAt?$AAe?$AAl?$AAl?$AA_?$AAn?$AAo?$AAl?$AAo?$AAc?$AAk?$AA?$AA@ 004b5ac8     libucrtd:ftell.obj
 0002:00003af8       ??_C@_1BK@CMPCEPOF@?$AAc?$AAo?$AAm?$AAm?$AAo?$AAn?$AA_?$AAf?$AAt?$AAe?$AAl?$AAl?$AA?$AA@ 004b5af8     libucrtd:ftell.obj
 0002:00003b18       ??_C@_0DF@IKPHOEPI@minkernel?2crts?2ucrt?2src?2appcrt?2f@ 004b5b18     libucrtd:rename.obj
 0002:00003b58       _standard_lookup_table     004b5b58     libucrtd:output.obj
 0002:00003bc8       _format_validation_lookup_table 004b5bc8     libucrtd:output.obj
 0002:00003c38       ??_C@_1GC@LCDLABEA@?$AAm?$AAi?$AAn?$AAk?$AAe?$AAr?$AAn?$AAe?$AAl?$AA?2?$AAc?$AAr?$AAt?$AAs?$AA?2?$AAu?$AAc?$AAr?$AAt?$AA?2?$AAi?$AAn?$AAc?$AA?2?$AAc?$AAo?$AAr?$AAe?$AAc?$AAr?$AAt?$AA_@ 004b5c38     libucrtd:output.obj
 0002:00003cb0       ??_C@_1II@DIIMCJOK@?$AA_?$AA_?$AAa?$AAc?$AAr?$AAt?$AA_?$AAs?$AAt?$AAd?$AAi?$AAo?$AA_?$AAc?$AAh?$AAa?$AAr?$AA_?$AAt?$AAr?$AAa?$AAi?$AAt?$AAs?$AA?$DM?$AAc?$AAh?$AAa?$AAr?$AA?$DO?$AA?3?$AA?3@ 004b5cb0     libucrtd:output.obj
 0002:00003d58       ??_C@_1GA@MOBAPGIO@?$AAm?$AAi?$AAn?$AAk?$AAe?$AAr?$AAn?$AAe?$AAl?$AA?2?$AAc?$AAr?$AAt?$AAs?$AA?2?$AAu?$AAc?$AAr?$AAt?$AA?2?$AAs?$AAr?$AAc?$AA?2?$AAa?$AAp?$AAp?$AAc?$AAr?$AAt?$AA?2?$AAs@ 004b5d58     libucrtd:output.obj
 0002:00003dcc       ??_C@_1CA@GELIJBMC@?$AAc?$AAo?$AAm?$AAm?$AAo?$AAn?$AA_?$AAv?$AAf?$AAp?$AAr?$AAi?$AAn?$AAt?$AAf?$AA?$AA@ 004b5dcc     libucrtd:output.obj
 0002:00003df4       ??_C@_1CE@EAKLPBKK@?$AAf?$AAo?$AAr?$AAm?$AAa?$AAt?$AA?5?$AA?$CB?$AA?$DN?$AA?5?$AAn?$AAu?$AAl?$AAl?$AAp?$AAt?$AAr?$AA?$AA@ 004b5df4     libucrtd:output.obj
 0002:00003e20       ??_C@_1CA@PIMGHCEK@?$AAc?$AAo?$AAm?$AAm?$AAo?$AAn?$AA_?$AAv?$AAs?$AAp?$AAr?$AAi?$AAn?$AAt?$AAf?$AA?$AA@ 004b5e20     libucrtd:output.obj
 0002:00003e48       ??_C@_1EO@EGEEFEFM@?$AAb?$AAu?$AAf?$AAf?$AAe?$AAr?$AA_?$AAc?$AAo?$AAu?$AAn?$AAt?$AA?5?$AA?$DN?$AA?$DN?$AA?5?$AA0?$AA?5?$AA?$HM?$AA?$HM?$AA?5?$AAb?$AAu?$AAf?$AAf?$AAe?$AAr?$AA?5?$AA?$CB?$AA?$DN?$AA?5?$AAn@ 004b5e48     libucrtd:output.obj
 0002:00003ea8       ??_C@_1CE@JEILLNB@?$AAc?$AAo?$AAm?$AAm?$AAo?$AAn?$AA_?$AAv?$AAs?$AAp?$AAr?$AAi?$AAn?$AAt?$AAf?$AA_?$AAs?$AA?$AA@ 004b5ea8     libucrtd:output.obj
 0002:00003ed8       ??_C@_1EM@OAFHAOLH@?$AAb?$AAu?$AAf?$AAf?$AAe?$AAr?$AA?5?$AA?$CB?$AA?$DN?$AA?5?$AAn?$AAu?$AAl?$AAl?$AAp?$AAt?$AAr?$AA?5?$AA?$CG?$AA?$CG?$AA?5?$AAb?$AAu?$AAf?$AAf?$AAe?$AAr?$AA_?$AAc?$AAo?$AAu?$AAn@ 004b5ed8     libucrtd:output.obj
 0002:00003f34       ??_C@_1DA@HPBFKMEB@?$AA?$CI?$AA?$CC?$AAB?$AAu?$AAf?$AAf?$AAe?$AAr?$AA?5?$AAt?$AAo?$AAo?$AA?5?$AAs?$AAm?$AAa?$AAl?$AAl?$AA?$CC?$AA?0?$AA?5?$AA0?$AA?$CJ?$AA?$AA@ 004b5f34     libucrtd:output.obj
 0002:00003f70       ??_C@_1CG@LHFJHFBB@?$AAc?$AAo?$AAm?$AAm?$AAo?$AAn?$AA_?$AAv?$AAs?$AAn?$AAp?$AAr?$AAi?$AAn?$AAt?$AAf?$AA_?$AAs?$AA?$AA@ 004b5f70     libucrtd:output.obj
 0002:00003fa0       ??_C@_1CM@JOIJBMEM@?$AA_?$AAf?$AAo?$AAr?$AAm?$AAa?$AAt?$AA_?$AAi?$AAt?$AA?5?$AA?$CB?$AA?$DN?$AA?5?$AAn?$AAu?$AAl?$AAl?$AAp?$AAt?$AAr?$AA?$AA@ 004b5fa0     libucrtd:output.obj
 0002:00003fd8       ??_C@_1HA@DMAAKIJP@?$AAm?$AAi?$AAn?$AAk?$AAe?$AAr?$AAn?$AAe?$AAl?$AA?2?$AAc?$AAr?$AAt?$AAs?$AA?2?$AAu?$AAc?$AAr?$AAt?$AA?2?$AAi?$AAn?$AAc?$AA?2?$AAc?$AAo?$AAr?$AAe?$AAc?$AAr?$AAt?$AA_@ 004b5fd8     libucrtd:output.obj
 0002:00004060       ??_C@_1BKA@IIAAOGBO@?$AA_?$AA_?$AAc?$AAr?$AAt?$AA_?$AAs?$AAt?$AAd?$AAi?$AAo?$AA_?$AAo?$AAu?$AAt?$AAp?$AAu?$AAt?$AA?3?$AA?3?$AAo?$AAu?$AAt?$AAp?$AAu?$AAt?$AA_?$AAp?$AAr?$AAo?$AAc?$AAe@ 004b6060     libucrtd:output.obj
 0002:00004258       ??_C@_1EE@DMAIGNBG@?$AA?$CI?$AA?$CC?$AAI?$AAn?$AAc?$AAo?$AAr?$AAr?$AAe?$AAc?$AAt?$AA?5?$AAf?$AAo?$AAr?$AAm?$AAa?$AAt?$AA?5?$AAs?$AAp?$AAe?$AAc?$AAi?$AAf?$AAi?$AAe?$AAr?$AA?$CC?$AA?0?$AA?5?$AA0@ 004b6258     libucrtd:output.obj
 0002:000042b0       ??_C@_1BLI@EEAAPJD@?$AA_?$AA_?$AAc?$AAr?$AAt?$AA_?$AAs?$AAt?$AAd?$AAi?$AAo?$AA_?$AAo?$AAu?$AAt?$AAp?$AAu?$AAt?$AA?3?$AA?3?$AAo?$AAu?$AAt?$AAp?$AAu?$AAt?$AA_?$AAp?$AAr?$AAo?$AAc?$AAe@ 004b62b0     libucrtd:output.obj
 0002:000044c0       ??_C@_1BLC@PMCLHHAE@?$AA_?$AA_?$AAc?$AAr?$AAt?$AA_?$AAs?$AAt?$AAd?$AAi?$AAo?$AA_?$AAo?$AAu?$AAt?$AAp?$AAu?$AAt?$AA?3?$AA?3?$AAo?$AAu?$AAt?$AAp?$AAu?$AAt?$AA_?$AAp?$AAr?$AAo?$AAc?$AAe@ 004b64c0     libucrtd:output.obj
 0002:000046c8       ??_C@_1BMK@CPBKHDIH@?$AA_?$AA_?$AAc?$AAr?$AAt?$AA_?$AAs?$AAt?$AAd?$AAi?$AAo?$AA_?$AAo?$AAu?$AAt?$AAp?$AAu?$AAt?$AA?3?$AA?3?$AAo?$AAu?$AAt?$AAp?$AAu?$AAt?$AA_?$AAp?$AAr?$AAo?$AAc?$AAe@ 004b66c8     libucrtd:output.obj
 0002:000048f0       ??_C@_1BLI@FOCNEPKJ@?$AA_?$AA_?$AAc?$AAr?$AAt?$AA_?$AAs?$AAt?$AAd?$AAi?$AAo?$AA_?$AAo?$AAu?$AAt?$AAp?$AAu?$AAt?$AA?3?$AA?3?$AAo?$AAu?$AAt?$AAp?$AAu?$AAt?$AA_?$AAp?$AAr?$AAo?$AAc?$AAe@ 004b68f0     libucrtd:output.obj
 0002:00004b00       ??_C@_1BNA@HGLCOOBP@?$AA_?$AA_?$AAc?$AAr?$AAt?$AA_?$AAs?$AAt?$AAd?$AAi?$AAo?$AA_?$AAo?$AAu?$AAt?$AAp?$AAu?$AAt?$AA?3?$AA?3?$AAo?$AAu?$AAt?$AAp?$AAu?$AAt?$AA_?$AAp?$AAr?$AAo?$AAc?$AAe@ 004b6b00     libucrtd:output.obj
 0002:00004d30       ??_C@_1BKA@DNADAJMC@?$AA_?$AA_?$AAc?$AAr?$AAt?$AA_?$AAs?$AAt?$AAd?$AAi?$AAo?$AA_?$AAo?$AAu?$AAt?$AAp?$AAu?$AAt?$AA?3?$AA?3?$AAo?$AAu?$AAt?$AAp?$AAu?$AAt?$AA_?$AAp?$AAr?$AAo?$AAc?$AAe@ 004b6d30     libucrtd:output.obj
 0002:00004f28       ??_C@_1BLI@IKDKMDHI@?$AA_?$AA_?$AAc?$AAr?$AAt?$AA_?$AAs?$AAt?$AAd?$AAi?$AAo?$AA_?$AAo?$AAu?$AAt?$AAp?$AAu?$AAt?$AA?3?$AA?3?$AAo?$AAu?$AAt?$AAp?$AAu?$AAt?$AA_?$AAp?$AAr?$AAo?$AAc?$AAe@ 004b6f28     libucrtd:output.obj
 0002:00005138       ??_C@_1BLI@EGFICANE@?$AA_?$AA_?$AAc?$AAr?$AAt?$AA_?$AAs?$AAt?$AAd?$AAi?$AAo?$AA_?$AAo?$AAu?$AAt?$AAp?$AAu?$AAt?$AA?3?$AA?3?$AAo?$AAu?$AAt?$AAp?$AAu?$AAt?$AA_?$AAp?$AAr?$AAo?$AAc?$AAe@ 004b7138     libucrtd:output.obj
 0002:00005348       ??_C@_1BNA@OIIAGHJI@?$AA_?$AA_?$AAc?$AAr?$AAt?$AA_?$AAs?$AAt?$AAd?$AAi?$AAo?$AA_?$AAo?$AAu?$AAt?$AAp?$AAu?$AAt?$AA?3?$AA?3?$AAo?$AAu?$AAt?$AAp?$AAu?$AAt?$AA_?$AAp?$AAr?$AAo?$AAc?$AAe@ 004b7348     libucrtd:output.obj
 0002:00005574       ??_C@_1CA@ONEGMNAN@?$AA_?$AAs?$AAt?$AAr?$AAe?$AAa?$AAm?$AA?4?$AAv?$AAa?$AAl?$AAi?$AAd?$AA?$CI?$AA?$CJ?$AA?$AA@ 004b7574     libucrtd:output.obj
 0002:000055a0       ??_C@_1HE@FGKHNBNL@?$AA_?$AA_?$AAc?$AAr?$AAt?$AA_?$AAs?$AAt?$AAd?$AAi?$AAo?$AA_?$AAo?$AAu?$AAt?$AAp?$AAu?$AAt?$AA?3?$AA?3?$AAs?$AAt?$AAr?$AAe?$AAa?$AAm?$AA_?$AAo?$AAu?$AAt?$AAp?$AAu@ 004b75a0     libucrtd:output.obj
 0002:0000562c       ??_C@_1DG@CEJKFDMO@?$AAs?$AAt?$AAa?$AAt?$AAe?$AA_?$AAc?$AAa?$AAs?$AAe?$AA_?$AAn?$AAo?$AAr?$AAm?$AAa?$AAl?$AA_?$AAc?$AAo?$AAm?$AAm?$AAo?$AAn?$AA?$CI?$AA?$CJ?$AA?$AA@ 004b762c     libucrtd:output.obj
 0002:00005670       ??_C@_1BLE@PAACOKDK@?$AA_?$AA_?$AAc?$AAr?$AAt?$AA_?$AAs?$AAt?$AAd?$AAi?$AAo?$AA_?$AAo?$AAu?$AAt?$AAp?$AAu?$AAt?$AA?3?$AA?3?$AAo?$AAu?$AAt?$AAp?$AAu?$AAt?$AA_?$AAp?$AAr?$AAo?$AAc?$AAe@ 004b7670     libucrtd:output.obj
 0002:00005880       ??_C@_1FG@OBJBDPAC@?$AA?$CI?$AA?$CC?$AAN?$AA?5?$AAl?$AAe?$AAn?$AAg?$AAt?$AAh?$AA?5?$AAm?$AAo?$AAd?$AAi?$AAf?$AAi?$AAe?$AAr?$AA?5?$AAn?$AAo?$AAt?$AA?5?$AAs?$AAp?$AAe?$AAc?$AAi?$AAf?$AAi?$AAe@ 004b7880     libucrtd:output.obj
 0002:000058e8       ??_C@_1BLA@GJNGKGIK@?$AA_?$AA_?$AAc?$AAr?$AAt?$AA_?$AAs?$AAt?$AAd?$AAi?$AAo?$AA_?$AAo?$AAu?$AAt?$AAp?$AAu?$AAt?$AA?3?$AA?3?$AAo?$AAu?$AAt?$AAp?$AAu?$AAt?$AA_?$AAp?$AAr?$AAo?$AAc?$AAe@ 004b78e8     libucrtd:output.obj
 0002:00005af0       ??_C@_1EC@GJPNJDCN@?$AA_?$AAl?$AAe?$AAn?$AAg?$AAt?$AAh?$AA?5?$AA?$DN?$AA?$DN?$AA?5?$AAl?$AAe?$AAn?$AAg?$AAt?$AAh?$AA_?$AAm?$AAo?$AAd?$AAi?$AAf?$AAi?$AAe?$AAr?$AA?3?$AA?3?$AAn?$AAo?$AAn?$AAe@ 004b7af0     libucrtd:output.obj
 0002:00005b40       ??_C@_1HK@MPBCDOK@?$AA_?$AA_?$AAc?$AAr?$AAt?$AA_?$AAs?$AAt?$AAd?$AAi?$AAo?$AA_?$AAo?$AAu?$AAt?$AAp?$AAu?$AAt?$AA?3?$AA?3?$AAs?$AAt?$AAr?$AAe?$AAa?$AAm?$AA_?$AAo?$AAu?$AAt?$AAp?$AAu@ 004b7b40     libucrtd:output.obj
 0002:00005bd8       ??_C@_1BMM@JHGFKAND@?$AA_?$AA_?$AAc?$AAr?$AAt?$AA_?$AAs?$AAt?$AAd?$AAi?$AAo?$AA_?$AAo?$AAu?$AAt?$AAp?$AAu?$AAt?$AA?3?$AA?3?$AAo?$AAu?$AAt?$AAp?$AAu?$AAt?$AA_?$AAp?$AAr?$AAo?$AAc?$AAe@ 004b7bd8     libucrtd:output.obj
 0002:00005e00       ??_C@_1BMI@DNMDMAAN@?$AA_?$AA_?$AAc?$AAr?$AAt?$AA_?$AAs?$AAt?$AAd?$AAi?$AAo?$AA_?$AAo?$AAu?$AAt?$AAp?$AAu?$AAt?$AA?3?$AA?3?$AAo?$AAu?$AAt?$AAp?$AAu?$AAt?$AA_?$AAp?$AAr?$AAo?$AAc?$AAe@ 004b7e00     libucrtd:output.obj
 0002:00006028       ??_C@_1BMG@KOENKAMB@?$AA_?$AA_?$AAc?$AAr?$AAt?$AA_?$AAs?$AAt?$AAd?$AAi?$AAo?$AA_?$AAo?$AAu?$AAt?$AAp?$AAu?$AAt?$AA?3?$AA?3?$AAo?$AAu?$AAt?$AAp?$AAu?$AAt?$AA_?$AAp?$AAr?$AAo?$AAc?$AAe@ 004b8028     libucrtd:output.obj
 0002:00006248       ??_C@_1BMC@DAENMDAD@?$AA_?$AA_?$AAc?$AAr?$AAt?$AA_?$AAs?$AAt?$AAd?$AAi?$AAo?$AA_?$AAo?$AAu?$AAt?$AAp?$AAu?$AAt?$AA?3?$AA?3?$AAo?$AAu?$AAt?$AAp?$AAu?$AAt?$AA_?$AAp?$AAr?$AAo?$AAc?$AAe@ 004b8248     libucrtd:output.obj
 0002:00006468       ??_C@_1GC@BNMHNGKM@?$AA_?$AAs?$AAt?$AAa?$AAt?$AAe?$AA?5?$AA?$DN?$AA?$DN?$AA?5?$AAs?$AAt?$AAa?$AAt?$AAe?$AA?3?$AA?3?$AAn?$AAo?$AAr?$AAm?$AAa?$AAl?$AA?5?$AA?$HM?$AA?$HM?$AA?5?$AA_?$AAs?$AAt?$AAa?$AAt@ 004b8468     libucrtd:output.obj
 0002:000064e0       ??_C@_1BDG@PLANJEFE@?$AA_?$AA_?$AAc?$AAr?$AAt?$AA_?$AAs?$AAt?$AAd?$AAi?$AAo?$AA_?$AAo?$AAu?$AAt?$AAp?$AAu?$AAt?$AA?3?$AA?3?$AAf?$AAo?$AAr?$AAm?$AAa?$AAt?$AA_?$AAv?$AAa?$AAl?$AAi?$AAd@ 004b84e0     libucrtd:output.obj
 0002:00006658       ??_C@_1BNO@LMMLJOOJ@?$AA_?$AA_?$AAc?$AAr?$AAt?$AA_?$AAs?$AAt?$AAd?$AAi?$AAo?$AA_?$AAo?$AAu?$AAt?$AAp?$AAu?$AAt?$AA?3?$AA?3?$AAo?$AAu?$AAt?$AAp?$AAu?$AAt?$AA_?$AAp?$AAr?$AAo?$AAc?$AAe@ 004b8658     libucrtd:output.obj
 0002:00006898       ??_C@_1BNK@ONPHCEAM@?$AA_?$AA_?$AAc?$AAr?$AAt?$AA_?$AAs?$AAt?$AAd?$AAi?$AAo?$AA_?$AAo?$AAu?$AAt?$AAp?$AAu?$AAt?$AA?3?$AA?3?$AAo?$AAu?$AAt?$AAp?$AAu?$AAt?$AA_?$AAp?$AAr?$AAo?$AAc?$AAe@ 004b8898     libucrtd:output.obj
 0002:00006ad0       ??_C@_1BEC@FNIGNBHI@?$AA_?$AA_?$AAc?$AAr?$AAt?$AA_?$AAs?$AAt?$AAd?$AAi?$AAo?$AA_?$AAo?$AAu?$AAt?$AAp?$AAu?$AAt?$AA?3?$AA?3?$AAf?$AAo?$AAr?$AAm?$AAa?$AAt?$AA_?$AAv?$AAa?$AAl?$AAi?$AAd@ 004b8ad0     libucrtd:output.obj
 0002:00006c58       ??_C@_1BMM@BLBJDDIA@?$AA_?$AA_?$AAc?$AAr?$AAt?$AA_?$AAs?$AAt?$AAd?$AAi?$AAo?$AA_?$AAo?$AAu?$AAt?$AAp?$AAu?$AAt?$AA?3?$AA?3?$AAo?$AAu?$AAt?$AAp?$AAu?$AAt?$AA_?$AAp?$AAr?$AAo?$AAc?$AAe@ 004b8c58     libucrtd:output.obj
 0002:00006e80       ??_C@_1BMI@PKGBOKJK@?$AA_?$AA_?$AAc?$AAr?$AAt?$AA_?$AAs?$AAt?$AAd?$AAi?$AAo?$AA_?$AAo?$AAu?$AAt?$AAp?$AAu?$AAt?$AA?3?$AA?3?$AAo?$AAu?$AAt?$AAp?$AAu?$AAt?$AA_?$AAp?$AAr?$AAo?$AAc?$AAe@ 004b8e80     libucrtd:output.obj
 0002:000070a8       ??_C@_1FK@BCPANIEK@?$AA?$CI?$AA?$CC?$AAM?$AAi?$AAs?$AAs?$AAi?$AAn?$AAg?$AA?5?$AAp?$AAo?$AAs?$AAi?$AAt?$AAi?$AAo?$AAn?$AA?5?$AAi?$AAn?$AA?5?$AAt?$AAh?$AAe?$AA?5?$AAf?$AAo?$AAr?$AAm?$AAa?$AAt@ 004b90a8     libucrtd:output.obj
 0002:00007118       ??_C@_1BDM@FDOLKCHK@?$AA_?$AA_?$AAc?$AAr?$AAt?$AA_?$AAs?$AAt?$AAd?$AAi?$AAo?$AA_?$AAo?$AAu?$AAt?$AAp?$AAu?$AAt?$AA?3?$AA?3?$AAp?$AAo?$AAs?$AAi?$AAt?$AAi?$AAo?$AAn?$AAa?$AAl?$AA_?$AAp@ 004b9118     libucrtd:output.obj
 0002:00007298       ??_C@_1IC@NLEOMCDL@?$AA_?$AAt?$AAy?$AAp?$AAe?$AA_?$AAi?$AAn?$AAd?$AAe?$AAx?$AA?5?$AA?$DO?$AA?$DN?$AA?5?$AA0?$AA?5?$AA?$CG?$AA?$CG?$AA?5?$AA?$CK?$AAe?$AAn?$AAd?$AA_?$AAp?$AAo?$AAi?$AAn?$AAt?$AAe?$AAr@ 004b9298     libucrtd:output.obj
 0002:00007338       ??_C@_1BEO@JEHLMMKB@?$AA_?$AA_?$AAc?$AAr?$AAt?$AA_?$AAs?$AAt?$AAd?$AAi?$AAo?$AA_?$AAo?$AAu?$AAt?$AAp?$AAu?$AAt?$AA?3?$AA?3?$AAp?$AAo?$AAs?$AAi?$AAt?$AAi?$AAo?$AAn?$AAa?$AAl?$AA_?$AAp@ 004b9338     libucrtd:output.obj
 0002:000074c8       ??_C@_1BOE@NLICFINO@?$AA_?$AA_?$AAc?$AAr?$AAt?$AA_?$AAs?$AAt?$AAd?$AAi?$AAo?$AA_?$AAo?$AAu?$AAt?$AAp?$AAu?$AAt?$AA?3?$AA?3?$AAo?$AAu?$AAt?$AAp?$AAu?$AAt?$AA_?$AAp?$AAr?$AAo?$AAc?$AAe@ 004b94c8     libucrtd:output.obj
 0002:00007710       ??_C@_1BOA@CBIEMBEE@?$AA_?$AA_?$AAc?$AAr?$AAt?$AA_?$AAs?$AAt?$AAd?$AAi?$AAo?$AA_?$AAo?$AAu?$AAt?$AAp?$AAu?$AAt?$AA?3?$AA?3?$AAo?$AAu?$AAt?$AAp?$AAu?$AAt?$AA_?$AAp?$AAr?$AAo?$AAc?$AAe@ 004b9710     libucrtd:output.obj
 0002:00007950       ??_C@_1BEI@JNJAFAD@?$AA_?$AA_?$AAc?$AAr?$AAt?$AA_?$AAs?$AAt?$AAd?$AAi?$AAo?$AA_?$AAo?$AAu?$AAt?$AAp?$AAu?$AAt?$AA?3?$AA?3?$AAp?$AAo?$AAs?$AAi?$AAt?$AAi?$AAo?$AAn?$AAa?$AAl?$AA_?$AAp@ 004b9950     libucrtd:output.obj
 0002:00007ae0       ??_C@_1BFK@IOIDDMPJ@?$AA_?$AA_?$AAc?$AAr?$AAt?$AA_?$AAs?$AAt?$AAd?$AAi?$AAo?$AA_?$AAo?$AAu?$AAt?$AAp?$AAu?$AAt?$AA?3?$AA?3?$AAp?$AAo?$AAs?$AAi?$AAt?$AAi?$AAo?$AAn?$AAa?$AAl?$AA_?$AAp@ 004b9ae0     libucrtd:output.obj
 0002:00007c80       ??_C@_1CI@DDKMNCPP@?$AA_?$AAc?$AAo?$AAn?$AAt?$AAe?$AAx?$AAt?$AA?5?$AA?$CB?$AA?$DN?$AA?5?$AAn?$AAu?$AAl?$AAl?$AAp?$AAt?$AAr?$AA?$AA@ 004b9c80     libucrtd:output.obj
 0002:00007cb0       ??_C@_1HE@IACOMEJF@?$AA_?$AA_?$AAc?$AAr?$AAt?$AA_?$AAs?$AAt?$AAd?$AAi?$AAo?$AA_?$AAo?$AAu?$AAt?$AAp?$AAu?$AAt?$AA?3?$AA?3?$AAs?$AAt?$AAr?$AAi?$AAn?$AAg?$AA_?$AAo?$AAu?$AAt?$AAp?$AAu@ 004b9cb0     libucrtd:output.obj
 0002:00007d40       ??_C@_1BLE@LCKPBJON@?$AA_?$AA_?$AAc?$AAr?$AAt?$AA_?$AAs?$AAt?$AAd?$AAi?$AAo?$AA_?$AAo?$AAu?$AAt?$AAp?$AAu?$AAt?$AA?3?$AA?3?$AAo?$AAu?$AAt?$AAp?$AAu?$AAt?$AA_?$AAp?$AAr?$AAo?$AAc?$AAe@ 004b9d40     libucrtd:output.obj
 0002:00007f50       ??_C@_1BLA@MEDMHIOH@?$AA_?$AA_?$AAc?$AAr?$AAt?$AA_?$AAs?$AAt?$AAd?$AAi?$AAo?$AA_?$AAo?$AAu?$AAt?$AAp?$AAu?$AAt?$AA?3?$AA?3?$AAo?$AAu?$AAt?$AAp?$AAu?$AAt?$AA_?$AAp?$AAr?$AAo?$AAc?$AAe@ 004b9f50     libucrtd:output.obj
 0002:00008158       ??_C@_1HK@IIPGOADH@?$AA_?$AA_?$AAc?$AAr?$AAt?$AA_?$AAs?$AAt?$AAd?$AAi?$AAo?$AA_?$AAo?$AAu?$AAt?$AAp?$AAu?$AAt?$AA?3?$AA?3?$AAs?$AAt?$AAr?$AAi?$AAn?$AAg?$AA_?$AAo?$AAu?$AAt?$AAp?$AAu@ 004ba158     libucrtd:output.obj
 0002:000081f0       ??_C@_1BMM@PGHHMNDM@?$AA_?$AA_?$AAc?$AAr?$AAt?$AA_?$AAs?$AAt?$AAd?$AAi?$AAo?$AA_?$AAo?$AAu?$AAt?$AAp?$AAu?$AAt?$AA?3?$AA?3?$AAo?$AAu?$AAt?$AAp?$AAu?$AAt?$AA_?$AAp?$AAr?$AAo?$AAc?$AAe@ 004ba1f0     libucrtd:output.obj
 0002:00008418       ??_C@_1BMI@KBPJOJJI@?$AA_?$AA_?$AAc?$AAr?$AAt?$AA_?$AAs?$AAt?$AAd?$AAi?$AAo?$AA_?$AAo?$AAu?$AAt?$AAp?$AAu?$AAt?$AA?3?$AA?3?$AAo?$AAu?$AAt?$AAp?$AAu?$AAt?$AA_?$AAp?$AAr?$AAo?$AAc?$AAe@ 004ba418     libucrtd:output.obj
 0002:00008640       ??_C@_1BMM@JGEKEBKL@?$AA_?$AA_?$AAc?$AAr?$AAt?$AA_?$AAs?$AAt?$AAd?$AAi?$AAo?$AA_?$AAo?$AAu?$AAt?$AAp?$AAu?$AAt?$AA?3?$AA?3?$AAo?$AAu?$AAt?$AAp?$AAu?$AAt?$AA_?$AAp?$AAr?$AAo?$AAc?$AAe@ 004ba640     libucrtd:output.obj
 0002:00008868       ??_C@_1BMI@LKDDDFDL@?$AA_?$AA_?$AAc?$AAr?$AAt?$AA_?$AAs?$AAt?$AAd?$AAi?$AAo?$AA_?$AAo?$AAu?$AAt?$AAp?$AAu?$AAt?$AA?3?$AA?3?$AAo?$AAu?$AAt?$AAp?$AAu?$AAt?$AA_?$AAp?$AAr?$AAo?$AAc?$AAe@ 004ba868     libucrtd:output.obj
 0002:00008a90       ??_C@_1BDM@GFCGMNL@?$AA_?$AA_?$AAc?$AAr?$AAt?$AA_?$AAs?$AAt?$AAd?$AAi?$AAo?$AA_?$AAo?$AAu?$AAt?$AAp?$AAu?$AAt?$AA?3?$AA?3?$AAp?$AAo?$AAs?$AAi?$AAt?$AAi?$AAo?$AAn?$AAa?$AAl?$AA_?$AAp@ 004baa90     libucrtd:output.obj
 0002:00008c10       ??_C@_1BEO@ODGKIOAL@?$AA_?$AA_?$AAc?$AAr?$AAt?$AA_?$AAs?$AAt?$AAd?$AAi?$AAo?$AA_?$AAo?$AAu?$AAt?$AAp?$AAu?$AAt?$AA?3?$AA?3?$AAp?$AAo?$AAs?$AAi?$AAt?$AAi?$AAo?$AAn?$AAa?$AAl?$AA_?$AAp@ 004bac10     libucrtd:output.obj
 0002:00008da0       ??_C@_1BOE@IPKNNOEE@?$AA_?$AA_?$AAc?$AAr?$AAt?$AA_?$AAs?$AAt?$AAd?$AAi?$AAo?$AA_?$AAo?$AAu?$AAt?$AAp?$AAu?$AAt?$AA?3?$AA?3?$AAo?$AAu?$AAt?$AAp?$AAu?$AAt?$AA_?$AAp?$AAr?$AAo?$AAc?$AAe@ 004bada0     libucrtd:output.obj
 0002:00008fe8       ??_C@_1BOA@BMEGDMHF@?$AA_?$AA_?$AAc?$AAr?$AAt?$AA_?$AAs?$AAt?$AAd?$AAi?$AAo?$AA_?$AAo?$AAu?$AAt?$AAp?$AAu?$AAt?$AA?3?$AA?3?$AAo?$AAu?$AAt?$AAp?$AAu?$AAt?$AA_?$AAp?$AAr?$AAo?$AAc?$AAe@ 004bafe8     libucrtd:output.obj
 0002:00009228       ??_C@_1BEI@IHLBHMLJ@?$AA_?$AA_?$AAc?$AAr?$AAt?$AA_?$AAs?$AAt?$AAd?$AAi?$AAo?$AA_?$AAo?$AAu?$AAt?$AAp?$AAu?$AAt?$AA?3?$AA?3?$AAp?$AAo?$AAs?$AAi?$AAt?$AAi?$AAo?$AAn?$AAa?$AAl?$AA_?$AAp@ 004bb228     libucrtd:output.obj
 0002:000093b8       ??_C@_1BFK@KNCMELHH@?$AA_?$AA_?$AAc?$AAr?$AAt?$AA_?$AAs?$AAt?$AAd?$AAi?$AAo?$AA_?$AAo?$AAu?$AAt?$AAp?$AAu?$AAt?$AA?3?$AA?3?$AAp?$AAo?$AAs?$AAi?$AAt?$AAi?$AAo?$AAn?$AAa?$AAl?$AA_?$AAp@ 004bb3b8     libucrtd:output.obj
 0002:00009558       ??_C@_1EK@PNGFDECN@?$AA?$CI?$AA?$CC?$AA?8?$AAn?$AA?8?$AA?5?$AAf?$AAo?$AAr?$AAm?$AAa?$AAt?$AA?5?$AAs?$AAp?$AAe?$AAc?$AAi?$AAf?$AAi?$AAe?$AAr?$AA?5?$AAd?$AAi?$AAs?$AAa?$AAb?$AAl?$AAe?$AAd?$AA?$CC@ 004bb558     libucrtd:output.obj
 0002:000095b0       ??_C@_1BKI@NDKBCDGP@?$AA_?$AA_?$AAc?$AAr?$AAt?$AA_?$AAs?$AAt?$AAd?$AAi?$AAo?$AA_?$AAo?$AAu?$AAt?$AAp?$AAu?$AAt?$AA?3?$AA?3?$AAo?$AAu?$AAt?$AAp?$AAu?$AAt?$AA_?$AAp?$AAr?$AAo?$AAc?$AAe@ 004bb5b0     libucrtd:output.obj
 0002:000097b0       ??_C@_1EO@GHKFGFKL@?$AA?$CI?$AA?$CC?$AAI?$AAn?$AAv?$AAa?$AAl?$AAi?$AAd?$AA?5?$AAi?$AAn?$AAt?$AAe?$AAg?$AAe?$AAr?$AA?5?$AAl?$AAe?$AAn?$AAg?$AAt?$AAh?$AA?5?$AAm?$AAo?$AAd?$AAi?$AAf?$AAi?$AAe@ 004bb7b0     libucrtd:output.obj
 0002:00009810       ??_C@_1BMA@PGOJAHFP@?$AA_?$AA_?$AAc?$AAr?$AAt?$AA_?$AAs?$AAt?$AAd?$AAi?$AAo?$AA_?$AAo?$AAu?$AAt?$AAp?$AAu?$AAt?$AA?3?$AA?3?$AAo?$AAu?$AAt?$AAp?$AAu?$AAt?$AA_?$AAp?$AAr?$AAo?$AAc?$AAe@ 004bb810     libucrtd:output.obj
 0002:00009a30       ??_C@_1BLK@BGFMMAPO@?$AA_?$AA_?$AAc?$AAr?$AAt?$AA_?$AAs?$AAt?$AAd?$AAi?$AAo?$AA_?$AAo?$AAu?$AAt?$AAp?$AAu?$AAt?$AA?3?$AA?3?$AAo?$AAu?$AAt?$AAp?$AAu?$AAt?$AA_?$AAp?$AAr?$AAo?$AAc?$AAe@ 004bba30     libucrtd:output.obj
 0002:00009c48       ??_C@_1BNC@DONELHFF@?$AA_?$AA_?$AAc?$AAr?$AAt?$AA_?$AAs?$AAt?$AAd?$AAi?$AAo?$AA_?$AAo?$AAu?$AAt?$AAp?$AAu?$AAt?$AA?3?$AA?3?$AAo?$AAu?$AAt?$AAp?$AAu?$AAt?$AA_?$AAp?$AAr?$AAo?$AAc?$AAe@ 004bbc48     libucrtd:output.obj
 0002:00009e78       ??_C@_1BMA@GACGPGHN@?$AA_?$AA_?$AAc?$AAr?$AAt?$AA_?$AAs?$AAt?$AAd?$AAi?$AAo?$AA_?$AAo?$AAu?$AAt?$AAp?$AAu?$AAt?$AA?3?$AA?3?$AAo?$AAu?$AAt?$AAp?$AAu?$AAt?$AA_?$AAp?$AAr?$AAo?$AAc?$AAe@ 004bbe78     libucrtd:output.obj
 0002:0000a098       ??_C@_1IC@KGDNLBNC@?$AAw?$AAi?$AAd?$AAt?$AAh?$AA_?$AAi?$AAn?$AAd?$AAe?$AAx?$AA?5?$AA?$DO?$AA?$DN?$AA?5?$AA0?$AA?5?$AA?$CG?$AA?$CG?$AA?5?$AA?$CK?$AAe?$AAn?$AAd?$AA_?$AAp?$AAo?$AAi?$AAn?$AAt?$AAe?$AAr@ 004bc098     libucrtd:output.obj
 0002:0000a138       ??_C@_1PO@LKIIANED@?$AA_?$AA_?$AAc?$AAr?$AAt?$AA_?$AAs?$AAt?$AAd?$AAi?$AAo?$AA_?$AAo?$AAu?$AAt?$AAp?$AAu?$AAt?$AA?3?$AA?3?$AAp?$AAo?$AAs?$AAi?$AAt?$AAi?$AAo?$AAn?$AAa?$AAl?$AA_?$AAp@ 004bc138     libucrtd:output.obj
 0002:0000a268       ??_C@_1JC@PMCLKCOC@?$AAp?$AAr?$AAe?$AAc?$AAi?$AAs?$AAi?$AAo?$AAn?$AA_?$AAi?$AAn?$AAd?$AAe?$AAx?$AA?5?$AA?$DO?$AA?$DN?$AA?5?$AA0?$AA?5?$AA?$CG?$AA?$CG?$AA?5?$AA?$CK?$AAe?$AAn?$AAd?$AA_?$AAp?$AAo?$AAi@ 004bc268     libucrtd:output.obj
 0002:0000a318       ??_C@_1PK@KBJECIEM@?$AA_?$AA_?$AAc?$AAr?$AAt?$AA_?$AAs?$AAt?$AAd?$AAi?$AAo?$AA_?$AAo?$AAu?$AAt?$AAp?$AAu?$AAt?$AA?3?$AA?3?$AAp?$AAo?$AAs?$AAi?$AAt?$AAi?$AAo?$AAn?$AAa?$AAl?$AA_?$AAp@ 004bc318     libucrtd:output.obj
 0002:0000a448       ??_C@_1BNI@IMOCDBNE@?$AA_?$AA_?$AAc?$AAr?$AAt?$AA_?$AAs?$AAt?$AAd?$AAi?$AAo?$AA_?$AAo?$AAu?$AAt?$AAp?$AAu?$AAt?$AA?3?$AA?3?$AAo?$AAu?$AAt?$AAp?$AAu?$AAt?$AA_?$AAp?$AAr?$AAo?$AAc?$AAe@ 004bc448     libucrtd:output.obj
 0002:0000a680       ??_C@_1BAK@DALINHHB@?$AA_?$AA_?$AAc?$AAr?$AAt?$AA_?$AAs?$AAt?$AAd?$AAi?$AAo?$AA_?$AAo?$AAu?$AAt?$AAp?$AAu?$AAt?$AA?3?$AA?3?$AAp?$AAo?$AAs?$AAi?$AAt?$AAi?$AAo?$AAn?$AAa?$AAl?$AA_?$AAp@ 004bc680     libucrtd:output.obj
 0002:0000a7c0       ??_C@_1BAG@DOFNHDMF@?$AA_?$AA_?$AAc?$AAr?$AAt?$AA_?$AAs?$AAt?$AAd?$AAi?$AAo?$AA_?$AAo?$AAu?$AAt?$AAp?$AAu?$AAt?$AA?3?$AA?3?$AAp?$AAo?$AAs?$AAi?$AAt?$AAi?$AAo?$AAn?$AAa?$AAl?$AA_?$AAp@ 004bc7c0     libucrtd:output.obj
 0002:0000a900       ??_C@_1BKI@CJEIGDAI@?$AA_?$AA_?$AAc?$AAr?$AAt?$AA_?$AAs?$AAt?$AAd?$AAi?$AAo?$AA_?$AAo?$AAu?$AAt?$AAp?$AAu?$AAt?$AA?3?$AA?3?$AAo?$AAu?$AAt?$AAp?$AAu?$AAt?$AA_?$AAp?$AAr?$AAo?$AAc?$AAe@ 004bc900     libucrtd:output.obj
 0002:0000ab00       ??_C@_1BMA@IHIBOLMD@?$AA_?$AA_?$AAc?$AAr?$AAt?$AA_?$AAs?$AAt?$AAd?$AAi?$AAo?$AA_?$AAo?$AAu?$AAt?$AAp?$AAu?$AAt?$AA?3?$AA?3?$AAo?$AAu?$AAt?$AAp?$AAu?$AAt?$AA_?$AAp?$AAr?$AAo?$AAc?$AAe@ 004bcb00     libucrtd:output.obj
 0002:0000ad20       ??_C@_1BMA@CBPCAOAB@?$AA_?$AA_?$AAc?$AAr?$AAt?$AA_?$AAs?$AAt?$AAd?$AAi?$AAo?$AA_?$AAo?$AAu?$AAt?$AAp?$AAu?$AAt?$AA?3?$AA?3?$AAo?$AAu?$AAt?$AAp?$AAu?$AAt?$AA_?$AAp?$AAr?$AAo?$AAc?$AAe@ 004bcd20     libucrtd:output.obj
 0002:0000af40       ??_C@_1PO@PODEJAGE@?$AA_?$AA_?$AAc?$AAr?$AAt?$AA_?$AAs?$AAt?$AAd?$AAi?$AAo?$AA_?$AAo?$AAu?$AAt?$AAp?$AAu?$AAt?$AA?3?$AA?3?$AAp?$AAo?$AAs?$AAi?$AAt?$AAi?$AAo?$AAn?$AAa?$AAl?$AA_?$AAp@ 004bcf40     libucrtd:output.obj
 0002:0000b070       ??_C@_1PK@KBJLALII@?$AA_?$AA_?$AAc?$AAr?$AAt?$AA_?$AAs?$AAt?$AAd?$AAi?$AAo?$AA_?$AAo?$AAu?$AAt?$AAp?$AAu?$AAt?$AA?3?$AA?3?$AAp?$AAo?$AAs?$AAi?$AAt?$AAi?$AAo?$AAn?$AAa?$AAl?$AA_?$AAp@ 004bd070     libucrtd:output.obj
 0002:0000b1a0       ??_C@_1BDG@KOLEFKPF@?$AA_?$AA_?$AAc?$AAr?$AAt?$AA_?$AAs?$AAt?$AAd?$AAi?$AAo?$AA_?$AAo?$AAu?$AAt?$AAp?$AAu?$AAt?$AA?3?$AA?3?$AAf?$AAo?$AAr?$AAm?$AAa?$AAt?$AA_?$AAv?$AAa?$AAl?$AAi?$AAd@ 004bd1a0     libucrtd:output.obj
 0002:0000b318       ??_C@_1BNI@OPBGCNOB@?$AA_?$AA_?$AAc?$AAr?$AAt?$AA_?$AAs?$AAt?$AAd?$AAi?$AAo?$AA_?$AAo?$AAu?$AAt?$AAp?$AAu?$AAt?$AA?3?$AA?3?$AAo?$AAu?$AAt?$AAp?$AAu?$AAt?$AA_?$AAp?$AAr?$AAo?$AAc?$AAe@ 004bd318     libucrtd:output.obj
 0002:0000b550       ??_C@_1BAK@CDLANFGA@?$AA_?$AA_?$AAc?$AAr?$AAt?$AA_?$AAs?$AAt?$AAd?$AAi?$AAo?$AA_?$AAo?$AAu?$AAt?$AAp?$AAu?$AAt?$AA?3?$AA?3?$AAp?$AAo?$AAs?$AAi?$AAt?$AAi?$AAo?$AAn?$AAa?$AAl?$AA_?$AAp@ 004bd550     libucrtd:output.obj
 0002:0000b690       ??_C@_1BAG@GKCGGKOF@?$AA_?$AA_?$AAc?$AAr?$AAt?$AA_?$AAs?$AAt?$AAd?$AAi?$AAo?$AA_?$AAo?$AAu?$AAt?$AAp?$AAu?$AAt?$AA?3?$AA?3?$AAp?$AAo?$AAs?$AAi?$AAt?$AAi?$AAo?$AAn?$AAa?$AAl?$AA_?$AAp@ 004bd690     libucrtd:output.obj
 0002:0000b7d0       ??_C@_1BEC@NDOOKIMC@?$AA_?$AA_?$AAc?$AAr?$AAt?$AA_?$AAs?$AAt?$AAd?$AAi?$AAo?$AA_?$AAo?$AAu?$AAt?$AAp?$AAu?$AAt?$AA?3?$AA?3?$AAf?$AAo?$AAr?$AAm?$AAa?$AAt?$AA_?$AAv?$AAa?$AAl?$AAi?$AAd@ 004bd7d0     libucrtd:output.obj
 0002:0000b954       ??_C@_1CK@LGDCECDH@?$AA_?$AAf?$AAo?$AAr?$AAm?$AAa?$AAt?$AA_?$AAc?$AAh?$AAa?$AAr?$AA?5?$AA?$CB?$AA?$DN?$AA?5?$AA?8?$AA?2?$AA0?$AA?8?$AA?$AA@ 004bd954     libucrtd:output.obj
 0002:0000b988       ??_C@_1BMA@MEBEEDJE@?$AA_?$AA_?$AAc?$AAr?$AAt?$AA_?$AAs?$AAt?$AAd?$AAi?$AAo?$AA_?$AAo?$AAu?$AAt?$AAp?$AAu?$AAt?$AA?3?$AA?3?$AAo?$AAu?$AAt?$AAp?$AAu?$AAt?$AA_?$AAp?$AAr?$AAo?$AAc?$AAe@ 004bd988     libucrtd:output.obj
 0002:0000bba8       ??_C@_1BLE@MHLEAOID@?$AA_?$AA_?$AAc?$AAr?$AAt?$AA_?$AAs?$AAt?$AAd?$AAi?$AAo?$AA_?$AAo?$AAu?$AAt?$AAp?$AAu?$AAt?$AA?3?$AA?3?$AAo?$AAu?$AAt?$AAp?$AAu?$AAt?$AA_?$AAp?$AAr?$AAo?$AAc?$AAe@ 004bdba8     libucrtd:output.obj
 0002:0000bdb4       ??_C@_06OJHGLDPL@?$CInull?$CJ?$AA@ 004bddb4     libucrtd:output.obj
 0002:0000bdbc       ??_C@_1O@CEDCILHN@?$AA?$CI?$AAn?$AAu?$AAl?$AAl?$AA?$CJ?$AA?$AA@ 004bddbc     libucrtd:output.obj
 0002:0000bdd0       ??_C@_1BMM@KANDEEGK@?$AA_?$AA_?$AAc?$AAr?$AAt?$AA_?$AAs?$AAt?$AAd?$AAi?$AAo?$AA_?$AAo?$AAu?$AAt?$AAp?$AAu?$AAt?$AA?3?$AA?3?$AAo?$AAu?$AAt?$AAp?$AAu?$AAt?$AA_?$AAp?$AAr?$AAo?$AAc?$AAe@ 004bddd0     libucrtd:output.obj
 0002:0000bff8       ??_C@_1BNC@BAMNIOCM@?$AA_?$AA_?$AAc?$AAr?$AAt?$AA_?$AAs?$AAt?$AAd?$AAi?$AAo?$AA_?$AAo?$AAu?$AAt?$AAp?$AAu?$AAt?$AA?3?$AA?3?$AAo?$AAu?$AAt?$AAp?$AAu?$AAt?$AA_?$AAp?$AAr?$AAo?$AAc?$AAe@ 004bdff8     libucrtd:output.obj
 0002:0000c228       ??_C@_1BMG@JJPLEEHI@?$AA_?$AA_?$AAc?$AAr?$AAt?$AA_?$AAs?$AAt?$AAd?$AAi?$AAo?$AA_?$AAo?$AAu?$AAt?$AAp?$AAu?$AAt?$AA?3?$AA?3?$AAo?$AAu?$AAt?$AAp?$AAu?$AAt?$AA_?$AAp?$AAr?$AAo?$AAc?$AAe@ 004be228     libucrtd:output.obj
 0002:0000c448       ??_C@_1BNO@ILHNHKFA@?$AA_?$AA_?$AAc?$AAr?$AAt?$AA_?$AAs?$AAt?$AAd?$AAi?$AAo?$AA_?$AAo?$AAu?$AAt?$AAp?$AAu?$AAt?$AA?3?$AA?3?$AAo?$AAu?$AAt?$AAp?$AAu?$AAt?$AA_?$AAp?$AAr?$AAo?$AAc?$AAe@ 004be448     libucrtd:output.obj
 0002:0000c688       ??_C@_1BNI@EJPCEBAG@?$AA_?$AA_?$AAc?$AAr?$AAt?$AA_?$AAs?$AAt?$AAd?$AAi?$AAo?$AA_?$AAo?$AAu?$AAt?$AAp?$AAu?$AAt?$AA?3?$AA?3?$AAo?$AAu?$AAt?$AAp?$AAu?$AAt?$AA_?$AAp?$AAr?$AAo?$AAc?$AAe@ 004be688     libucrtd:output.obj
 0002:0000c8c0       ??_C@_1BMM@CMKPNHDJ@?$AA_?$AA_?$AAc?$AAr?$AAt?$AA_?$AAs?$AAt?$AAd?$AAi?$AAo?$AA_?$AAo?$AAu?$AAt?$AAp?$AAu?$AAt?$AA?3?$AA?3?$AAo?$AAu?$AAt?$AAp?$AAu?$AAt?$AA_?$AAp?$AAr?$AAo?$AAc?$AAe@ 004be8c0     libucrtd:output.obj
 0002:0000cae8       ??_C@_1FE@IAFJEKN@?$AA_?$AAt?$AAy?$AAp?$AAe?$AA_?$AAi?$AAn?$AAd?$AAe?$AAx?$AA?5?$AA?$DO?$AA?$DN?$AA?5?$AA0?$AA?5?$AA?$CG?$AA?$CG?$AA?5?$AA_?$AAt?$AAy?$AAp?$AAe?$AA_?$AAi?$AAn?$AAd?$AAe?$AAx?$AA?5@ 004beae8     libucrtd:output.obj
 0002:0000cb50       ??_C@_1BBG@JLLDGFML@?$AA_?$AA_?$AAc?$AAr?$AAt?$AA_?$AAs?$AAt?$AAd?$AAi?$AAo?$AA_?$AAo?$AAu?$AAt?$AAp?$AAu?$AAt?$AA?3?$AA?3?$AAp?$AAo?$AAs?$AAi?$AAt?$AAi?$AAo?$AAn?$AAa?$AAl?$AA_?$AAp@ 004beb50     libucrtd:output.obj
 0002:0000cca0       ??_C@_1LO@HECDHMMI@?$AAi?$AAs?$AA_?$AAp?$AAo?$AAs?$AAi?$AAt?$AAi?$AAo?$AAn?$AAa?$AAl?$AA_?$AAp?$AAa?$AAr?$AAa?$AAm?$AAe?$AAt?$AAe?$AAr?$AA_?$AAr?$AAe?$AAa?$AAp?$AAp?$AAe?$AAa?$AAr@ 004beca0     libucrtd:output.obj
 0002:0000cd88       ??_C@_1BBM@LLHBCDAF@?$AA_?$AA_?$AAc?$AAr?$AAt?$AA_?$AAs?$AAt?$AAd?$AAi?$AAo?$AA_?$AAo?$AAu?$AAt?$AAp?$AAu?$AAt?$AA?3?$AA?3?$AAp?$AAo?$AAs?$AAi?$AAt?$AAi?$AAo?$AAn?$AAa?$AAl?$AA_?$AAp@ 004bed88     libucrtd:output.obj
 0002:0000cee0       ??_C@_1BOE@OMDELMGH@?$AA_?$AA_?$AAc?$AAr?$AAt?$AA_?$AAs?$AAt?$AAd?$AAi?$AAo?$AA_?$AAo?$AAu?$AAt?$AAp?$AAu?$AAt?$AA?3?$AA?3?$AAo?$AAu?$AAt?$AAp?$AAu?$AAt?$AA_?$AAp?$AAr?$AAo?$AAc?$AAe@ 004beee0     libucrtd:output.obj
 0002:0000d128       ??_C@_1BCC@PDNLFIHK@?$AA_?$AA_?$AAc?$AAr?$AAt?$AA_?$AAs?$AAt?$AAd?$AAi?$AAo?$AA_?$AAo?$AAu?$AAt?$AAp?$AAu?$AAt?$AA?3?$AA?3?$AAp?$AAo?$AAs?$AAi?$AAt?$AAi?$AAo?$AAn?$AAa?$AAl?$AA_?$AAp@ 004bf128     libucrtd:output.obj
 0002:0000d288       ??_C@_1BCI@ILAANKJG@?$AA_?$AA_?$AAc?$AAr?$AAt?$AA_?$AAs?$AAt?$AAd?$AAi?$AAo?$AA_?$AAo?$AAu?$AAt?$AAp?$AAu?$AAt?$AA?3?$AA?3?$AAp?$AAo?$AAs?$AAi?$AAt?$AAi?$AAo?$AAn?$AAa?$AAl?$AA_?$AAp@ 004bf288     libucrtd:output.obj
 0002:0000d3f0       ??_C@_1BMA@FANDDEHK@?$AA_?$AA_?$AAc?$AAr?$AAt?$AA_?$AAs?$AAt?$AAd?$AAi?$AAo?$AA_?$AAo?$AAu?$AAt?$AAp?$AAu?$AAt?$AA?3?$AA?3?$AAo?$AAu?$AAt?$AAp?$AAu?$AAt?$AA_?$AAp?$AAr?$AAo?$AAc?$AAe@ 004bf3f0     libucrtd:output.obj
 0002:0000d610       ??_C@_1BLE@IFBJPNFE@?$AA_?$AA_?$AAc?$AAr?$AAt?$AA_?$AAs?$AAt?$AAd?$AAi?$AAo?$AA_?$AAo?$AAu?$AAt?$AAp?$AAu?$AAt?$AA?3?$AA?3?$AAo?$AAu?$AAt?$AAp?$AAu?$AAt?$AA_?$AAp?$AAr?$AAo?$AAc?$AAe@ 004bf610     libucrtd:output.obj
 0002:0000d820       ??_C@_1BMM@MBMBCJIF@?$AA_?$AA_?$AAc?$AAr?$AAt?$AA_?$AAs?$AAt?$AAd?$AAi?$AAo?$AA_?$AAo?$AAu?$AAt?$AAp?$AAu?$AAt?$AA?3?$AA?3?$AAo?$AAu?$AAt?$AAp?$AAu?$AAt?$AA_?$AAp?$AAr?$AAo?$AAc?$AAe@ 004bf820     libucrtd:output.obj
 0002:0000da48       ??_C@_1BNI@EDCGAPJB@?$AA_?$AA_?$AAc?$AAr?$AAt?$AA_?$AAs?$AAt?$AAd?$AAi?$AAo?$AA_?$AAo?$AAu?$AAt?$AAp?$AAu?$AAt?$AA?3?$AA?3?$AAo?$AAu?$AAt?$AAp?$AAu?$AAt?$AA_?$AAp?$AAr?$AAo?$AAc?$AAe@ 004bfa48     libucrtd:output.obj
 0002:0000dc80       ??_C@_1BMM@KBPMKFBC@?$AA_?$AA_?$AAc?$AAr?$AAt?$AA_?$AAs?$AAt?$AAd?$AAi?$AAo?$AA_?$AAo?$AAu?$AAt?$AAp?$AAu?$AAt?$AA?3?$AA?3?$AAo?$AAu?$AAt?$AAp?$AAu?$AAt?$AA_?$AAp?$AAr?$AAo?$AAc?$AAe@ 004bfc80     libucrtd:output.obj
 0002:0000dea8       ??_C@_1BBG@KIHCHFIM@?$AA_?$AA_?$AAc?$AAr?$AAt?$AA_?$AAs?$AAt?$AAd?$AAi?$AAo?$AA_?$AAo?$AAu?$AAt?$AAp?$AAu?$AAt?$AA?3?$AA?3?$AAp?$AAo?$AAs?$AAi?$AAt?$AAi?$AAo?$AAn?$AAa?$AAl?$AA_?$AAp@ 004bfea8     libucrtd:output.obj
 0002:0000dff8       ??_C@_1BBM@CBBAFMPJ@?$AA_?$AA_?$AAc?$AAr?$AAt?$AA_?$AAs?$AAt?$AAd?$AAi?$AAo?$AA_?$AAo?$AAu?$AAt?$AAp?$AAu?$AAt?$AA?3?$AA?3?$AAp?$AAo?$AAs?$AAi?$AAt?$AAi?$AAo?$AAn?$AAa?$AAl?$AA_?$AAp@ 004bfff8     libucrtd:output.obj
 0002:0000e150       ??_C@_1BOE@LIBLDKPN@?$AA_?$AA_?$AAc?$AAr?$AAt?$AA_?$AAs?$AAt?$AAd?$AAi?$AAo?$AA_?$AAo?$AAu?$AAt?$AAp?$AAu?$AAt?$AA?3?$AA?3?$AAo?$AAu?$AAt?$AAp?$AAu?$AAt?$AA_?$AAp?$AAr?$AAo?$AAc?$AAe@ 004c0150     libucrtd:output.obj
 0002:0000e398       ??_C@_1BCC@GJLKCHIG@?$AA_?$AA_?$AAc?$AAr?$AAt?$AA_?$AAs?$AAt?$AAd?$AAi?$AAo?$AA_?$AAo?$AAu?$AAt?$AAp?$AAu?$AAt?$AA?3?$AA?3?$AAp?$AAo?$AAs?$AAi?$AAt?$AAi?$AAo?$AAn?$AAa?$AAl?$AA_?$AAp@ 004c0398     libucrtd:output.obj
 0002:0000e4f8       ??_C@_1BCI@OBMMNJKK@?$AA_?$AA_?$AAc?$AAr?$AAt?$AA_?$AAs?$AAt?$AAd?$AAi?$AAo?$AA_?$AAo?$AAu?$AAt?$AAp?$AAu?$AAt?$AA?3?$AA?3?$AAp?$AAo?$AAs?$AAi?$AAt?$AAi?$AAo?$AAn?$AAa?$AAl?$AA_?$AAp@ 004c04f8     libucrtd:output.obj
 0002:0000e65c       ??_C@_0DI@KIFBHMNO@minkernel?2crts?2ucrt?2inc?2corecrt_@ 004c065c     libucrtd:output.obj
 0002:0000e6a0       ??_C@_1BBE@FLKADCDA@?$AA_?$AA_?$AAc?$AAr?$AAt?$AA_?$AAs?$AAt?$AAd?$AAi?$AAo?$AA_?$AAo?$AAu?$AAt?$AAp?$AAu?$AAt?$AA?3?$AA?3?$AAp?$AAo?$AAs?$AAi?$AAt?$AAi?$AAo?$AAn?$AAa?$AAl?$AA_?$AAp@ 004c06a0     libucrtd:output.obj
 0002:0000e7f0       ??_C@_1BCA@FCGNBIN@?$AA_?$AA_?$AAc?$AAr?$AAt?$AA_?$AAs?$AAt?$AAd?$AAi?$AAo?$AA_?$AAo?$AAu?$AAt?$AAp?$AAu?$AAt?$AA?3?$AA?3?$AAp?$AAo?$AAs?$AAi?$AAt?$AAi?$AAo?$AAn?$AAa?$AAl?$AA_?$AAp@ 004c07f0     libucrtd:output.obj
 0002:0000e950       ??_C@_1BBE@IBPNPIIM@?$AA_?$AA_?$AAc?$AAr?$AAt?$AA_?$AAs?$AAt?$AAd?$AAi?$AAo?$AA_?$AAo?$AAu?$AAt?$AAp?$AAu?$AAt?$AA?3?$AA?3?$AAp?$AAo?$AAs?$AAi?$AAt?$AAi?$AAo?$AAn?$AAa?$AAl?$AA_?$AAp@ 004c0950     libucrtd:output.obj
 0002:0000eaa0       ??_C@_1BCA@HCPCJFGA@?$AA_?$AA_?$AAc?$AAr?$AAt?$AA_?$AAs?$AAt?$AAd?$AAi?$AAo?$AA_?$AAo?$AAu?$AAt?$AAp?$AAu?$AAt?$AA?3?$AA?3?$AAp?$AAo?$AAs?$AAi?$AAt?$AAi?$AAo?$AAn?$AAa?$AAl?$AA_?$AAp@ 004c0aa0     libucrtd:output.obj
 0002:0000ec00       ??_C@_1BLC@INKIGOCN@?$AA_?$AA_?$AAc?$AAr?$AAt?$AA_?$AAs?$AAt?$AAd?$AAi?$AAo?$AA_?$AAo?$AAu?$AAt?$AAp?$AAu?$AAt?$AA?3?$AA?3?$AAo?$AAu?$AAt?$AAp?$AAu?$AAt?$AA_?$AAp?$AAr?$AAo?$AAc?$AAe@ 004c0c00     libucrtd:output.obj
 0002:0000ee08       ??_C@_1BMK@JGIBNIA@?$AA_?$AA_?$AAc?$AAr?$AAt?$AA_?$AAs?$AAt?$AAd?$AAi?$AAo?$AA_?$AAo?$AAu?$AAt?$AAp?$AAu?$AAt?$AA?3?$AA?3?$AAo?$AAu?$AAt?$AAp?$AAu?$AAt?$AA_?$AAp?$AAr?$AAo?$AAc?$AAe@ 004c0e08     libucrtd:output.obj
 0002:0000f030       ??_C@_1BMG@CGPDIFDK@?$AA_?$AA_?$AAc?$AAr?$AAt?$AA_?$AAs?$AAt?$AAd?$AAi?$AAo?$AA_?$AAo?$AAu?$AAt?$AAp?$AAu?$AAt?$AA?3?$AA?3?$AAo?$AAu?$AAt?$AAp?$AAu?$AAt?$AA_?$AAp?$AAr?$AAo?$AAc?$AAe@ 004c1030     libucrtd:output.obj
 0002:0000f250       ??_C@_1BMC@FAGJFBLI@?$AA_?$AA_?$AAc?$AAr?$AAt?$AA_?$AAs?$AAt?$AAd?$AAi?$AAo?$AA_?$AAo?$AAu?$AAt?$AAp?$AAu?$AAt?$AA?3?$AA?3?$AAo?$AAu?$AAt?$AAp?$AAu?$AAt?$AA_?$AAp?$AAr?$AAo?$AAc?$AAe@ 004c1250     libucrtd:output.obj
 0002:0000f470       ??_C@_1BNO@OHFFMOOJ@?$AA_?$AA_?$AAc?$AAr?$AAt?$AA_?$AAs?$AAt?$AAd?$AAi?$AAo?$AA_?$AAo?$AAu?$AAt?$AAp?$AAu?$AAt?$AA?3?$AA?3?$AAo?$AAu?$AAt?$AAp?$AAu?$AAt?$AA_?$AAp?$AAr?$AAo?$AAc?$AAe@ 004c1470     libucrtd:output.obj
 0002:0000f6b0       ??_C@_1BNK@KHNJGCCP@?$AA_?$AA_?$AAc?$AAr?$AAt?$AA_?$AAs?$AAt?$AAd?$AAi?$AAo?$AA_?$AAo?$AAu?$AAt?$AAp?$AAu?$AAt?$AA?3?$AA?3?$AAo?$AAu?$AAt?$AAp?$AAu?$AAt?$AA_?$AAp?$AAr?$AAo?$AAc?$AAe@ 004c16b0     libucrtd:output.obj
 0002:0000f8e8       ??_C@_1BLK@FOLFMPJH@?$AA_?$AA_?$AAc?$AAr?$AAt?$AA_?$AAs?$AAt?$AAd?$AAi?$AAo?$AA_?$AAo?$AAu?$AAt?$AAp?$AAu?$AAt?$AA?3?$AA?3?$AAo?$AAu?$AAt?$AAp?$AAu?$AAt?$AA_?$AAp?$AAr?$AAo?$AAc?$AAe@ 004c18e8     libucrtd:output.obj
 0002:0000fb00       ??_C@_1BNC@OHPDPPJK@?$AA_?$AA_?$AAc?$AAr?$AAt?$AA_?$AAs?$AAt?$AAd?$AAi?$AAo?$AA_?$AAo?$AAu?$AAt?$AAp?$AAu?$AAt?$AA?3?$AA?3?$AAo?$AAu?$AAt?$AAp?$AAu?$AAt?$AA_?$AAp?$AAr?$AAo?$AAc?$AAe@ 004c1b00     libucrtd:output.obj
 0002:0000fd30       ??_C@_1BNC@JPKLPOHO@?$AA_?$AA_?$AAc?$AAr?$AAt?$AA_?$AAs?$AAt?$AAd?$AAi?$AAo?$AA_?$AAo?$AAu?$AAt?$AAp?$AAu?$AAt?$AA?3?$AA?3?$AAo?$AAu?$AAt?$AAp?$AAu?$AAt?$AA_?$AAp?$AAr?$AAo?$AAc?$AAe@ 004c1d30     libucrtd:output.obj
 0002:0000ff60       ??_C@_1BMG@BBEFGBID@?$AA_?$AA_?$AAc?$AAr?$AAt?$AA_?$AAs?$AAt?$AAd?$AAi?$AAo?$AA_?$AAo?$AAu?$AAt?$AAp?$AAu?$AAt?$AA?3?$AA?3?$AAo?$AAu?$AAt?$AAp?$AAu?$AAt?$AA_?$AAp?$AAr?$AAo?$AAc?$AAe@ 004c1f60     libucrtd:output.obj
 0002:00010180       ??_C@_1BNO@NAODCKFA@?$AA_?$AA_?$AAc?$AAr?$AAt?$AA_?$AAs?$AAt?$AAd?$AAi?$AAo?$AA_?$AAo?$AAu?$AAt?$AAp?$AAu?$AAt?$AA?3?$AA?3?$AAo?$AAu?$AAt?$AAp?$AAu?$AAt?$AA_?$AAp?$AAr?$AAo?$AAc?$AAe@ 004c2180     libucrtd:output.obj
 0002:000103c0       _RtlNtPathSeperatorString  004c23c0     libucrtd:exit.obj
 0002:000103cc       ??_C@_13FPGAJAPJ@?$AA?2?$AA?$AA@ 004c23cc     libucrtd:exit.obj
 0002:000103d0       _RtlDosPathSeperatorsString 004c23d0     libucrtd:exit.obj
 0002:000103dc       ??_C@_15MNCACJLI@?$AA?2?$AA?1?$AA?$AA@ 004c23dc     libucrtd:exit.obj
 0002:000103e4       _RtlAlternateDosPathSeperatorString 004c23e4     libucrtd:exit.obj
 0002:000103f0       ??_C@_13CGOKJPIL@?$AA?1?$AA?$AA@ 004c23f0     libucrtd:exit.obj
 0002:000103f4       ??_C@_1BI@BGOHAHKC@?$AAm?$AAs?$AAc?$AAo?$AAr?$AAe?$AAe?$AA?4?$AAd?$AAl?$AAl?$AA?$AA@ 004c23f4     libucrtd:exit.obj
 0002:00010410       ??_C@_0P@MIGLKIOC@CorExitProcess?$AA@ 004c2410     libucrtd:exit.obj
 0002:00010428       ??_C@_1EO@MBPFOEIP@?$AAb?$AAu?$AAf?$AAf?$AAe?$AAr?$AA?5?$AA?$CB?$AA?$DN?$AA?5?$AAn?$AAu?$AAl?$AAl?$AAp?$AAt?$AAr?$AA?5?$AA?$CG?$AA?$CG?$AA?5?$AAs?$AAi?$AAz?$AAe?$AA_?$AAi?$AAn?$AA_?$AAc?$AAh?$AAa@ 004c2428     libucrtd:ctime.obj
 0002:00010488       ??_C@_1FM@GNABIEEL@?$AAm?$AAi?$AAn?$AAk?$AAe?$AAr?$AAn?$AAe?$AAl?$AA?2?$AAc?$AAr?$AAt?$AAs?$AA?2?$AAu?$AAc?$AAr?$AAt?$AA?2?$AAs?$AAr?$AAc?$AA?2?$AAa?$AAp?$AAp?$AAc?$AAr?$AAt?$AA?2?$AAt@ 004c2488     libucrtd:ctime.obj
 0002:000104f8       ??_C@_1BO@IFLJMBPJ@?$AAc?$AAo?$AAm?$AAm?$AAo?$AAn?$AA_?$AAc?$AAt?$AAi?$AAm?$AAe?$AA_?$AAs?$AA?$AA@ 004c24f8     libucrtd:ctime.obj
 0002:0001051c       ??_C@_1CI@DCHHDOEB@?$AAs?$AAi?$AAz?$AAe?$AA_?$AAi?$AAn?$AA_?$AAc?$AAh?$AAa?$AAr?$AAs?$AA?5?$AA?$DO?$AA?$DN?$AA?5?$AA2?$AA6?$AA?$AA@ 004c251c     libucrtd:ctime.obj
 0002:0001054c       ??_C@_1DA@FIGBFGOM@?$AAt?$AAi?$AAm?$AAe?$AA_?$AAt?$AA_?$AAv?$AAa?$AAl?$AAu?$AAe?$AA?5?$AA?$CB?$AA?$DN?$AA?5?$AAn?$AAu?$AAl?$AAl?$AAp?$AAt?$AAr?$AA?$AA@ 004c254c     libucrtd:ctime.obj
 0002:00010588       ??_C@_1BK@FFKKLBJF@?$AAc?$AAo?$AAm?$AAm?$AAo?$AAn?$AA_?$AAc?$AAt?$AAi?$AAm?$AAe?$AA?$AA@ 004c2588     libucrtd:ctime.obj
 0002:000105a8       ??_C@_1BM@DGNILAKJ@?$AAt?$AAs?$AA?5?$AA?$CB?$AA?$DN?$AA?5?$AAn?$AAu?$AAl?$AAl?$AAp?$AAt?$AAr?$AA?$AA@ 004c25a8     libucrtd:time.obj
 0002:000105d0       ??_C@_1FK@PHFCCLNI@?$AAm?$AAi?$AAn?$AAk?$AAe?$AAr?$AAn?$AAe?$AAl?$AA?2?$AAc?$AAr?$AAt?$AAs?$AA?2?$AAu?$AAc?$AAr?$AAt?$AA?2?$AAs?$AAr?$AAc?$AA?2?$AAa?$AAp?$AAp?$AAc?$AAr?$AAt?$AA?2?$AAt@ 004c25d0     libucrtd:time.obj
 0002:0001063c       ??_C@_1CI@PADPINCL@?$AAc?$AAo?$AAm?$AAm?$AAo?$AAn?$AA_?$AAt?$AAi?$AAm?$AAe?$AAs?$AAp?$AAe?$AAc?$AA_?$AAg?$AAe?$AAt?$AA?$AA@ 004c263c     libucrtd:time.obj
 0002:00010788       ??_C@_03KHJOGHMM@exp?$AA@  004c2788     libucrtd:fpexcept.obj
 0002:0001078c       ??_C@_03JGHBODFD@pow?$AA@  004c278c     libucrtd:fpexcept.obj
 0002:00010790       ??_C@_03MGHMBJCF@log?$AA@  004c2790     libucrtd:fpexcept.obj
 0002:00010794       ??_C@_05HGHHAHAP@log10?$AA@ 004c2794     libucrtd:fpexcept.obj
 0002:0001079c       ??_C@_04COOMCNPB@sinh?$AA@ 004c279c     libucrtd:fpexcept.obj
 0002:000107a4       ??_C@_04HPJJNFIM@cosh?$AA@ 004c27a4     libucrtd:fpexcept.obj
 0002:000107ac       ??_C@_04FJHINJAO@tanh?$AA@ 004c27ac     libucrtd:fpexcept.obj
 0002:000107b4       ??_C@_04FIHNOPOL@asin?$AA@ 004c27b4     libucrtd:fpexcept.obj
 0002:000107bc       ??_C@_04PDIFKINK@acos?$AA@ 004c27bc     libucrtd:fpexcept.obj
 0002:000107c4       ??_C@_04MLLJIGOK@atan?$AA@ 004c27c4     libucrtd:fpexcept.obj
 0002:000107cc       ??_C@_05KNGEOGJB@atan2?$AA@ 004c27cc     libucrtd:fpexcept.obj
 0002:000107d4       ??_C@_04EIAKFFMI@sqrt?$AA@ 004c27d4     libucrtd:fpexcept.obj
 0002:000107dc       ??_C@_03BLEJJJBH@sin?$AA@  004c27dc     libucrtd:fpexcept.obj
 0002:000107e0       ??_C@_03LALBNOCG@cos?$AA@  004c27e0     libucrtd:fpexcept.obj
 0002:000107e4       ??_C@_03IIINPABG@tan?$AA@  004c27e4     libucrtd:fpexcept.obj
 0002:000107e8       ??_C@_04GFPJNGEK@ceil?$AA@ 004c27e8     libucrtd:fpexcept.obj
 0002:000107f0       ??_C@_05PBJFFIGL@floor?$AA@ 004c27f0     libucrtd:fpexcept.obj
 0002:000107f8       ??_C@_04ODHECPBC@fabs?$AA@ 004c27f8     libucrtd:fpexcept.obj
 0002:00010800       ??_C@_04EHEDPDJG@modf?$AA@ 004c2800     libucrtd:fpexcept.obj
 0002:00010808       ??_C@_05CEJMAHNP@ldexp?$AA@ 004c2808     libucrtd:fpexcept.obj
 0002:00010810       ??_C@_05KBKMEMPO@_cabs?$AA@ 004c2810     libucrtd:fpexcept.obj
 0002:00010818       ??_C@_06MEIMCGCF@_hypot?$AA@ 004c2818     libucrtd:fpexcept.obj
 0002:00010820       ??_C@_04KEPJIHGP@fmod?$AA@ 004c2820     libucrtd:fpexcept.obj
 0002:00010828       ??_C@_05GKKHEGJL@frexp?$AA@ 004c2828     libucrtd:fpexcept.obj
 0002:00010830       ??_C@_03MJLDFKDL@_y0?$AA@  004c2830     libucrtd:fpexcept.obj
 0002:00010834       ??_C@_03NAKIGLHK@_y1?$AA@  004c2834     libucrtd:fpexcept.obj
 0002:00010838       ??_C@_03ONILCKOB@_yn?$AA@  004c2838     libucrtd:fpexcept.obj
 0002:0001083c       ??_C@_05JGDBENOH@_logb?$AA@ 004c283c     libucrtd:fpexcept.obj
 0002:00010844       ??_C@_0L@KDOEJCKC@_nextafter?$AA@ 004c2844     libucrtd:fpexcept.obj
 0002:00010858       ___acrt_exception_action_table 004c2858     libucrtd:exception_filter.obj
 0002:00010904       ___acrt_signal_action_table_count 004c2904     libucrtd:exception_filter.obj
 0002:00010908       ___acrt_signal_action_table_size 004c2908     libucrtd:exception_filter.obj
 0002:0001090c       ___acrt_signal_action_first_fpe_index 004c290c     libucrtd:exception_filter.obj
 0002:00010910       ___acrt_signal_action_fpe_count 004c2910     libucrtd:exception_filter.obj
 0002:00010918       ??_C@_1IC@DCNEKBE@?$AAm?$AAi?$AAn?$AAk?$AAe?$AAr?$AAn?$AAe?$AAl?$AA?2?$AAc?$AAr?$AAt?$AAs?$AA?2?$AAu?$AAc?$AAr?$AAt?$AA?2?$AAs?$AAr?$AAc?$AA?2?$AAa?$AAp?$AAp?$AAc?$AAr?$AAt?$AA?2?$AAi@ 004c2918     libucrtd:report_runtime_error.obj
 0002:000109b4       ??_C@_1DI@BLFJHKKP@?$AA_?$AA_?$AAa?$AAc?$AAr?$AAt?$AA_?$AAr?$AAe?$AAp?$AAo?$AAr?$AAt?$AA_?$AAr?$AAu?$AAn?$AAt?$AAi?$AAm?$AAe?$AA_?$AAe?$AAr?$AAr?$AAo?$AAr?$AA?$AA@ 004c29b4     libucrtd:report_runtime_error.obj
 0002:000109f8       ??_C@_1LE@MHPGJGKE@?$AAw?$AAc?$AAs?$AAc?$AAp?$AAy?$AA_?$AAs?$AA?$CI?$AAo?$AAu?$AAt?$AAm?$AAs?$AAg?$AA?0?$AA?5?$AA?$CI?$AAs?$AAi?$AAz?$AAe?$AAo?$AAf?$AA?$CI?$AA?$CK?$AA_?$AA_?$AAc?$AAo?$AAu?$AAn@ 004c29f8     libucrtd:report_runtime_error.obj
 0002:00010ad0       ??_C@_1DE@JNGNBFGO@?$AAR?$AAu?$AAn?$AAt?$AAi?$AAm?$AAe?$AA?5?$AAE?$AAr?$AAr?$AAo?$AAr?$AA?$CB?$AA?6?$AA?6?$AAP?$AAr?$AAo?$AAg?$AAr?$AAa?$AAm?$AA?3?$AA?5?$AA?$AA@ 004c2ad0     libucrtd:report_runtime_error.obj
 0002:00010b10       ??_C@_1HK@FJJNAABO@?$AAw?$AAc?$AAs?$AAc?$AAp?$AAy?$AA_?$AAs?$AA?$CI?$AAp?$AAr?$AAo?$AAg?$AAn?$AAa?$AAm?$AAe?$AA?0?$AA?5?$AAp?$AAr?$AAo?$AAg?$AAn?$AAa?$AAm?$AAe?$AA_?$AAs?$AAi?$AAz?$AAe@ 004c2b10     libucrtd:report_runtime_error.obj
 0002:00010ba4       ??_C@_1CO@EAEJAADC@?$AA?$DM?$AAp?$AAr?$AAo?$AAg?$AAr?$AAa?$AAm?$AA?5?$AAn?$AAa?$AAm?$AAe?$AA?5?$AAu?$AAn?$AAk?$AAn?$AAo?$AAw?$AAn?$AA?$DO?$AA?$AA@ 004c2ba4     libucrtd:report_runtime_error.obj
 0002:00010be0       ??_C@_1HI@FLHKGEBE@?$AAw?$AAc?$AAs?$AAn?$AAc?$AAp?$AAy?$AA_?$AAs?$AA?$CI?$AAp?$AAc?$AAh?$AA?0?$AA?5?$AAp?$AAr?$AAo?$AAg?$AAn?$AAa?$AAm?$AAe?$AA_?$AAs?$AAi?$AAz?$AAe?$AA?5?$AA?9?$AA?5?$AA?$CI@ 004c2be0     libucrtd:report_runtime_error.obj
 0002:00010c70       ??_C@_17LGKOMLJ@?$AA?4?$AA?4?$AA?4?$AA?$AA@ 004c2c70     libucrtd:report_runtime_error.obj
 0002:00010c80       ??_C@_1IG@MNNKBLBI@?$AAw?$AAc?$AAs?$AAc?$AAa?$AAt?$AA_?$AAs?$AA?$CI?$AAo?$AAu?$AAt?$AAm?$AAs?$AAg?$AA?0?$AA?5?$AA?$CI?$AAs?$AAi?$AAz?$AAe?$AAo?$AAf?$AA?$CI?$AA?$CK?$AA_?$AA_?$AAc?$AAo?$AAu?$AAn@ 004c2c80     libucrtd:report_runtime_error.obj
 0002:00010d20       ??_C@_15IABLJNFO@?$AA?6?$AA?6?$AA?$AA@ 004c2d20     libucrtd:report_runtime_error.obj
 0002:00010d28       ??_C@_1IG@DFBBBDAN@?$AAw?$AAc?$AAs?$AAc?$AAa?$AAt?$AA_?$AAs?$AA?$CI?$AAo?$AAu?$AAt?$AAm?$AAs?$AAg?$AA?0?$AA?5?$AA?$CI?$AAs?$AAi?$AAz?$AAe?$AAo?$AAf?$AA?$CI?$AA?$CK?$AA_?$AA_?$AAc?$AAo?$AAu?$AAn@ 004c2d28     libucrtd:report_runtime_error.obj
 0002:00010dc8       ??_C@_1EK@MBDPDCGA@?$AAM?$AAi?$AAc?$AAr?$AAo?$AAs?$AAo?$AAf?$AAt?$AA?5?$AAV?$AAi?$AAs?$AAu?$AAa?$AAl?$AA?5?$AAC?$AA?$CL?$AA?$CL?$AA?5?$AAR?$AAu?$AAn?$AAt?$AAi?$AAm?$AAe?$AA?5?$AAL?$AAi?$AAb@ 004c2dc8     libucrtd:report_runtime_error.obj
 0002:00010e20       ??_C@_0DI@KNDIGDEP@minkernel?2crts?2ucrt?2src?2appcrt?2s@ 004c2e20     libucrtd:argv_parsing.obj
 0002:00010e68       ??_C@_1JO@PGBIJBAM@?$AAm?$AAo?$AAd?$AAe?$AA?5?$AA?$DN?$AA?$DN?$AA?5?$AA_?$AAc?$AAr?$AAt?$AA_?$AAa?$AAr?$AAg?$AAv?$AA_?$AAe?$AAx?$AAp?$AAa?$AAn?$AAd?$AAe?$AAd?$AA_?$AAa?$AAr?$AAg?$AAu?$AAm@ 004c2e68     libucrtd:argv_parsing.obj
 0002:00010f28       ??_C@_1HA@JMLCANEE@?$AAm?$AAi?$AAn?$AAk?$AAe?$AAr?$AAn?$AAe?$AAl?$AA?2?$AAc?$AAr?$AAt?$AAs?$AA?2?$AAu?$AAc?$AAr?$AAt?$AA?2?$AAs?$AAr?$AAc?$AA?2?$AAa?$AAp?$AAp?$AAc?$AAr?$AAt?$AA?2?$AAs@ 004c2f28     libucrtd:argv_parsing.obj
 0002:00010fb0       ??_C@_1CM@LHOJELIC@?$AAc?$AAo?$AAm?$AAm?$AAo?$AAn?$AA_?$AAc?$AAo?$AAn?$AAf?$AAi?$AAg?$AAu?$AAr?$AAe?$AA_?$AAa?$AAr?$AAg?$AAv?$AA?$AA@ 004c2fb0     libucrtd:argv_parsing.obj
 0002:00010fe8       ??_C@_0EG@LEHKHOEH@minkernel?2crts?2ucrt?2src?2desktopc@ 004c2fe8     libucrtd:environment_initialization.obj
 0002:00011040       ??_C@_1IM@IMOFFPLG@?$AAm?$AAi?$AAn?$AAk?$AAe?$AAr?$AAn?$AAe?$AAl?$AA?2?$AAc?$AAr?$AAt?$AAs?$AA?2?$AAu?$AAc?$AAr?$AAt?$AA?2?$AAs?$AAr?$AAc?$AA?2?$AAd?$AAe?$AAs?$AAk?$AAt?$AAo?$AAp?$AAc@ 004c3040     libucrtd:environment_initialization.obj
 0002:000110e8       ??_C@_1CG@MNNNBNAK@?$AAc?$AAr?$AAe?$AAa?$AAt?$AAe?$AA_?$AAe?$AAn?$AAv?$AAi?$AAr?$AAo?$AAn?$AAm?$AAe?$AAn?$AAt?$AA?$AA@ 004c30e8     libucrtd:environment_initialization.obj
 0002:00011118       ??_C@_1HI@OOPIFFGA@?$AAt?$AAr?$AAa?$AAi?$AAt?$AAs?$AA?3?$AA?3?$AAt?$AAc?$AAs?$AAc?$AAp?$AAy?$AA_?$AAs?$AA?$CI?$AAv?$AAa?$AAr?$AAi?$AAa?$AAb?$AAl?$AAe?$AA?4?$AAg?$AAe?$AAt?$AA?$CI?$AA?$CJ?$AA?0@ 004c3118     libucrtd:environment_initialization.obj
 0002:000111a8       ??_C@_1MI@PNMMBOIN@?$AAm?$AAo?$AAd?$AAe?$AA?5?$AA?$DN?$AA?$DN?$AA?5?$AA_?$AAO?$AA_?$AAT?$AAE?$AAX?$AAT?$AA?5?$AA?$HM?$AA?$HM?$AA?5?$AAm?$AAo?$AAd?$AAe?$AA?5?$AA?$DN?$AA?$DN?$AA?5?$AA_?$AAO?$AA_?$AAB?$AAI@ 004c31a8     libucrtd:setmode.obj
 0002:00011298       ??_C@_1GC@CIJNGKLD@?$AAm?$AAi?$AAn?$AAk?$AAe?$AAr?$AAn?$AAe?$AAl?$AA?2?$AAc?$AAr?$AAt?$AAs?$AA?2?$AAu?$AAc?$AAr?$AAt?$AA?2?$AAs?$AAr?$AAc?$AA?2?$AAa?$AAp?$AAp?$AAc?$AAr?$AAt?$AA?2?$AAl@ 004c3298     libucrtd:setmode.obj
 0002:00011310       ??_C@_1BC@JBGGJDCM@?$AA_?$AAs?$AAe?$AAt?$AAm?$AAo?$AAd?$AAe?$AA?$AA@ 004c3310     libucrtd:setmode.obj
 0002:00011328       ??_C@_1FO@LPCLHKGE@?$AA?$CI?$AAf?$AAh?$AA?5?$AA?$DO?$AA?$DN?$AA?5?$AA0?$AA?5?$AA?$CG?$AA?$CG?$AA?5?$AA?$CI?$AAu?$AAn?$AAs?$AAi?$AAg?$AAn?$AAe?$AAd?$AA?$CJ?$AAf?$AAh?$AA?5?$AA?$DM?$AA?5?$AA?$CI?$AAu?$AAn?$AAs?$AAi@ 004c3328     libucrtd:setmode.obj
 0002:00011398       ??_C@_1CM@OKGMMMDH@?$AA?$CI?$AA_?$AAo?$AAs?$AAf?$AAi?$AAl?$AAe?$AA?$CI?$AAf?$AAh?$AA?$CJ?$AA?5?$AA?$CG?$AA?5?$AAF?$AAO?$AAP?$AAE?$AAN?$AA?$CJ?$AA?$AA@ 004c3398     libucrtd:setmode.obj
 0002:000113d0       ??_C@_1JE@ECKHFIFP@?$AA?$CI?$AA?$CC?$AAI?$AAn?$AAv?$AAa?$AAl?$AAi?$AAd?$AA?5?$AAf?$AAi?$AAl?$AAe?$AA?5?$AAd?$AAe?$AAs?$AAc?$AAr?$AAi?$AAp?$AAt?$AAo?$AAr?$AA?4?$AA?5?$AAF?$AAi?$AAl?$AAe?$AA?5@ 004c33d0     libucrtd:setmode.obj
 0002:00011488       ??_C@_1HC@GNDCDMJL@?$AAm?$AAo?$AAd?$AAe?$AA?5?$AA?$DN?$AA?$DN?$AA?5?$AA_?$AAO?$AA_?$AAT?$AAE?$AAX?$AAT?$AA?5?$AA?$HM?$AA?$HM?$AA?5?$AAm?$AAo?$AAd?$AAe?$AA?5?$AA?$DN?$AA?$DN?$AA?5?$AA_?$AAO?$AA_?$AAB?$AAI@ 004c3488     libucrtd:setmode.obj
 0002:00011510       ??_C@_1BG@IEEHLOCL@?$AA_?$AAs?$AAe?$AAt?$AA_?$AAf?$AAm?$AAo?$AAd?$AAe?$AA?$AA@ 004c3510     libucrtd:setmode.obj
 0002:0001152c       ??_C@_1CC@ODGEBJBO@?$AAp?$AAM?$AAo?$AAd?$AAe?$AA?5?$AA?$CB?$AA?$DN?$AA?5?$AAn?$AAu?$AAl?$AAl?$AAp?$AAt?$AAr?$AA?$AA@ 004c352c     libucrtd:setmode.obj
 0002:00011554       ??_C@_1BG@CKGMPOFH@?$AA_?$AAg?$AAe?$AAt?$AA_?$AAf?$AAm?$AAo?$AAd?$AAe?$AA?$AA@ 004c3554     libucrtd:setmode.obj
 0002:00011570       ??_C@_1GK@EMNILMBI@?$AAm?$AAi?$AAn?$AAk?$AAe?$AAr?$AAn?$AAe?$AAl?$AA?2?$AAc?$AAr?$AAt?$AAs?$AA?2?$AAu?$AAc?$AAr?$AAt?$AA?2?$AAs?$AAr?$AAc?$AA?2?$AAa?$AAp?$AAp?$AAc?$AAr?$AAt?$AA?2?$AAs@ 004c3570     libucrtd:argv_data.obj
 0002:000115f0       ??_C@_1BK@PNLDCCDP@?$AA_?$AAg?$AAe?$AAt?$AA_?$AAw?$AAp?$AAg?$AAm?$AAp?$AAt?$AAr?$AA?$AA@ 004c35f0     libucrtd:argv_data.obj
 0002:00011610       ??_C@_1CI@ENCADPBF@?$AA_?$AAw?$AAp?$AAg?$AAm?$AAp?$AAt?$AAr?$AA?5?$AA?$CB?$AA?$DN?$AA?5?$AAn?$AAu?$AAl?$AAl?$AAp?$AAt?$AAr?$AA?$AA@ 004c3610     libucrtd:argv_data.obj
 0002:00011640       ??_C@_1BI@COAAPHJK@?$AA_?$AAg?$AAe?$AAt?$AA_?$AAp?$AAg?$AAm?$AAp?$AAt?$AAr?$AA?$AA@ 004c3640     libucrtd:argv_data.obj
 0002:0001165c       ??_C@_1CG@CKJHPBDG@?$AA_?$AAp?$AAg?$AAm?$AAp?$AAt?$AAr?$AA?5?$AA?$CB?$AA?$DN?$AA?5?$AAn?$AAu?$AAl?$AAl?$AAp?$AAt?$AAr?$AA?$AA@ 004c365c     libucrtd:argv_data.obj
 0002:00011690       ___lc_category             004c3690     libucrtd:wsetlocale.obj
 0002:000116e8       ??_C@_1O@GIFLHMA@?$AAL?$AAC?$AA_?$AAA?$AAL?$AAL?$AA?$AA@ 004c36e8     libucrtd:wsetlocale.obj
 0002:000116f8       ??_C@_1BG@PPOMIBNJ@?$AAL?$AAC?$AA_?$AAC?$AAO?$AAL?$AAL?$AAA?$AAT?$AAE?$AA?$AA@ 004c36f8     libucrtd:wsetlocale.obj
 0002:00011714       ??_C@_1BC@FFJGAPJM@?$AAL?$AAC?$AA_?$AAC?$AAT?$AAY?$AAP?$AAE?$AA?$AA@ 004c3714     libucrtd:wsetlocale.obj
 0002:0001172c       ??_C@_1BI@PCKFNJFB@?$AAL?$AAC?$AA_?$AAM?$AAO?$AAN?$AAE?$AAT?$AAA?$AAR?$AAY?$AA?$AA@ 004c372c     libucrtd:wsetlocale.obj
 0002:00011748       ??_C@_1BG@ENIEDKID@?$AAL?$AAC?$AA_?$AAN?$AAU?$AAM?$AAE?$AAR?$AAI?$AAC?$AA?$AA@ 004c3748     libucrtd:wsetlocale.obj
 0002:00011764       ??_C@_1BA@HAAOMIIG@?$AAL?$AAC?$AA_?$AAT?$AAI?$AAM?$AAE?$AA?$AA@ 004c3764     libucrtd:wsetlocale.obj
 0002:00011810       ??_C@_1GA@LDEGDKD@?$AA?$CI?$AA?$CC?$AAI?$AAn?$AAv?$AAa?$AAl?$AAi?$AAd?$AA?5?$AAp?$AAa?$AAr?$AAa?$AAm?$AAe?$AAt?$AAe?$AAr?$AA?5?$AAf?$AAo?$AAr?$AA?5?$AA_?$AAc?$AAo?$AAn?$AAf?$AAi?$AAg?$AAt@ 004c3810     libucrtd:wsetlocale.obj
 0002:00011888       ??_C@_1GK@DPKNLBIE@?$AAm?$AAi?$AAn?$AAk?$AAe?$AAr?$AAn?$AAe?$AAl?$AA?2?$AAc?$AAr?$AAt?$AAs?$AA?2?$AAu?$AAc?$AAr?$AAt?$AA?2?$AAs?$AAr?$AAc?$AA?2?$AAa?$AAp?$AAp?$AAc?$AAr?$AAt?$AA?2?$AAl@ 004c3888     libucrtd:wsetlocale.obj
 0002:00011908       ??_C@_1CI@FGIONOJM@?$AA_?$AAc?$AAo?$AAn?$AAf?$AAi?$AAg?$AAt?$AAh?$AAr?$AAe?$AAa?$AAd?$AAl?$AAo?$AAc?$AAa?$AAl?$AAe?$AA?$AA@ 004c3908     libucrtd:wsetlocale.obj
 0002:00011938       ??_C@_0DF@MKMHJGEJ@minkernel?2crts?2ucrt?2src?2appcrt?2l@ 004c3938     libucrtd:wsetlocale.obj
 0002:00011978       ??_C@_1FG@OHLFEKMC@?$AAL?$AAC?$AA_?$AAM?$AAI?$AAN?$AA?5?$AA?$DM?$AA?$DN?$AA?5?$AA_?$AAc?$AAa?$AAt?$AAe?$AAg?$AAo?$AAr?$AAy?$AA?5?$AA?$CG?$AA?$CG?$AA?5?$AA_?$AAc?$AAa?$AAt?$AAe?$AAg?$AAo?$AAr?$AAy@ 004c3978     libucrtd:wsetlocale.obj
 0002:000119e0       ??_C@_1BI@KJNPAEHL@?$AA_?$AAw?$AAs?$AAe?$AAt?$AAl?$AAo?$AAc?$AAa?$AAl?$AAe?$AA?$AA@ 004c39e0     libucrtd:wsetlocale.obj
 0002:000119fc       ??_C@_15NBPDDFIP@?$AA?$DN?$AA?$DL?$AA?$AA@ 004c39fc     libucrtd:wsetlocale.obj
 0002:00011a04       ??_C@_13PJJBFPED@?$AA?$DL?$AA?$AA@ 004c3a04     libucrtd:wsetlocale.obj
 0002:00011a08       ??_C@_1CG@DKJCBBPP@?$AA_?$AAw?$AAs?$AAe?$AAt?$AAl?$AAo?$AAc?$AAa?$AAl?$AAe?$AA_?$AAn?$AAo?$AAl?$AAo?$AAc?$AAk?$AA?$AA@ 004c3a08     libucrtd:wsetlocale.obj
 0002:00011a38       ??_C@_1IG@NGDCPCDE@?$AAw?$AAc?$AAs?$AAn?$AAc?$AAp?$AAy?$AA_?$AAs?$AA?$CI?$AAl?$AAc?$AAt?$AAe?$AAm?$AAp?$AA?0?$AA?5?$AA?$CI?$AAs?$AAi?$AAz?$AAe?$AAo?$AAf?$AA?$CI?$AA?$CK?$AA_?$AA_?$AAc?$AAo?$AAu@ 004c3a38     libucrtd:wsetlocale.obj
 0002:00011ad8       ??_C@_1CI@ODOPEMNJ@?$AA_?$AAw?$AAs?$AAe?$AAt?$AAl?$AAo?$AAc?$AAa?$AAl?$AAe?$AA_?$AAs?$AAe?$AAt?$AA_?$AAc?$AAa?$AAt?$AA?$AA@ 004c3ad8     libucrtd:wsetlocale.obj
 0002:00011b08       ??_C@_1EM@MHOCNIAA@?$AAw?$AAc?$AAs?$AAc?$AAp?$AAy?$AA_?$AAs?$AA?$CI?$AAp?$AAc?$AAh?$AA_?$AAc?$AAa?$AAt?$AA_?$AAl?$AAo?$AAc?$AAa?$AAl?$AAe?$AA?0?$AA?5?$AAc?$AAc?$AAh?$AA?0?$AA?5?$AAl?$AAc@ 004c3b08     libucrtd:wsetlocale.obj
 0002:00011b64       ??_C@_13NMPKAAJP@?$AA?$DN?$AA?$AA@ 004c3b64     libucrtd:wsetlocale.obj
